 CourseworkBase2020

 Timestamp is 5edc13ca (Sat Jun  6 23:08:10 2020)

 Preferred load address is 00400000

 Start         Length     Name                   Class
 0001:00000000 000055b0H .text$di                CODE
 0001:000055b0 00031e80H .text$mn                CODE
 0001:00037430 00003d02H .text$x                 CODE
 0002:00000000 00000104H .CRT$XCA                DATA
 0002:00000104 00000104H .CRT$XCAA               DATA
 0002:00000208 00000104H .CRT$XCU                DATA
 0002:0000030c 00000104H .CRT$XCZ                DATA
 0002:00000410 00000104H .CRT$XIA                DATA
 0002:00000514 00000104H .CRT$XIAA               DATA
 0002:00000618 00000104H .CRT$XIAC               DATA
 0002:0000071c 00000104H .CRT$XIZ                DATA
 0002:00000820 00000104H .CRT$XPA                DATA
 0002:00000924 00000104H .CRT$XPZ                DATA
 0002:00000a28 00000104H .CRT$XTA                DATA
 0002:00000b2c 00000104H .CRT$XTZ                DATA
 0002:00000c30 00005420H .rdata                  DATA
 0002:00006050 000014b0H .rdata$r                DATA
 0002:00007500 0000045cH .rdata$sxdata           DATA
 0002:0000795c 00000190H .rdata$zzzdbg           DATA
 0002:00007aec 00000104H .rtc$IAA                DATA
 0002:00007bf0 00000104H .rtc$IZZ                DATA
 0002:00007cf4 00000104H .rtc$TAA                DATA
 0002:00007df8 00000108H .rtc$TZZ                DATA
 0002:00007f00 00002ee8H .xdata$x                DATA
 0002:0000ade8 00000000H .edata                  DATA
 0003:00000000 00000130H .data                   DATA
 0003:00000130 00000de8H .data$r                 DATA
 0003:00000f18 00000448H .bss                    DATA
 0004:00000000 000003a0H .idata$5                DATA
 0004:000003a0 0000008cH .idata$2                DATA
 0004:0000042c 00000014H .idata$3                DATA
 0004:00000440 000003a0H .idata$4                DATA
 0004:000007e0 00000ed8H .idata$6                DATA
 0005:00000000 00000104H .00cfg                  DATA
 0006:00000000 00000170H .rsrc$01                DATA
 0006:00000170 000002ccH .rsrc$02                DATA

  Address         Publics by Value              Rva+Base       Lib:Object

 0000:00000000       ___guard_longjmp_table     00000000     <absolute>
 0000:00000000       ___dynamic_value_reloc_table 00000000     <absolute>
 0000:00000000       ___guard_iat_count         00000000     <absolute>
 0000:00000000       ___hybrid_auxiliary_iat    00000000     <absolute>
 0000:00000000       ___guard_iat_table         00000000     <absolute>
 0000:00000000       ___volatile_metadata       00000000     <absolute>
 0000:00000000       ___guard_fids_count        00000000     <absolute>
 0000:00000000       ___guard_longjmp_count     00000000     <absolute>
 0000:00000000       ___guard_fids_table        00000000     <absolute>
 0000:00000000       ___hybrid_code_map         00000000     <absolute>
 0000:00000000       ___enclave_config          00000000     <absolute>
 0000:00000000       ___hybrid_code_map_count   00000000     <absolute>
 0000:000000b3       ___safe_se_handler_count   000000b3     <absolute>
 0000:00000100       ___guard_flags             00000100     <absolute>
 0000:00000000       ___ImageBase               00400000     <linker-defined>
 0001:000055b0       ?virtSetupBackgroundBuffer@DraggingDemo@@UAEXXZ 004065b0 f   DraggingDemo.obj
 0001:000056f0       ?virtInitialiseObjects@DraggingDemo@@UAEHXZ 004066f0 f   DraggingDemo.obj
 0001:00005940       ?virtKeyDown@DraggingDemo@@UAEXH@Z 00406940 f   DraggingDemo.obj
 0001:00005970       ??1ImageManager@@QAE@XZ    00406970 f i mainfunction.obj
 0001:00005a60       ??$?0$$V@?$_Compressed_pair@V?$allocator@D@std@@V?$_String_val@U?$_Simple_types@D@std@@@2@$00@std@@QAE@U_Zero_then_variadic_args_t@1@@Z 00406a60 f i DraggingDemo.obj
 0001:00005a90       ??$?0$$V@?$_Compressed_pair@V?$allocator@U?$_Tree_node@U?$pair@$$CBV?$basic_string@DU?$char_traits@D@std@@V?$allocator@D@2@@std@@V?$shared_ptr@VRawImageData@@@2@@std@@PAX@std@@@std@@V?$_Tree_val@U?$_Tree_simple_types@U?$pair@$$CBV?$basic_string@DU?$char_traits@D@std@@V?$allocator@D@2@@std@@V?$shared_ptr@VRawImageData@@@2@@std@@@std@@@2@$00@std@@QAE@U_Zero_then_variadic_args_t@1@@Z 00406a90 f i DraggingDemo.obj
 0001:00005ac0       ??$?0$$V@?$_Compressed_pair@V?$allocator@U?$_Tree_node@U?$pair@$$CBV?$basic_string@DU?$char_traits@D@std@@V?$allocator@D@2@@std@@V?$weak_ptr@VRawImageData@@@2@@std@@PAX@std@@@std@@V?$_Tree_val@U?$_Tree_simple_types@U?$pair@$$CBV?$basic_string@DU?$char_traits@D@std@@V?$allocator@D@2@@std@@V?$weak_ptr@VRawImageData@@@2@@std@@@std@@@2@$00@std@@QAE@U_Zero_then_variadic_args_t@1@@Z 00406ac0 f i DraggingDemo.obj
 0001:00005af0       ??$?0AAV?$_Tree_iterator@V?$_Tree_val@U?$_Tree_simple_types@U?$pair@$$CBV?$basic_string@DU?$char_traits@D@std@@V?$allocator@D@2@@std@@V?$shared_ptr@VRawImageData@@@2@@std@@@std@@@std@@@std@@_N$0A@@?$pair@V?$_Tree_iterator@V?$_Tree_val@U?$_Tree_simple_types@U?$pair@$$CBV?$basic_string@DU?$char_traits@D@std@@V?$allocator@D@2@@std@@V?$shared_ptr@VRawImageData@@@2@@std@@@std@@@std@@@std@@_N@std@@QAE@AAV?$_Tree_iterator@V?$_Tree_val@U?$_Tree_simple_types@U?$pair@$$CBV?$basic_string@DU?$char_traits@D@std@@V?$allocator@D@2@@std@@V?$shared_ptr@VRawImageData@@@2@@std@@@std@@@std@@@1@$$QA_N@Z 00406af0 f i DraggingDemo.obj
 0001:00005b40       ??$?0AAV?$_Tree_iterator@V?$_Tree_val@U?$_Tree_simple_types@U?$pair@$$CBV?$basic_string@DU?$char_traits@D@std@@V?$allocator@D@2@@std@@V?$weak_ptr@VRawImageData@@@2@@std@@@std@@@std@@@std@@_N$0A@@?$pair@V?$_Tree_iterator@V?$_Tree_val@U?$_Tree_simple_types@U?$pair@$$CBV?$basic_string@DU?$char_traits@D@std@@V?$allocator@D@2@@std@@V?$weak_ptr@VRawImageData@@@2@@std@@@std@@@std@@@std@@_N@std@@QAE@AAV?$_Tree_iterator@V?$_Tree_val@U?$_Tree_simple_types@U?$pair@$$CBV?$basic_string@DU?$char_traits@D@std@@V?$allocator@D@2@@std@@V?$weak_ptr@VRawImageData@@@2@@std@@@std@@@std@@@1@$$QA_N@Z 00406b40 f i DraggingDemo.obj
 0001:00005b90       ??$?0AAV?$basic_string@DU?$char_traits@D@std@@V?$allocator@D@2@@std@@AAV?$shared_ptr@VRawImageData@@@1@$0A@@?$pair@V?$basic_string@DU?$char_traits@D@std@@V?$allocator@D@2@@std@@V?$shared_ptr@VRawImageData@@@2@@std@@QAE@AAV?$basic_string@DU?$char_traits@D@std@@V?$allocator@D@2@@1@AAV?$shared_ptr@VRawImageData@@@1@@Z 00406b90 f i DraggingDemo.obj
 0001:00005be0       ??$?0AAV?$basic_string@DU?$char_traits@D@std@@V?$allocator@D@2@@std@@AAV?$weak_ptr@VRawImageData@@@1@$0A@@?$pair@V?$basic_string@DU?$char_traits@D@std@@V?$allocator@D@2@@std@@V?$weak_ptr@VRawImageData@@@2@@std@@QAE@AAV?$basic_string@DU?$char_traits@D@std@@V?$allocator@D@2@@1@AAV?$weak_ptr@VRawImageData@@@1@@Z 00406be0 f i DraggingDemo.obj
 0001:00005c30       ??$?0ABU?$less@V?$basic_string@DU?$char_traits@D@std@@V?$allocator@D@2@@std@@@std@@U_Zero_then_variadic_args_t@1@@?$_Compressed_pair@U?$less@V?$basic_string@DU?$char_traits@D@std@@V?$allocator@D@2@@std@@@std@@V?$_Compressed_pair@V?$allocator@U?$_Tree_node@U?$pair@$$CBV?$basic_string@DU?$char_traits@D@std@@V?$allocator@D@2@@std@@V?$shared_ptr@VRawImageData@@@2@@std@@PAX@std@@@std@@V?$_Tree_val@U?$_Tree_simple_types@U?$pair@$$CBV?$basic_string@DU?$char_traits@D@std@@V?$allocator@D@2@@std@@V?$shared_ptr@VRawImageData@@@2@@std@@@std@@@2@$00@2@$00@std@@QAE@U_One_then_variadic_args_t@1@ABU?$less@V?$basic_string@DU?$char_traits@D@std@@V?$allocator@D@2@@std@@@1@$$QAU_Zero_then_variadic_args_t@1@@Z 00406c30 f i DraggingDemo.obj
 0001:00005c80       ??$?0ABU?$less@V?$basic_string@DU?$char_traits@D@std@@V?$allocator@D@2@@std@@@std@@U_Zero_then_variadic_args_t@1@@?$_Compressed_pair@U?$less@V?$basic_string@DU?$char_traits@D@std@@V?$allocator@D@2@@std@@@std@@V?$_Compressed_pair@V?$allocator@U?$_Tree_node@U?$pair@$$CBV?$basic_string@DU?$char_traits@D@std@@V?$allocator@D@2@@std@@V?$weak_ptr@VRawImageData@@@2@@std@@PAX@std@@@std@@V?$_Tree_val@U?$_Tree_simple_types@U?$pair@$$CBV?$basic_string@DU?$char_traits@D@std@@V?$allocator@D@2@@std@@V?$weak_ptr@VRawImageData@@@2@@std@@@std@@@2@$00@2@$00@std@@QAE@U_One_then_variadic_args_t@1@ABU?$less@V?$basic_string@DU?$char_traits@D@std@@V?$allocator@D@2@@std@@@1@$$QAU_Zero_then_variadic_args_t@1@@Z 00406c80 f i DraggingDemo.obj
 0001:00005cd0       ??$?0D@?$allocator@U_Container_proxy@std@@@std@@QAE@ABV?$allocator@D@1@@Z 00406cd0 f i DraggingDemo.obj
 0001:00005cf0       ??$?0U?$_Tree_node@U?$pair@$$CBV?$basic_string@DU?$char_traits@D@std@@V?$allocator@D@2@@std@@V?$shared_ptr@VRawImageData@@@2@@std@@PAX@std@@@?$allocator@U_Container_proxy@std@@@std@@QAE@ABV?$allocator@U?$_Tree_node@U?$pair@$$CBV?$basic_string@DU?$char_traits@D@std@@V?$allocator@D@2@@std@@V?$shared_ptr@VRawImageData@@@2@@std@@PAX@std@@@1@@Z 00406cf0 f i DraggingDemo.obj
 0001:00005d10       ??$?0U?$_Tree_node@U?$pair@$$CBV?$basic_string@DU?$char_traits@D@std@@V?$allocator@D@2@@std@@V?$weak_ptr@VRawImageData@@@2@@std@@PAX@std@@@?$allocator@U_Container_proxy@std@@@std@@QAE@ABV?$allocator@U?$_Tree_node@U?$pair@$$CBV?$basic_string@DU?$char_traits@D@std@@V?$allocator@D@2@@std@@V?$weak_ptr@VRawImageData@@@2@@std@@PAX@std@@@1@@Z 00406d10 f i DraggingDemo.obj
 0001:00005d30       ??$?0V?$_Tree_iterator@V?$_Tree_val@U?$_Tree_simple_types@U?$pair@$$CBV?$basic_string@DU?$char_traits@D@std@@V?$allocator@D@2@@std@@V?$shared_ptr@VRawImageData@@@2@@std@@@std@@@std@@@std@@_N$0A@@?$pair@V?$_Tree_iterator@V?$_Tree_val@U?$_Tree_simple_types@U?$pair@$$CBV?$basic_string@DU?$char_traits@D@std@@V?$allocator@D@2@@std@@V?$shared_ptr@VRawImageData@@@2@@std@@@std@@@std@@@std@@_N@std@@QAE@$$QAV?$_Tree_iterator@V?$_Tree_val@U?$_Tree_simple_types@U?$pair@$$CBV?$basic_string@DU?$char_traits@D@std@@V?$allocator@D@2@@std@@V?$shared_ptr@VRawImageData@@@2@@std@@@std@@@std@@@1@$$QA_N@Z 00406d30 f i DraggingDemo.obj
 0001:00005d80       ??$?0V?$_Tree_iterator@V?$_Tree_val@U?$_Tree_simple_types@U?$pair@$$CBV?$basic_string@DU?$char_traits@D@std@@V?$allocator@D@2@@std@@V?$weak_ptr@VRawImageData@@@2@@std@@@std@@@std@@@std@@_N$0A@@?$pair@V?$_Tree_iterator@V?$_Tree_val@U?$_Tree_simple_types@U?$pair@$$CBV?$basic_string@DU?$char_traits@D@std@@V?$allocator@D@2@@std@@V?$weak_ptr@VRawImageData@@@2@@std@@@std@@@std@@@std@@_N@std@@QAE@$$QAV?$_Tree_iterator@V?$_Tree_val@U?$_Tree_simple_types@U?$pair@$$CBV?$basic_string@DU?$char_traits@D@std@@V?$allocator@D@2@@std@@V?$weak_ptr@VRawImageData@@@2@@std@@@std@@@std@@@1@$$QA_N@Z 00406d80 f i DraggingDemo.obj
 0001:00005dd0       ??$?0V?$allocator@D@std@@$$V@?$_Compressed_pair@V?$allocator@D@std@@V?$_String_val@U?$_Simple_types@D@std@@@2@$00@std@@QAE@U_One_then_variadic_args_t@1@$$QAV?$allocator@D@1@@Z 00406dd0 f i DraggingDemo.obj
 0001:00005e00       ??$?0V?$allocator@D@std@@X@?$_String_alloc@U?$_String_base_types@DV?$allocator@D@std@@@std@@@std@@QAE@$$QAV?$allocator@D@1@@Z 00406e00 f i DraggingDemo.obj
 0001:00005e90       ??$?0V?$basic_string@DU?$char_traits@D@std@@V?$allocator@D@2@@std@@V?$shared_ptr@VRawImageData@@@1@$0A@@?$pair@$$CBV?$basic_string@DU?$char_traits@D@std@@V?$allocator@D@2@@std@@V?$shared_ptr@VRawImageData@@@2@@std@@QAE@$$QAU?$pair@V?$basic_string@DU?$char_traits@D@std@@V?$allocator@D@2@@std@@V?$shared_ptr@VRawImageData@@@2@@1@@Z 00406e90 f i DraggingDemo.obj
 0001:00005ee0       ??$?0V?$basic_string@DU?$char_traits@D@std@@V?$allocator@D@2@@std@@V?$weak_ptr@VRawImageData@@@1@$0A@@?$pair@$$CBV?$basic_string@DU?$char_traits@D@std@@V?$allocator@D@2@@std@@V?$weak_ptr@VRawImageData@@@2@@std@@QAE@$$QAU?$pair@V?$basic_string@DU?$char_traits@D@std@@V?$allocator@D@2@@std@@V?$weak_ptr@VRawImageData@@@2@@1@@Z 00406ee0 f i DraggingDemo.obj
 0001:00005f30       ??$?0VRawImageData@@$0A@@?$shared_ptr@VRawImageData@@@std@@QAE@PAVRawImageData@@@Z 00406f30 f i DraggingDemo.obj
 0001:00005f70       ??$?0VRawImageData@@$0A@@?$weak_ptr@VRawImageData@@@std@@QAE@ABV?$shared_ptr@VRawImageData@@@1@@Z 00406f70 f i DraggingDemo.obj
 0001:00005fe0       ??$?6DU?$char_traits@D@std@@V?$allocator@D@1@@std@@YAAAV?$basic_ostream@DU?$char_traits@D@std@@@0@AAV10@ABV?$basic_string@DU?$char_traits@D@std@@V?$allocator@D@2@@0@@Z 00406fe0 f i DraggingDemo.obj
 0001:00006010       ??$?6U?$char_traits@D@std@@@std@@YAAAV?$basic_ostream@DU?$char_traits@D@std@@@0@AAV10@PBD@Z 00407010 f i DraggingDemo.obj
 0001:00006410       ??$?9VRawImageData@@@std@@YA_NABV?$shared_ptr@VRawImageData@@@0@$$T@Z 00407410 f i DraggingDemo.obj
 0001:00006440       ??$?CVRawImageData@@$0A@@?$shared_ptr@VRawImageData@@@std@@QBEPAVRawImageData@@XZ 00407440 f i DraggingDemo.obj
 0001:00006460       ??$?MDU?$char_traits@D@std@@V?$allocator@D@1@@std@@YA_NABV?$basic_string@DU?$char_traits@D@std@@V?$allocator@D@2@@0@0@Z 00407460 f i DraggingDemo.obj
 0001:000064a0       ??$_Allocate@$07U_Default_allocate_traits@std@@$0A@@std@@YAPAXI@Z 004074a0 f i DraggingDemo.obj
 0001:000064e0       ??$_Allocate_manually_vector_aligned@U_Default_allocate_traits@std@@@std@@YAPAXI@Z 004074e0 f i DraggingDemo.obj
 0001:000065c0       ??$_Buy_if_not_node@AAU?$pair@$$CBV?$basic_string@DU?$char_traits@D@std@@V?$allocator@D@2@@std@@V?$shared_ptr@VRawImageData@@@2@@std@@@?$_Tree@V?$_Tmap_traits@V?$basic_string@DU?$char_traits@D@std@@V?$allocator@D@2@@std@@V?$shared_ptr@VRawImageData@@@2@U?$less@V?$basic_string@DU?$char_traits@D@std@@V?$allocator@D@2@@std@@@2@V?$allocator@U?$pair@$$CBV?$basic_string@DU?$char_traits@D@std@@V?$allocator@D@2@@std@@V?$shared_ptr@VRawImageData@@@2@@std@@@2@$0A@@std@@@std@@IAEPAU?$_Tree_node@U?$pair@$$CBV?$basic_string@DU?$char_traits@D@std@@V?$allocator@D@2@@std@@V?$shared_ptr@VRawImageData@@@2@@std@@PAX@1@PAU21@AAU?$pair@$$CBV?$basic_string@DU?$char_traits@D@std@@V?$allocator@D@2@@std@@V?$shared_ptr@VRawImageData@@@2@@1@@Z 004075c0 f i DraggingDemo.obj
 0001:000065e0       ??$_Buy_if_not_node@AAU?$pair@$$CBV?$basic_string@DU?$char_traits@D@std@@V?$allocator@D@2@@std@@V?$weak_ptr@VRawImageData@@@2@@std@@@?$_Tree@V?$_Tmap_traits@V?$basic_string@DU?$char_traits@D@std@@V?$allocator@D@2@@std@@V?$weak_ptr@VRawImageData@@@2@U?$less@V?$basic_string@DU?$char_traits@D@std@@V?$allocator@D@2@@std@@@2@V?$allocator@U?$pair@$$CBV?$basic_string@DU?$char_traits@D@std@@V?$allocator@D@2@@std@@V?$weak_ptr@VRawImageData@@@2@@std@@@2@$0A@@std@@@std@@IAEPAU?$_Tree_node@U?$pair@$$CBV?$basic_string@DU?$char_traits@D@std@@V?$allocator@D@2@@std@@V?$weak_ptr@VRawImageData@@@2@@std@@PAX@1@PAU21@AAU?$pair@$$CBV?$basic_string@DU?$char_traits@D@std@@V?$allocator@D@2@@std@@V?$weak_ptr@VRawImageData@@@2@@1@@Z 004075e0 f i DraggingDemo.obj
 0001:00006600       ??$_Buynode@U?$pair@V?$basic_string@DU?$char_traits@D@std@@V?$allocator@D@2@@std@@V?$shared_ptr@VRawImageData@@@2@@std@@@?$_Tree_comp_alloc@V?$_Tmap_traits@V?$basic_string@DU?$char_traits@D@std@@V?$allocator@D@2@@std@@V?$shared_ptr@VRawImageData@@@2@U?$less@V?$basic_string@DU?$char_traits@D@std@@V?$allocator@D@2@@std@@@2@V?$allocator@U?$pair@$$CBV?$basic_string@DU?$char_traits@D@std@@V?$allocator@D@2@@std@@V?$shared_ptr@VRawImageData@@@2@@std@@@2@$0A@@std@@@std@@QAEPAU?$_Tree_node@U?$pair@$$CBV?$basic_string@DU?$char_traits@D@std@@V?$allocator@D@2@@std@@V?$shared_ptr@VRawImageData@@@2@@std@@PAX@1@$$QAU?$pair@V?$basic_string@DU?$char_traits@D@std@@V?$allocator@D@2@@std@@V?$shared_ptr@VRawImageData@@@2@@1@@Z 00407600 f i DraggingDemo.obj
 0001:00006700       ??$_Buynode@U?$pair@V?$basic_string@DU?$char_traits@D@std@@V?$allocator@D@2@@std@@V?$weak_ptr@VRawImageData@@@2@@std@@@?$_Tree_comp_alloc@V?$_Tmap_traits@V?$basic_string@DU?$char_traits@D@std@@V?$allocator@D@2@@std@@V?$weak_ptr@VRawImageData@@@2@U?$less@V?$basic_string@DU?$char_traits@D@std@@V?$allocator@D@2@@std@@@2@V?$allocator@U?$pair@$$CBV?$basic_string@DU?$char_traits@D@std@@V?$allocator@D@2@@std@@V?$weak_ptr@VRawImageData@@@2@@std@@@2@$0A@@std@@@std@@QAEPAU?$_Tree_node@U?$pair@$$CBV?$basic_string@DU?$char_traits@D@std@@V?$allocator@D@2@@std@@V?$weak_ptr@VRawImageData@@@2@@std@@PAX@1@$$QAU?$pair@V?$basic_string@DU?$char_traits@D@std@@V?$allocator@D@2@@std@@V?$weak_ptr@VRawImageData@@@2@@1@@Z 00407700 f i DraggingDemo.obj
 0001:00006800       ??$_Construct_from_weak@VRawImageData@@@?$_Ptr_base@VRawImageData@@@std@@IAE_NABV?$weak_ptr@VRawImageData@@@1@@Z 00407800 f i DraggingDemo.obj
 0001:00006860       ??$_Convert_size@I@std@@YAII@Z 00407860 f i DraggingDemo.obj
 0001:00006870       ??$_Copy_construct_from@VRawImageData@@@?$_Ptr_base@VRawImageData@@@std@@IAEXABV?$shared_ptr@VRawImageData@@@1@@Z 00407870 f i DraggingDemo.obj
 0001:000068c0       ??$_Copy_memmove@PAPAVDisplayableObject@@PAPAV1@@std@@YAPAPAVDisplayableObject@@PAPAV1@00@Z 004078c0 f i DraggingDemo.obj
 0001:00006910       ??$_Deallocate@$07$0A@@std@@YAXPAXI@Z 00407910 f i DraggingDemo.obj
 0001:00006950       ??$_Deallocate_plain@V?$allocator@U_Container_proxy@std@@@std@@$0A@@std@@YAXAAV?$allocator@U_Container_proxy@std@@@0@QAU_Container_proxy@0@@Z 00407950 f i DraggingDemo.obj
 0001:00006970       ??$_Debug_lt_pred@AAU?$less@V?$basic_string@DU?$char_traits@D@std@@V?$allocator@D@2@@std@@@std@@ABV?$basic_string@DU?$char_traits@D@std@@V?$allocator@D@2@@2@ABV32@@std@@YA_NAAU?$less@V?$basic_string@DU?$char_traits@D@std@@V?$allocator@D@2@@std@@@0@ABV?$basic_string@DU?$char_traits@D@std@@V?$allocator@D@2@@0@1@Z 00407970 f i DraggingDemo.obj
 0001:00006a20       ??$_Debug_lt_pred@ABU?$less@V?$basic_string@DU?$char_traits@D@std@@V?$allocator@D@2@@std@@@std@@ABV?$basic_string@DU?$char_traits@D@std@@V?$allocator@D@2@@2@ABV32@@std@@YA_NABU?$less@V?$basic_string@DU?$char_traits@D@std@@V?$allocator@D@2@@std@@@0@ABV?$basic_string@DU?$char_traits@D@std@@V?$allocator@D@2@@0@1@Z 00407a20 f i DraggingDemo.obj
 0001:00006ad0       ??$_Destroy_range1@V?$allocator@PAVDisplayableObject@@@std@@@std@@YAXPAPAVDisplayableObject@@0AAV?$allocator@PAVDisplayableObject@@@0@U?$integral_constant@_N$00@0@@Z 00407ad0 f i DraggingDemo.obj
 0001:00006ae0       ??$_Destroy_range@V?$allocator@PAVDisplayableObject@@@std@@@std@@YAXPAPAVDisplayableObject@@0AAV?$allocator@PAVDisplayableObject@@@0@@Z 00407ae0 f i DraggingDemo.obj
 0001:00006b10       ??$_Enable_shared_from_this1@VRawImageData@@V1@@std@@YAXABV?$shared_ptr@VRawImageData@@@0@PAVRawImageData@@U?$integral_constant@_N$0A@@0@@Z 00407b10 f i DraggingDemo.obj
 0001:00006b20       ??$_Enable_shared_from_this@VRawImageData@@V1@@std@@YAXABV?$shared_ptr@VRawImageData@@@0@PAVRawImageData@@@Z 00407b20 f i DraggingDemo.obj
 0001:00006b50       ??$_Freenode0@V?$allocator@U?$_Tree_node@U?$pair@$$CBV?$basic_string@DU?$char_traits@D@std@@V?$allocator@D@2@@std@@V?$shared_ptr@VRawImageData@@@2@@std@@PAX@std@@@std@@@?$_Tree_node@U?$pair@$$CBV?$basic_string@DU?$char_traits@D@std@@V?$allocator@D@2@@std@@V?$shared_ptr@VRawImageData@@@2@@std@@PAX@std@@SAXAAV?$allocator@U?$_Tree_node@U?$pair@$$CBV?$basic_string@DU?$char_traits@D@std@@V?$allocator@D@2@@std@@V?$shared_ptr@VRawImageData@@@2@@std@@PAX@std@@@1@PAU01@@Z 00407b50 f i DraggingDemo.obj
 0001:00006c10       ??$_Freenode0@V?$allocator@U?$_Tree_node@U?$pair@$$CBV?$basic_string@DU?$char_traits@D@std@@V?$allocator@D@2@@std@@V?$weak_ptr@VRawImageData@@@2@@std@@PAX@std@@@std@@@?$_Tree_node@U?$pair@$$CBV?$basic_string@DU?$char_traits@D@std@@V?$allocator@D@2@@std@@V?$weak_ptr@VRawImageData@@@2@@std@@PAX@std@@SAXAAV?$allocator@U?$_Tree_node@U?$pair@$$CBV?$basic_string@DU?$char_traits@D@std@@V?$allocator@D@2@@std@@V?$weak_ptr@VRawImageData@@@2@@std@@PAX@std@@@1@PAU01@@Z 00407c10 f i DraggingDemo.obj
 0001:00006cd0       ??$_Get_size_of_n@$00@std@@YAII@Z 00407cd0 f i DraggingDemo.obj
 0001:00006ce0       ??$_Get_size_of_n@$03@std@@YAII@Z 00407ce0 f i DraggingDemo.obj
 0001:00006d20       ??$_Get_size_of_n@$07@std@@YAII@Z 00407d20 f i DraggingDemo.obj
 0001:00006d60       ??$_Get_size_of_n@$0DE@@std@@YAII@Z 00407d60 f i DraggingDemo.obj
 0001:00006da0       ??$_Get_unwrapped@PAVDisplayableObject@@@std@@YAPAPAVDisplayableObject@@QAPAV1@@Z 00407da0 f i DraggingDemo.obj
 0001:00006db0       ??$_Get_unwrapped_n@PAVDisplayableObject@@H$0A@@std@@YAPAPAVDisplayableObject@@QAPAV1@H@Z 00407db0 f i DraggingDemo.obj
 0001:00006dc0       ??$_Idl_distance1@PAPAVDisplayableObject@@PAPAV1@@std@@YAHABQAPAVDisplayableObject@@0Urandom_access_iterator_tag@0@@Z 00407dc0 f i DraggingDemo.obj
 0001:00006de0       ??$_Idl_distance@PAPAVDisplayableObject@@PAPAV1@@std@@YA@ABQAPAVDisplayableObject@@0@Z 00407de0 f i DraggingDemo.obj
 0001:00006e10       ??$_Insert_at@AAU?$pair@$$CBV?$basic_string@DU?$char_traits@D@std@@V?$allocator@D@2@@std@@V?$shared_ptr@VRawImageData@@@2@@std@@PAU?$_Tree_node@U?$pair@$$CBV?$basic_string@DU?$char_traits@D@std@@V?$allocator@D@2@@std@@V?$shared_ptr@VRawImageData@@@2@@std@@PAX@2@@?$_Tree@V?$_Tmap_traits@V?$basic_string@DU?$char_traits@D@std@@V?$allocator@D@2@@std@@V?$shared_ptr@VRawImageData@@@2@U?$less@V?$basic_string@DU?$char_traits@D@std@@V?$allocator@D@2@@std@@@2@V?$allocator@U?$pair@$$CBV?$basic_string@DU?$char_traits@D@std@@V?$allocator@D@2@@std@@V?$shared_ptr@VRawImageData@@@2@@std@@@2@$0A@@std@@@std@@IAE?AV?$_Tree_iterator@V?$_Tree_val@U?$_Tree_simple_types@U?$pair@$$CBV?$basic_string@DU?$char_traits@D@std@@V?$allocator@D@2@@std@@V?$shared_ptr@VRawImageData@@@2@@std@@@std@@@std@@@1@_NPAU?$_Tree_node@U?$pair@$$CBV?$basic_string@DU?$char_traits@D@std@@V?$allocator@D@2@@std@@V?$shared_ptr@VRawImageData@@@2@@std@@PAX@1@AAU?$pair@$$CBV?$basic_string@DU?$char_traits@D@std@@V?$allocator@D@2@@std@@V?$shared_ptr@VRawImageData@@@2@@1@1@Z 00407e10 f i DraggingDemo.obj
 0001:00007150       ??$_Insert_at@AAU?$pair@$$CBV?$basic_string@DU?$char_traits@D@std@@V?$allocator@D@2@@std@@V?$weak_ptr@VRawImageData@@@2@@std@@PAU?$_Tree_node@U?$pair@$$CBV?$basic_string@DU?$char_traits@D@std@@V?$allocator@D@2@@std@@V?$weak_ptr@VRawImageData@@@2@@std@@PAX@2@@?$_Tree@V?$_Tmap_traits@V?$basic_string@DU?$char_traits@D@std@@V?$allocator@D@2@@std@@V?$weak_ptr@VRawImageData@@@2@U?$less@V?$basic_string@DU?$char_traits@D@std@@V?$allocator@D@2@@std@@@2@V?$allocator@U?$pair@$$CBV?$basic_string@DU?$char_traits@D@std@@V?$allocator@D@2@@std@@V?$weak_ptr@VRawImageData@@@2@@std@@@2@$0A@@std@@@std@@IAE?AV?$_Tree_iterator@V?$_Tree_val@U?$_Tree_simple_types@U?$pair@$$CBV?$basic_string@DU?$char_traits@D@std@@V?$allocator@D@2@@std@@V?$weak_ptr@VRawImageData@@@2@@std@@@std@@@std@@@1@_NPAU?$_Tree_node@U?$pair@$$CBV?$basic_string@DU?$char_traits@D@std@@V?$allocator@D@2@@std@@V?$weak_ptr@VRawImageData@@@2@@std@@PAX@1@AAU?$pair@$$CBV?$basic_string@DU?$char_traits@D@std@@V?$allocator@D@2@@std@@V?$weak_ptr@VRawImageData@@@2@@1@1@Z 00408150 f i DraggingDemo.obj
 0001:00007490       ??$_Insert_nohint@AAU?$pair@$$CBV?$basic_string@DU?$char_traits@D@std@@V?$allocator@D@2@@std@@V?$shared_ptr@VRawImageData@@@2@@std@@PAU?$_Tree_node@U?$pair@$$CBV?$basic_string@DU?$char_traits@D@std@@V?$allocator@D@2@@std@@V?$shared_ptr@VRawImageData@@@2@@std@@PAX@2@@?$_Tree@V?$_Tmap_traits@V?$basic_string@DU?$char_traits@D@std@@V?$allocator@D@2@@std@@V?$shared_ptr@VRawImageData@@@2@U?$less@V?$basic_string@DU?$char_traits@D@std@@V?$allocator@D@2@@std@@@2@V?$allocator@U?$pair@$$CBV?$basic_string@DU?$char_traits@D@std@@V?$allocator@D@2@@std@@V?$shared_ptr@VRawImageData@@@2@@std@@@2@$0A@@std@@@std@@IAE?AU?$pair@V?$_Tree_iterator@V?$_Tree_val@U?$_Tree_simple_types@U?$pair@$$CBV?$basic_string@DU?$char_traits@D@std@@V?$allocator@D@2@@std@@V?$shared_ptr@VRawImageData@@@2@@std@@@std@@@std@@@std@@_N@1@_NAAU?$pair@$$CBV?$basic_string@DU?$char_traits@D@std@@V?$allocator@D@2@@std@@V?$shared_ptr@VRawImageData@@@2@@1@PAU?$_Tree_node@U?$pair@$$CBV?$basic_string@DU?$char_traits@D@std@@V?$allocator@D@2@@std@@V?$shared_ptr@VRawImageData@@@2@@std@@PAX@1@@Z 00408490 f i DraggingDemo.obj
 0001:00007940       ??$_Insert_nohint@AAU?$pair@$$CBV?$basic_string@DU?$char_traits@D@std@@V?$allocator@D@2@@std@@V?$weak_ptr@VRawImageData@@@2@@std@@PAU?$_Tree_node@U?$pair@$$CBV?$basic_string@DU?$char_traits@D@std@@V?$allocator@D@2@@std@@V?$weak_ptr@VRawImageData@@@2@@std@@PAX@2@@?$_Tree@V?$_Tmap_traits@V?$basic_string@DU?$char_traits@D@std@@V?$allocator@D@2@@std@@V?$weak_ptr@VRawImageData@@@2@U?$less@V?$basic_string@DU?$char_traits@D@std@@V?$allocator@D@2@@std@@@2@V?$allocator@U?$pair@$$CBV?$basic_string@DU?$char_traits@D@std@@V?$allocator@D@2@@std@@V?$weak_ptr@VRawImageData@@@2@@std@@@2@$0A@@std@@@std@@IAE?AU?$pair@V?$_Tree_iterator@V?$_Tree_val@U?$_Tree_simple_types@U?$pair@$$CBV?$basic_string@DU?$char_traits@D@std@@V?$allocator@D@2@@std@@V?$weak_ptr@VRawImageData@@@2@@std@@@std@@@std@@@std@@_N@1@_NAAU?$pair@$$CBV?$basic_string@DU?$char_traits@D@std@@V?$allocator@D@2@@std@@V?$weak_ptr@VRawImageData@@@2@@1@PAU?$_Tree_node@U?$pair@$$CBV?$basic_string@DU?$char_traits@D@std@@V?$allocator@D@2@@std@@V?$weak_ptr@VRawImageData@@@2@@std@@PAX@1@@Z 00408940 f i DraggingDemo.obj
 0001:00007df0       ??$_Insert_string@DU?$char_traits@D@std@@I@std@@YAAAV?$basic_ostream@DU?$char_traits@D@std@@@0@AAV10@QBDI@Z 00408df0 f i DraggingDemo.obj
 0001:00008180       ??$_Kfn@$$CBV?$basic_string@DU?$char_traits@D@std@@V?$allocator@D@2@@std@@V?$shared_ptr@VRawImageData@@@2@@?$_Tmap_traits@V?$basic_string@DU?$char_traits@D@std@@V?$allocator@D@2@@std@@V?$shared_ptr@VRawImageData@@@2@U?$less@V?$basic_string@DU?$char_traits@D@std@@V?$allocator@D@2@@std@@@2@V?$allocator@U?$pair@$$CBV?$basic_string@DU?$char_traits@D@std@@V?$allocator@D@2@@std@@V?$shared_ptr@VRawImageData@@@2@@std@@@2@$0A@@std@@SAABV?$basic_string@DU?$char_traits@D@std@@V?$allocator@D@2@@1@ABU?$pair@$$CBV?$basic_string@DU?$char_traits@D@std@@V?$allocator@D@2@@std@@V?$shared_ptr@VRawImageData@@@2@@1@@Z 00409180 f i DraggingDemo.obj
 0001:00008190       ??$_Kfn@$$CBV?$basic_string@DU?$char_traits@D@std@@V?$allocator@D@2@@std@@V?$weak_ptr@VRawImageData@@@2@@?$_Tmap_traits@V?$basic_string@DU?$char_traits@D@std@@V?$allocator@D@2@@std@@V?$weak_ptr@VRawImageData@@@2@U?$less@V?$basic_string@DU?$char_traits@D@std@@V?$allocator@D@2@@std@@@2@V?$allocator@U?$pair@$$CBV?$basic_string@DU?$char_traits@D@std@@V?$allocator@D@2@@std@@V?$weak_ptr@VRawImageData@@@2@@std@@@2@$0A@@std@@SAABV?$basic_string@DU?$char_traits@D@std@@V?$allocator@D@2@@1@ABU?$pair@$$CBV?$basic_string@DU?$char_traits@D@std@@V?$allocator@D@2@@std@@V?$weak_ptr@VRawImageData@@@2@@1@@Z 00409190 f i DraggingDemo.obj
 0001:000081a0       ??$_Lbound@V?$basic_string@DU?$char_traits@D@std@@V?$allocator@D@2@@std@@@?$_Tree@V?$_Tmap_traits@V?$basic_string@DU?$char_traits@D@std@@V?$allocator@D@2@@std@@V?$weak_ptr@VRawImageData@@@2@U?$less@V?$basic_string@DU?$char_traits@D@std@@V?$allocator@D@2@@std@@@2@V?$allocator@U?$pair@$$CBV?$basic_string@DU?$char_traits@D@std@@V?$allocator@D@2@@std@@V?$weak_ptr@VRawImageData@@@2@@std@@@2@$0A@@std@@@std@@IBEPAU?$_Tree_node@U?$pair@$$CBV?$basic_string@DU?$char_traits@D@std@@V?$allocator@D@2@@std@@V?$weak_ptr@VRawImageData@@@2@@std@@PAX@1@ABV?$basic_string@DU?$char_traits@D@std@@V?$allocator@D@2@@1@@Z 004091a0 f i DraggingDemo.obj
 0001:00008230       ??$_Max_value@I@std@@YAABIABI0@Z 00409230 f i DraggingDemo.obj
 0001:00008270       ??$_Min_value@I@std@@YAABIABI0@Z 00409270 f i DraggingDemo.obj
 0001:000082b0       ??$_Move_construct_from@VRawImageData@@@?$_Ptr_base@VRawImageData@@@std@@IAEX$$QAV01@@Z 004092b0 f i DraggingDemo.obj
 0001:00008300       ??$_Ptr_move_cat@PAVDisplayableObject@@PAV1@@std@@YA?AU_Really_trivial_ptr_iterator_tag@0@ABQAPAVDisplayableObject@@0@Z 00409300 f i DraggingDemo.obj
 0001:00008310       ??$_Reallocate_for@V<lambda_9366063389c5f42a00a5088cf24e69de>@@PBD@?$basic_string@DU?$char_traits@D@std@@V?$allocator@D@2@@std@@QAEAAV01@IV<lambda_9366063389c5f42a00a5088cf24e69de>@@PBD@Z 00409310 f i DraggingDemo.obj
 0001:00008430       ??$_Resize@V<lambda_2afd52570c452b238925c6f475a76105>@@@?$vector@PAVDisplayableObject@@V?$allocator@PAVDisplayableObject@@@std@@@std@@AAEXIV<lambda_2afd52570c452b238925c6f475a76105>@@@Z 00409430 f i DraggingDemo.obj
 0001:000086a0       ??$_Seek_wrapped@PAVDisplayableObject@@@std@@YAXAAPAPAVDisplayableObject@@QAPAV1@@Z 004096a0 f i DraggingDemo.obj
 0001:000086b0       ??$_Set_ptr_rep_and_enable_shared@VRawImageData@@@?$shared_ptr@VRawImageData@@@std@@AAEXPAVRawImageData@@PAV_Ref_count_base@1@@Z 004096b0 f i DraggingDemo.obj
 0001:000086f0       ??$_Setp@VRawImageData@@@?$shared_ptr@VRawImageData@@@std@@AAEXPAVRawImageData@@U?$integral_constant@_N$0A@@1@@Z 004096f0 f i DraggingDemo.obj
 0001:00008820       ??$_Traits_compare@U?$char_traits@D@std@@@std@@YAHQBDI0I@Z 00409820 f i DraggingDemo.obj
 0001:00008890       ??$_Unfancy@D@std@@YAPADPAD@Z 00409890 f i DraggingDemo.obj
 0001:000088a0       ??$_Unfancy@U_Container_proxy@std@@@std@@YAPAU_Container_proxy@0@PAU10@@Z 004098a0 f i DraggingDemo.obj
 0001:000088b0       ??$_Uninitialized_move@PAPAVDisplayableObject@@PAPAV1@V?$allocator@PAVDisplayableObject@@@std@@@std@@YAPAPAVDisplayableObject@@QAPAV1@0PAPAV1@AAV?$allocator@PAVDisplayableObject@@@0@@Z 004098b0 f i DraggingDemo.obj
 0001:00008970       ??$_Uninitialized_move_al_unchecked@PAVDisplayableObject@@PAV1@V?$allocator@PAVDisplayableObject@@@std@@@std@@YAPAPAVDisplayableObject@@QAPAV1@00AAV?$allocator@PAVDisplayableObject@@@0@U_Really_trivial_ptr_iterator_tag@0@U?$integral_constant@_N$00@0@@Z 00409970 f i DraggingDemo.obj
 0001:00008990       ??$_Uninitialized_value_construct_n1@PAPAVDisplayableObject@@IV?$allocator@PAVDisplayableObject@@@std@@@std@@YAPAPAVDisplayableObject@@PAPAV1@IAAV?$allocator@PAVDisplayableObject@@@0@U?$integral_constant@_N$00@0@@Z 00409990 f i DraggingDemo.obj
 0001:000089c0       ??$_Uninitialized_value_construct_n@PAPAVDisplayableObject@@IV?$allocator@PAVDisplayableObject@@@std@@@std@@YAPAPAVDisplayableObject@@PAPAV1@IAAV?$allocator@PAVDisplayableObject@@@0@@Z 004099c0 f i DraggingDemo.obj
 0001:000089f0       ??$_Weakly_construct_from@VRawImageData@@@?$_Ptr_base@VRawImageData@@@std@@IAEXABV01@@Z 004099f0 f i DraggingDemo.obj
 0001:00008a40       ??$_Zero_range@PAPAVDisplayableObject@@@std@@YAPAPAVDisplayableObject@@QAPAV1@0@Z 00409a40 f i DraggingDemo.obj
 0001:00008a80       ??$addressof@PAD@std@@YAPAPADAAPAD@Z 00409a80 f i DraggingDemo.obj
 0001:00008a90       ??$addressof@PAU?$_Tree_node@U?$pair@$$CBV?$basic_string@DU?$char_traits@D@std@@V?$allocator@D@2@@std@@V?$shared_ptr@VRawImageData@@@2@@std@@PAX@std@@@std@@YAPAPAU?$_Tree_node@U?$pair@$$CBV?$basic_string@DU?$char_traits@D@std@@V?$allocator@D@2@@std@@V?$shared_ptr@VRawImageData@@@2@@std@@PAX@0@AAPAU10@@Z 00409a90 f i DraggingDemo.obj
 0001:00008aa0       ??$addressof@PAU?$_Tree_node@U?$pair@$$CBV?$basic_string@DU?$char_traits@D@std@@V?$allocator@D@2@@std@@V?$weak_ptr@VRawImageData@@@2@@std@@PAX@std@@@std@@YAPAPAU?$_Tree_node@U?$pair@$$CBV?$basic_string@DU?$char_traits@D@std@@V?$allocator@D@2@@std@@V?$weak_ptr@VRawImageData@@@2@@std@@PAX@0@AAPAU10@@Z 00409aa0 f i DraggingDemo.obj
 0001:00008ab0       ??$addressof@U?$pair@$$CBV?$basic_string@DU?$char_traits@D@std@@V?$allocator@D@2@@std@@V?$shared_ptr@VRawImageData@@@2@@std@@@std@@YAPAU?$pair@$$CBV?$basic_string@DU?$char_traits@D@std@@V?$allocator@D@2@@std@@V?$shared_ptr@VRawImageData@@@2@@0@AAU10@@Z 00409ab0 f i DraggingDemo.obj
 0001:00008ac0       ??$addressof@U?$pair@$$CBV?$basic_string@DU?$char_traits@D@std@@V?$allocator@D@2@@std@@V?$weak_ptr@VRawImageData@@@2@@std@@@std@@YAPAU?$pair@$$CBV?$basic_string@DU?$char_traits@D@std@@V?$allocator@D@2@@std@@V?$weak_ptr@VRawImageData@@@2@@0@AAU10@@Z 00409ac0 f i DraggingDemo.obj
 0001:00008ad0       ??$addressof@V?$_String_val@U?$_Simple_types@D@std@@@std@@@std@@YAPAV?$_String_val@U?$_Simple_types@D@std@@@0@AAV10@@Z 00409ad0 f i DraggingDemo.obj
 0001:00008ae0       ??$addressof@V?$_Tree_val@U?$_Tree_simple_types@U?$pair@$$CBV?$basic_string@DU?$char_traits@D@std@@V?$allocator@D@2@@std@@V?$shared_ptr@VRawImageData@@@2@@std@@@std@@@std@@@std@@YAPAV?$_Tree_val@U?$_Tree_simple_types@U?$pair@$$CBV?$basic_string@DU?$char_traits@D@std@@V?$allocator@D@2@@std@@V?$shared_ptr@VRawImageData@@@2@@std@@@std@@@0@AAV10@@Z 00409ae0 f i DraggingDemo.obj
 0001:00008af0       ??$addressof@V?$_Tree_val@U?$_Tree_simple_types@U?$pair@$$CBV?$basic_string@DU?$char_traits@D@std@@V?$allocator@D@2@@std@@V?$weak_ptr@VRawImageData@@@2@@std@@@std@@@std@@@std@@YAPAV?$_Tree_val@U?$_Tree_simple_types@U?$pair@$$CBV?$basic_string@DU?$char_traits@D@std@@V?$allocator@D@2@@std@@V?$weak_ptr@VRawImageData@@@2@@std@@@std@@@0@AAV10@@Z 00409af0 f i DraggingDemo.obj
 0001:00008b00       ??$construct@PADABQAD@?$_Default_allocator_traits@V?$allocator@D@std@@@std@@SAXAAV?$allocator@D@1@QAPADABQAD@Z 00409b00 f i DraggingDemo.obj
 0001:00008b40       ??$construct@PAU?$_Tree_node@U?$pair@$$CBV?$basic_string@DU?$char_traits@D@std@@V?$allocator@D@2@@std@@V?$shared_ptr@VRawImageData@@@2@@std@@PAX@std@@AAPAU12@@?$_Default_allocator_traits@V?$allocator@U?$_Tree_node@U?$pair@$$CBV?$basic_string@DU?$char_traits@D@std@@V?$allocator@D@2@@std@@V?$shared_ptr@VRawImageData@@@2@@std@@PAX@std@@@std@@@std@@SAXAAV?$allocator@U?$_Tree_node@U?$pair@$$CBV?$basic_string@DU?$char_traits@D@std@@V?$allocator@D@2@@std@@V?$shared_ptr@VRawImageData@@@2@@std@@PAX@std@@@1@QAPAU?$_Tree_node@U?$pair@$$CBV?$basic_string@DU?$char_traits@D@std@@V?$allocator@D@2@@std@@V?$shared_ptr@VRawImageData@@@2@@std@@PAX@1@AAPAU31@@Z 00409b40 f i DraggingDemo.obj
 0001:00008b80       ??$construct@PAU?$_Tree_node@U?$pair@$$CBV?$basic_string@DU?$char_traits@D@std@@V?$allocator@D@2@@std@@V?$weak_ptr@VRawImageData@@@2@@std@@PAX@std@@AAPAU12@@?$_Default_allocator_traits@V?$allocator@U?$_Tree_node@U?$pair@$$CBV?$basic_string@DU?$char_traits@D@std@@V?$allocator@D@2@@std@@V?$weak_ptr@VRawImageData@@@2@@std@@PAX@std@@@std@@@std@@SAXAAV?$allocator@U?$_Tree_node@U?$pair@$$CBV?$basic_string@DU?$char_traits@D@std@@V?$allocator@D@2@@std@@V?$weak_ptr@VRawImageData@@@2@@std@@PAX@std@@@1@QAPAU?$_Tree_node@U?$pair@$$CBV?$basic_string@DU?$char_traits@D@std@@V?$allocator@D@2@@std@@V?$weak_ptr@VRawImageData@@@2@@std@@PAX@1@AAPAU31@@Z 00409b80 f i DraggingDemo.obj
 0001:00008bc0       ??$construct@U?$pair@$$CBV?$basic_string@DU?$char_traits@D@std@@V?$allocator@D@2@@std@@V?$shared_ptr@VRawImageData@@@2@@std@@U?$pair@V?$basic_string@DU?$char_traits@D@std@@V?$allocator@D@2@@std@@V?$shared_ptr@VRawImageData@@@2@@2@@?$_Default_allocator_traits@V?$allocator@U?$_Tree_node@U?$pair@$$CBV?$basic_string@DU?$char_traits@D@std@@V?$allocator@D@2@@std@@V?$shared_ptr@VRawImageData@@@2@@std@@PAX@std@@@std@@@std@@SAXAAV?$allocator@U?$_Tree_node@U?$pair@$$CBV?$basic_string@DU?$char_traits@D@std@@V?$allocator@D@2@@std@@V?$shared_ptr@VRawImageData@@@2@@std@@PAX@std@@@1@QAU?$pair@$$CBV?$basic_string@DU?$char_traits@D@std@@V?$allocator@D@2@@std@@V?$shared_ptr@VRawImageData@@@2@@1@$$QAU?$pair@V?$basic_string@DU?$char_traits@D@std@@V?$allocator@D@2@@std@@V?$shared_ptr@VRawImageData@@@2@@1@@Z 00409bc0 f i DraggingDemo.obj
 0001:00008c00       ??$construct@U?$pair@$$CBV?$basic_string@DU?$char_traits@D@std@@V?$allocator@D@2@@std@@V?$weak_ptr@VRawImageData@@@2@@std@@U?$pair@V?$basic_string@DU?$char_traits@D@std@@V?$allocator@D@2@@std@@V?$weak_ptr@VRawImageData@@@2@@2@@?$_Default_allocator_traits@V?$allocator@U?$_Tree_node@U?$pair@$$CBV?$basic_string@DU?$char_traits@D@std@@V?$allocator@D@2@@std@@V?$weak_ptr@VRawImageData@@@2@@std@@PAX@std@@@std@@@std@@SAXAAV?$allocator@U?$_Tree_node@U?$pair@$$CBV?$basic_string@DU?$char_traits@D@std@@V?$allocator@D@2@@std@@V?$weak_ptr@VRawImageData@@@2@@std@@PAX@std@@@1@QAU?$pair@$$CBV?$basic_string@DU?$char_traits@D@std@@V?$allocator@D@2@@std@@V?$weak_ptr@VRawImageData@@@2@@1@$$QAU?$pair@V?$basic_string@DU?$char_traits@D@std@@V?$allocator@D@2@@std@@V?$weak_ptr@VRawImageData@@@2@@1@@Z 00409c00 f i DraggingDemo.obj
 0001:00008c40       ??$construct@U_Container_proxy@std@@U12@@?$_Default_allocator_traits@V?$allocator@U_Container_proxy@std@@@std@@@std@@SAXAAV?$allocator@U_Container_proxy@std@@@1@QAU_Container_proxy@1@$$QAU31@@Z 00409c40 f i DraggingDemo.obj
 0001:00008c80       ??$destroy@PAD@?$_Default_allocator_traits@V?$allocator@D@std@@@std@@SAXAAV?$allocator@D@1@QAPAD@Z 00409c80 f i DraggingDemo.obj
 0001:00008c90       ??$destroy@PAU?$_Tree_node@U?$pair@$$CBV?$basic_string@DU?$char_traits@D@std@@V?$allocator@D@2@@std@@V?$shared_ptr@VRawImageData@@@2@@std@@PAX@std@@@?$_Default_allocator_traits@V?$allocator@U?$_Tree_node@U?$pair@$$CBV?$basic_string@DU?$char_traits@D@std@@V?$allocator@D@2@@std@@V?$shared_ptr@VRawImageData@@@2@@std@@PAX@std@@@std@@@std@@SAXAAV?$allocator@U?$_Tree_node@U?$pair@$$CBV?$basic_string@DU?$char_traits@D@std@@V?$allocator@D@2@@std@@V?$shared_ptr@VRawImageData@@@2@@std@@PAX@std@@@1@QAPAU?$_Tree_node@U?$pair@$$CBV?$basic_string@DU?$char_traits@D@std@@V?$allocator@D@2@@std@@V?$shared_ptr@VRawImageData@@@2@@std@@PAX@1@@Z 00409c90 f i DraggingDemo.obj
 0001:00008ca0       ??$destroy@PAU?$_Tree_node@U?$pair@$$CBV?$basic_string@DU?$char_traits@D@std@@V?$allocator@D@2@@std@@V?$weak_ptr@VRawImageData@@@2@@std@@PAX@std@@@?$_Default_allocator_traits@V?$allocator@U?$_Tree_node@U?$pair@$$CBV?$basic_string@DU?$char_traits@D@std@@V?$allocator@D@2@@std@@V?$weak_ptr@VRawImageData@@@2@@std@@PAX@std@@@std@@@std@@SAXAAV?$allocator@U?$_Tree_node@U?$pair@$$CBV?$basic_string@DU?$char_traits@D@std@@V?$allocator@D@2@@std@@V?$weak_ptr@VRawImageData@@@2@@std@@PAX@std@@@1@QAPAU?$_Tree_node@U?$pair@$$CBV?$basic_string@DU?$char_traits@D@std@@V?$allocator@D@2@@std@@V?$weak_ptr@VRawImageData@@@2@@std@@PAX@1@@Z 00409ca0 f i DraggingDemo.obj
 0001:00008cb0       ??$destroy@U?$pair@$$CBV?$basic_string@DU?$char_traits@D@std@@V?$allocator@D@2@@std@@V?$shared_ptr@VRawImageData@@@2@@std@@@?$_Default_allocator_traits@V?$allocator@U?$_Tree_node@U?$pair@$$CBV?$basic_string@DU?$char_traits@D@std@@V?$allocator@D@2@@std@@V?$shared_ptr@VRawImageData@@@2@@std@@PAX@std@@@std@@@std@@SAXAAV?$allocator@U?$_Tree_node@U?$pair@$$CBV?$basic_string@DU?$char_traits@D@std@@V?$allocator@D@2@@std@@V?$shared_ptr@VRawImageData@@@2@@std@@PAX@std@@@1@QAU?$pair@$$CBV?$basic_string@DU?$char_traits@D@std@@V?$allocator@D@2@@std@@V?$shared_ptr@VRawImageData@@@2@@1@@Z 00409cb0 f i DraggingDemo.obj
 0001:00008cd0       ??$destroy@U?$pair@$$CBV?$basic_string@DU?$char_traits@D@std@@V?$allocator@D@2@@std@@V?$weak_ptr@VRawImageData@@@2@@std@@@?$_Default_allocator_traits@V?$allocator@U?$_Tree_node@U?$pair@$$CBV?$basic_string@DU?$char_traits@D@std@@V?$allocator@D@2@@std@@V?$weak_ptr@VRawImageData@@@2@@std@@PAX@std@@@std@@@std@@SAXAAV?$allocator@U?$_Tree_node@U?$pair@$$CBV?$basic_string@DU?$char_traits@D@std@@V?$allocator@D@2@@std@@V?$weak_ptr@VRawImageData@@@2@@std@@PAX@std@@@1@QAU?$pair@$$CBV?$basic_string@DU?$char_traits@D@std@@V?$allocator@D@2@@std@@V?$weak_ptr@VRawImageData@@@2@@1@@Z 00409cd0 f i DraggingDemo.obj
 0001:00008cf0       ??$destroy@U_Container_proxy@std@@@?$_Default_allocator_traits@V?$allocator@U_Container_proxy@std@@@std@@@std@@SAXAAV?$allocator@U_Container_proxy@std@@@1@QAU_Container_proxy@1@@Z 00409cf0 f i DraggingDemo.obj
 0001:00008d00       ??$emplace@U?$pair@V?$basic_string@DU?$char_traits@D@std@@V?$allocator@D@2@@std@@V?$shared_ptr@VRawImageData@@@2@@std@@@?$_Tree@V?$_Tmap_traits@V?$basic_string@DU?$char_traits@D@std@@V?$allocator@D@2@@std@@V?$shared_ptr@VRawImageData@@@2@U?$less@V?$basic_string@DU?$char_traits@D@std@@V?$allocator@D@2@@std@@@2@V?$allocator@U?$pair@$$CBV?$basic_string@DU?$char_traits@D@std@@V?$allocator@D@2@@std@@V?$shared_ptr@VRawImageData@@@2@@std@@@2@$0A@@std@@@std@@QAE?AU?$pair@V?$_Tree_iterator@V?$_Tree_val@U?$_Tree_simple_types@U?$pair@$$CBV?$basic_string@DU?$char_traits@D@std@@V?$allocator@D@2@@std@@V?$shared_ptr@VRawImageData@@@2@@std@@@std@@@std@@@std@@_N@1@$$QAU?$pair@V?$basic_string@DU?$char_traits@D@std@@V?$allocator@D@2@@std@@V?$shared_ptr@VRawImageData@@@2@@1@@Z 00409d00 f i DraggingDemo.obj
 0001:00008d70       ??$emplace@U?$pair@V?$basic_string@DU?$char_traits@D@std@@V?$allocator@D@2@@std@@V?$weak_ptr@VRawImageData@@@2@@std@@@?$_Tree@V?$_Tmap_traits@V?$basic_string@DU?$char_traits@D@std@@V?$allocator@D@2@@std@@V?$weak_ptr@VRawImageData@@@2@U?$less@V?$basic_string@DU?$char_traits@D@std@@V?$allocator@D@2@@std@@@2@V?$allocator@U?$pair@$$CBV?$basic_string@DU?$char_traits@D@std@@V?$allocator@D@2@@std@@V?$weak_ptr@VRawImageData@@@2@@std@@@2@$0A@@std@@@std@@QAE?AU?$pair@V?$_Tree_iterator@V?$_Tree_val@U?$_Tree_simple_types@U?$pair@$$CBV?$basic_string@DU?$char_traits@D@std@@V?$allocator@D@2@@std@@V?$weak_ptr@VRawImageData@@@2@@std@@@std@@@std@@@std@@_N@1@$$QAU?$pair@V?$basic_string@DU?$char_traits@D@std@@V?$allocator@D@2@@std@@V?$weak_ptr@VRawImageData@@@2@@1@@Z 00409d70 f i DraggingDemo.obj
 0001:00008de0       ??$endl@DU?$char_traits@D@std@@@std@@YAAAV?$basic_ostream@DU?$char_traits@D@std@@@0@AAV10@@Z 00409de0 f i DraggingDemo.obj
 0001:00008e20       ??$erase@V?$_Tree_iterator@V?$_Tree_val@U?$_Tree_simple_types@U?$pair@$$CBV?$basic_string@DU?$char_traits@D@std@@V?$allocator@D@2@@std@@V?$weak_ptr@VRawImageData@@@2@@std@@@std@@@std@@@std@@X@?$_Tree@V?$_Tmap_traits@V?$basic_string@DU?$char_traits@D@std@@V?$allocator@D@2@@std@@V?$weak_ptr@VRawImageData@@@2@U?$less@V?$basic_string@DU?$char_traits@D@std@@V?$allocator@D@2@@std@@@2@V?$allocator@U?$pair@$$CBV?$basic_string@DU?$char_traits@D@std@@V?$allocator@D@2@@std@@V?$weak_ptr@VRawImageData@@@2@@std@@@2@$0A@@std@@@std@@QAE?AV?$_Tree_iterator@V?$_Tree_val@U?$_Tree_simple_types@U?$pair@$$CBV?$basic_string@DU?$char_traits@D@std@@V?$allocator@D@2@@std@@V?$weak_ptr@VRawImageData@@@2@@std@@@std@@@std@@@1@V21@@Z 00409e20 f i DraggingDemo.obj
 0001:00008ed0       ??$forward@AAPAU?$_Tree_node@U?$pair@$$CBV?$basic_string@DU?$char_traits@D@std@@V?$allocator@D@2@@std@@V?$shared_ptr@VRawImageData@@@2@@std@@PAX@std@@@std@@YAAAPAU?$_Tree_node@U?$pair@$$CBV?$basic_string@DU?$char_traits@D@std@@V?$allocator@D@2@@std@@V?$shared_ptr@VRawImageData@@@2@@std@@PAX@0@AAPAU10@@Z 00409ed0 f i DraggingDemo.obj
 0001:00008ee0       ??$forward@AAPAU?$_Tree_node@U?$pair@$$CBV?$basic_string@DU?$char_traits@D@std@@V?$allocator@D@2@@std@@V?$weak_ptr@VRawImageData@@@2@@std@@PAX@std@@@std@@YAAAPAU?$_Tree_node@U?$pair@$$CBV?$basic_string@DU?$char_traits@D@std@@V?$allocator@D@2@@std@@V?$weak_ptr@VRawImageData@@@2@@std@@PAX@0@AAPAU10@@Z 00409ee0 f i DraggingDemo.obj
 0001:00008ef0       ??$forward@AAU?$pair@$$CBV?$basic_string@DU?$char_traits@D@std@@V?$allocator@D@2@@std@@V?$shared_ptr@VRawImageData@@@2@@std@@@std@@YAAAU?$pair@$$CBV?$basic_string@DU?$char_traits@D@std@@V?$allocator@D@2@@std@@V?$shared_ptr@VRawImageData@@@2@@0@AAU10@@Z 00409ef0 f i DraggingDemo.obj
 0001:00008f00       ??$forward@AAU?$pair@$$CBV?$basic_string@DU?$char_traits@D@std@@V?$allocator@D@2@@std@@V?$weak_ptr@VRawImageData@@@2@@std@@@std@@YAAAU?$pair@$$CBV?$basic_string@DU?$char_traits@D@std@@V?$allocator@D@2@@std@@V?$weak_ptr@VRawImageData@@@2@@0@AAU10@@Z 00409f00 f i DraggingDemo.obj
 0001:00008f10       ??$forward@AAV?$_Tree_iterator@V?$_Tree_val@U?$_Tree_simple_types@U?$pair@$$CBV?$basic_string@DU?$char_traits@D@std@@V?$allocator@D@2@@std@@V?$shared_ptr@VRawImageData@@@2@@std@@@std@@@std@@@std@@@std@@YAAAV?$_Tree_iterator@V?$_Tree_val@U?$_Tree_simple_types@U?$pair@$$CBV?$basic_string@DU?$char_traits@D@std@@V?$allocator@D@2@@std@@V?$shared_ptr@VRawImageData@@@2@@std@@@std@@@std@@@0@AAV10@@Z 00409f10 f i DraggingDemo.obj
 0001:00008f20       ??$forward@AAV?$_Tree_iterator@V?$_Tree_val@U?$_Tree_simple_types@U?$pair@$$CBV?$basic_string@DU?$char_traits@D@std@@V?$allocator@D@2@@std@@V?$weak_ptr@VRawImageData@@@2@@std@@@std@@@std@@@std@@@std@@YAAAV?$_Tree_iterator@V?$_Tree_val@U?$_Tree_simple_types@U?$pair@$$CBV?$basic_string@DU?$char_traits@D@std@@V?$allocator@D@2@@std@@V?$weak_ptr@VRawImageData@@@2@@std@@@std@@@std@@@0@AAV10@@Z 00409f20 f i DraggingDemo.obj
 0001:00008f30       ??$forward@AAV?$basic_string@DU?$char_traits@D@std@@V?$allocator@D@2@@std@@@std@@YAAAV?$basic_string@DU?$char_traits@D@std@@V?$allocator@D@2@@0@AAV10@@Z 00409f30 f i DraggingDemo.obj
 0001:00008f40       ??$forward@AAV?$shared_ptr@VRawImageData@@@std@@@std@@YAAAV?$shared_ptr@VRawImageData@@@0@AAV10@@Z 00409f40 f i DraggingDemo.obj
 0001:00008f50       ??$forward@AAV?$weak_ptr@VRawImageData@@@std@@@std@@YAAAV?$weak_ptr@VRawImageData@@@0@AAV10@@Z 00409f50 f i DraggingDemo.obj
 0001:00008f60       ??$forward@ABQAD@std@@YAABQADABQAD@Z 00409f60 f i DraggingDemo.obj
 0001:00008f70       ??$forward@ABU?$less@V?$basic_string@DU?$char_traits@D@std@@V?$allocator@D@2@@std@@@std@@@std@@YAABU?$less@V?$basic_string@DU?$char_traits@D@std@@V?$allocator@D@2@@std@@@0@ABU10@@Z 00409f70 f i DraggingDemo.obj
 0001:00008f80       ??$forward@U?$pair@V?$basic_string@DU?$char_traits@D@std@@V?$allocator@D@2@@std@@V?$shared_ptr@VRawImageData@@@2@@std@@@std@@YA$$QAU?$pair@V?$basic_string@DU?$char_traits@D@std@@V?$allocator@D@2@@std@@V?$shared_ptr@VRawImageData@@@2@@0@AAU10@@Z 00409f80 f i DraggingDemo.obj
 0001:00008f90       ??$forward@U?$pair@V?$basic_string@DU?$char_traits@D@std@@V?$allocator@D@2@@std@@V?$weak_ptr@VRawImageData@@@2@@std@@@std@@YA$$QAU?$pair@V?$basic_string@DU?$char_traits@D@std@@V?$allocator@D@2@@std@@V?$weak_ptr@VRawImageData@@@2@@0@AAU10@@Z 00409f90 f i DraggingDemo.obj
 0001:00008fa0       ??$forward@U_Container_proxy@std@@@std@@YA$$QAU_Container_proxy@0@AAU10@@Z 00409fa0 f i DraggingDemo.obj
 0001:00008fb0       ??$forward@U_Zero_then_variadic_args_t@std@@@std@@YA$$QAU_Zero_then_variadic_args_t@0@AAU10@@Z 00409fb0 f i DraggingDemo.obj
 0001:00008fc0       ??$forward@V?$_Tree_iterator@V?$_Tree_val@U?$_Tree_simple_types@U?$pair@$$CBV?$basic_string@DU?$char_traits@D@std@@V?$allocator@D@2@@std@@V?$shared_ptr@VRawImageData@@@2@@std@@@std@@@std@@@std@@@std@@YA$$QAV?$_Tree_iterator@V?$_Tree_val@U?$_Tree_simple_types@U?$pair@$$CBV?$basic_string@DU?$char_traits@D@std@@V?$allocator@D@2@@std@@V?$shared_ptr@VRawImageData@@@2@@std@@@std@@@std@@@0@AAV10@@Z 00409fc0 f i DraggingDemo.obj
 0001:00008fd0       ??$forward@V?$_Tree_iterator@V?$_Tree_val@U?$_Tree_simple_types@U?$pair@$$CBV?$basic_string@DU?$char_traits@D@std@@V?$allocator@D@2@@std@@V?$weak_ptr@VRawImageData@@@2@@std@@@std@@@std@@@std@@@std@@YA$$QAV?$_Tree_iterator@V?$_Tree_val@U?$_Tree_simple_types@U?$pair@$$CBV?$basic_string@DU?$char_traits@D@std@@V?$allocator@D@2@@std@@V?$weak_ptr@VRawImageData@@@2@@std@@@std@@@std@@@0@AAV10@@Z 00409fd0 f i DraggingDemo.obj
 0001:00008fe0       ??$forward@V?$allocator@D@std@@@std@@YA$$QAV?$allocator@D@0@AAV10@@Z 00409fe0 f i DraggingDemo.obj
 0001:00008ff0       ??$forward@V?$basic_string@DU?$char_traits@D@std@@V?$allocator@D@2@@std@@@std@@YA$$QAV?$basic_string@DU?$char_traits@D@std@@V?$allocator@D@2@@0@AAV10@@Z 00409ff0 f i DraggingDemo.obj
 0001:00009000       ??$forward@V?$shared_ptr@VRawImageData@@@std@@@std@@YA$$QAV?$shared_ptr@VRawImageData@@@0@AAV10@@Z 0040a000 f i DraggingDemo.obj
 0001:00009010       ??$forward@V?$weak_ptr@VRawImageData@@@std@@@std@@YA$$QAV?$weak_ptr@VRawImageData@@@0@AAV10@@Z 0040a010 f i DraggingDemo.obj
 0001:00009020       ??$forward@_N@std@@YA$$QA_NAA_N@Z 0040a020 f i DraggingDemo.obj
 0001:00009030       ??$insert@U?$pair@V?$basic_string@DU?$char_traits@D@std@@V?$allocator@D@2@@std@@V?$shared_ptr@VRawImageData@@@2@@std@@X@?$map@V?$basic_string@DU?$char_traits@D@std@@V?$allocator@D@2@@std@@V?$shared_ptr@VRawImageData@@@2@U?$less@V?$basic_string@DU?$char_traits@D@std@@V?$allocator@D@2@@std@@@2@V?$allocator@U?$pair@$$CBV?$basic_string@DU?$char_traits@D@std@@V?$allocator@D@2@@std@@V?$shared_ptr@VRawImageData@@@2@@std@@@2@@std@@QAE?AU?$pair@V?$_Tree_iterator@V?$_Tree_val@U?$_Tree_simple_types@U?$pair@$$CBV?$basic_string@DU?$char_traits@D@std@@V?$allocator@D@2@@std@@V?$shared_ptr@VRawImageData@@@2@@std@@@std@@@std@@@std@@_N@1@$$QAU?$pair@V?$basic_string@DU?$char_traits@D@std@@V?$allocator@D@2@@std@@V?$shared_ptr@VRawImageData@@@2@@1@@Z 0040a030 f i DraggingDemo.obj
 0001:00009080       ??$insert@U?$pair@V?$basic_string@DU?$char_traits@D@std@@V?$allocator@D@2@@std@@V?$weak_ptr@VRawImageData@@@2@@std@@X@?$map@V?$basic_string@DU?$char_traits@D@std@@V?$allocator@D@2@@std@@V?$weak_ptr@VRawImageData@@@2@U?$less@V?$basic_string@DU?$char_traits@D@std@@V?$allocator@D@2@@std@@@2@V?$allocator@U?$pair@$$CBV?$basic_string@DU?$char_traits@D@std@@V?$allocator@D@2@@std@@V?$weak_ptr@VRawImageData@@@2@@std@@@2@@std@@QAE?AU?$pair@V?$_Tree_iterator@V?$_Tree_val@U?$_Tree_simple_types@U?$pair@$$CBV?$basic_string@DU?$char_traits@D@std@@V?$allocator@D@2@@std@@V?$weak_ptr@VRawImageData@@@2@@std@@@std@@@std@@@std@@_N@1@$$QAU?$pair@V?$basic_string@DU?$char_traits@D@std@@V?$allocator@D@2@@std@@V?$weak_ptr@VRawImageData@@@2@@1@@Z 0040a080 f i DraggingDemo.obj
 0001:000090d0       ??$move@AAD@std@@YA$$QADAAD@Z 0040a0d0 f i DraggingDemo.obj
 0001:000090e0       ??$move@AAV?$allocator@D@std@@@std@@YA$$QAV?$allocator@D@0@AAV10@@Z 0040a0e0 f i DraggingDemo.obj
 0001:000090f0       ??$move@AAV?$basic_string@DU?$char_traits@D@std@@V?$allocator@D@2@@std@@@std@@YA$$QAV?$basic_string@DU?$char_traits@D@std@@V?$allocator@D@2@@0@AAV10@@Z 0040a0f0 f i DraggingDemo.obj
 0001:00009100       ??$move@AAV?$shared_ptr@VRawImageData@@@std@@@std@@YA$$QAV?$shared_ptr@VRawImageData@@@0@AAV10@@Z 0040a100 f i DraggingDemo.obj
 0001:00009110       ??$move@AAV?$weak_ptr@VRawImageData@@@std@@@std@@YA$$QAV?$weak_ptr@VRawImageData@@@0@AAV10@@Z 0040a110 f i DraggingDemo.obj
 0001:00009120       ??$swap@DX@std@@YAXAAD0@Z  0040a120 f i DraggingDemo.obj
 0001:00009170       ??0<lambda_2afd52570c452b238925c6f475a76105>@@QAE@QAV?$vector@PAVDisplayableObject@@V?$allocator@PAVDisplayableObject@@@std@@@std@@@Z 0040a170 f i DraggingDemo.obj
 0001:00009190       ??0?$_Ptr_base@VRawImageData@@@std@@IAE@XZ 0040a190 f i DraggingDemo.obj
 0001:000091c0       ??0?$_Ref_count@VRawImageData@@@std@@QAE@PAVRawImageData@@@Z 0040a1c0 f i DraggingDemo.obj
 0001:00009200       ??0?$_String_alloc@U?$_String_base_types@DV?$allocator@D@std@@@std@@@std@@QAE@XZ 0040a200 f i DraggingDemo.obj
 0001:00009280       ??0?$_String_val@U?$_Simple_types@D@std@@@std@@QAE@XZ 0040a280 f i DraggingDemo.obj
 0001:000092d0       ??0?$_Tree@V?$_Tmap_traits@V?$basic_string@DU?$char_traits@D@std@@V?$allocator@D@2@@std@@V?$shared_ptr@VRawImageData@@@2@U?$less@V?$basic_string@DU?$char_traits@D@std@@V?$allocator@D@2@@std@@@2@V?$allocator@U?$pair@$$CBV?$basic_string@DU?$char_traits@D@std@@V?$allocator@D@2@@std@@V?$shared_ptr@VRawImageData@@@2@@std@@@2@$0A@@std@@@std@@QAE@ABU?$less@V?$basic_string@DU?$char_traits@D@std@@V?$allocator@D@2@@std@@@1@@Z 0040a2d0 f i DraggingDemo.obj
 0001:00009300       ??0?$_Tree@V?$_Tmap_traits@V?$basic_string@DU?$char_traits@D@std@@V?$allocator@D@2@@std@@V?$weak_ptr@VRawImageData@@@2@U?$less@V?$basic_string@DU?$char_traits@D@std@@V?$allocator@D@2@@std@@@2@V?$allocator@U?$pair@$$CBV?$basic_string@DU?$char_traits@D@std@@V?$allocator@D@2@@std@@V?$weak_ptr@VRawImageData@@@2@@std@@@2@$0A@@std@@@std@@QAE@ABU?$less@V?$basic_string@DU?$char_traits@D@std@@V?$allocator@D@2@@std@@@1@@Z 0040a300 f i DraggingDemo.obj
 0001:00009330       ??0?$_Tree_comp_alloc@V?$_Tmap_traits@V?$basic_string@DU?$char_traits@D@std@@V?$allocator@D@2@@std@@V?$shared_ptr@VRawImageData@@@2@U?$less@V?$basic_string@DU?$char_traits@D@std@@V?$allocator@D@2@@std@@@2@V?$allocator@U?$pair@$$CBV?$basic_string@DU?$char_traits@D@std@@V?$allocator@D@2@@std@@V?$shared_ptr@VRawImageData@@@2@@std@@@2@$0A@@std@@@std@@QAE@ABU?$less@V?$basic_string@DU?$char_traits@D@std@@V?$allocator@D@2@@std@@@1@@Z 0040a330 f i DraggingDemo.obj
 0001:00009370       ??0?$_Tree_comp_alloc@V?$_Tmap_traits@V?$basic_string@DU?$char_traits@D@std@@V?$allocator@D@2@@std@@V?$weak_ptr@VRawImageData@@@2@U?$less@V?$basic_string@DU?$char_traits@D@std@@V?$allocator@D@2@@std@@@2@V?$allocator@U?$pair@$$CBV?$basic_string@DU?$char_traits@D@std@@V?$allocator@D@2@@std@@V?$weak_ptr@VRawImageData@@@2@@std@@@2@$0A@@std@@@std@@QAE@ABU?$less@V?$basic_string@DU?$char_traits@D@std@@V?$allocator@D@2@@std@@@1@@Z 0040a370 f i DraggingDemo.obj
 0001:000093b0       ??0?$_Tree_const_iterator@V?$_Tree_val@U?$_Tree_simple_types@U?$pair@$$CBV?$basic_string@DU?$char_traits@D@std@@V?$allocator@D@2@@std@@V?$shared_ptr@VRawImageData@@@2@@std@@@std@@@std@@@std@@QAE@$$QAV01@@Z 0040a3b0 f i DraggingDemo.obj
 0001:000093e0       ??0?$_Tree_const_iterator@V?$_Tree_val@U?$_Tree_simple_types@U?$pair@$$CBV?$basic_string@DU?$char_traits@D@std@@V?$allocator@D@2@@std@@V?$shared_ptr@VRawImageData@@@2@@std@@@std@@@std@@@std@@QAE@ABV01@@Z 0040a3e0 f i DraggingDemo.obj
 0001:00009410       ??0?$_Tree_const_iterator@V?$_Tree_val@U?$_Tree_simple_types@U?$pair@$$CBV?$basic_string@DU?$char_traits@D@std@@V?$allocator@D@2@@std@@V?$shared_ptr@VRawImageData@@@2@@std@@@std@@@std@@@std@@QAE@PAU?$_Tree_node@U?$pair@$$CBV?$basic_string@DU?$char_traits@D@std@@V?$allocator@D@2@@std@@V?$shared_ptr@VRawImageData@@@2@@std@@PAX@1@PBV?$_Tree_val@U?$_Tree_simple_types@U?$pair@$$CBV?$basic_string@DU?$char_traits@D@std@@V?$allocator@D@2@@std@@V?$shared_ptr@VRawImageData@@@2@@std@@@std@@@1@@Z 0040a410 f i DraggingDemo.obj
 0001:00009440       ??0?$_Tree_const_iterator@V?$_Tree_val@U?$_Tree_simple_types@U?$pair@$$CBV?$basic_string@DU?$char_traits@D@std@@V?$allocator@D@2@@std@@V?$weak_ptr@VRawImageData@@@2@@std@@@std@@@std@@@std@@QAE@$$QAV01@@Z 0040a440 f i DraggingDemo.obj
 0001:00009470       ??0?$_Tree_const_iterator@V?$_Tree_val@U?$_Tree_simple_types@U?$pair@$$CBV?$basic_string@DU?$char_traits@D@std@@V?$allocator@D@2@@std@@V?$weak_ptr@VRawImageData@@@2@@std@@@std@@@std@@@std@@QAE@ABV01@@Z 0040a470 f i DraggingDemo.obj
 0001:000094a0       ??0?$_Tree_const_iterator@V?$_Tree_val@U?$_Tree_simple_types@U?$pair@$$CBV?$basic_string@DU?$char_traits@D@std@@V?$allocator@D@2@@std@@V?$weak_ptr@VRawImageData@@@2@@std@@@std@@@std@@@std@@QAE@PAU?$_Tree_node@U?$pair@$$CBV?$basic_string@DU?$char_traits@D@std@@V?$allocator@D@2@@std@@V?$weak_ptr@VRawImageData@@@2@@std@@PAX@1@PBV?$_Tree_val@U?$_Tree_simple_types@U?$pair@$$CBV?$basic_string@DU?$char_traits@D@std@@V?$allocator@D@2@@std@@V?$weak_ptr@VRawImageData@@@2@@std@@@std@@@1@@Z 0040a4a0 f i DraggingDemo.obj
 0001:000094d0       ??0?$_Tree_iterator@V?$_Tree_val@U?$_Tree_simple_types@U?$pair@$$CBV?$basic_string@DU?$char_traits@D@std@@V?$allocator@D@2@@std@@V?$shared_ptr@VRawImageData@@@2@@std@@@std@@@std@@@std@@QAE@$$QAV01@@Z 0040a4d0 f i DraggingDemo.obj
 0001:00009500       ??0?$_Tree_iterator@V?$_Tree_val@U?$_Tree_simple_types@U?$pair@$$CBV?$basic_string@DU?$char_traits@D@std@@V?$allocator@D@2@@std@@V?$shared_ptr@VRawImageData@@@2@@std@@@std@@@std@@@std@@QAE@ABV01@@Z 0040a500 f i DraggingDemo.obj
 0001:00009530       ??0?$_Tree_iterator@V?$_Tree_val@U?$_Tree_simple_types@U?$pair@$$CBV?$basic_string@DU?$char_traits@D@std@@V?$allocator@D@2@@std@@V?$shared_ptr@VRawImageData@@@2@@std@@@std@@@std@@@std@@QAE@PAU?$_Tree_node@U?$pair@$$CBV?$basic_string@DU?$char_traits@D@std@@V?$allocator@D@2@@std@@V?$shared_ptr@VRawImageData@@@2@@std@@PAX@1@PBV?$_Tree_val@U?$_Tree_simple_types@U?$pair@$$CBV?$basic_string@DU?$char_traits@D@std@@V?$allocator@D@2@@std@@V?$shared_ptr@VRawImageData@@@2@@std@@@std@@@1@@Z 0040a530 f i DraggingDemo.obj
 0001:00009560       ??0?$_Tree_iterator@V?$_Tree_val@U?$_Tree_simple_types@U?$pair@$$CBV?$basic_string@DU?$char_traits@D@std@@V?$allocator@D@2@@std@@V?$weak_ptr@VRawImageData@@@2@@std@@@std@@@std@@@std@@QAE@$$QAV01@@Z 0040a560 f i DraggingDemo.obj
 0001:00009590       ??0?$_Tree_iterator@V?$_Tree_val@U?$_Tree_simple_types@U?$pair@$$CBV?$basic_string@DU?$char_traits@D@std@@V?$allocator@D@2@@std@@V?$weak_ptr@VRawImageData@@@2@@std@@@std@@@std@@@std@@QAE@ABV01@@Z 0040a590 f i DraggingDemo.obj
 0001:000095c0       ??0?$_Tree_iterator@V?$_Tree_val@U?$_Tree_simple_types@U?$pair@$$CBV?$basic_string@DU?$char_traits@D@std@@V?$allocator@D@2@@std@@V?$weak_ptr@VRawImageData@@@2@@std@@@std@@@std@@@std@@QAE@PAU?$_Tree_node@U?$pair@$$CBV?$basic_string@DU?$char_traits@D@std@@V?$allocator@D@2@@std@@V?$weak_ptr@VRawImageData@@@2@@std@@PAX@1@PBV?$_Tree_val@U?$_Tree_simple_types@U?$pair@$$CBV?$basic_string@DU?$char_traits@D@std@@V?$allocator@D@2@@std@@V?$weak_ptr@VRawImageData@@@2@@std@@@std@@@1@@Z 0040a5c0 f i DraggingDemo.obj
 0001:000095f0       ??0?$_Tree_unchecked_const_iterator@V?$_Tree_val@U?$_Tree_simple_types@U?$pair@$$CBV?$basic_string@DU?$char_traits@D@std@@V?$allocator@D@2@@std@@V?$shared_ptr@VRawImageData@@@2@@std@@@std@@@std@@U_Iterator_base12@2@@std@@QAE@$$QAV01@@Z 0040a5f0 f i DraggingDemo.obj
 0001:00009630       ??0?$_Tree_unchecked_const_iterator@V?$_Tree_val@U?$_Tree_simple_types@U?$pair@$$CBV?$basic_string@DU?$char_traits@D@std@@V?$allocator@D@2@@std@@V?$shared_ptr@VRawImageData@@@2@@std@@@std@@@std@@U_Iterator_base12@2@@std@@QAE@ABV01@@Z 0040a630 f i DraggingDemo.obj
 0001:00009670       ??0?$_Tree_unchecked_const_iterator@V?$_Tree_val@U?$_Tree_simple_types@U?$pair@$$CBV?$basic_string@DU?$char_traits@D@std@@V?$allocator@D@2@@std@@V?$shared_ptr@VRawImageData@@@2@@std@@@std@@@std@@U_Iterator_base12@2@@std@@QAE@PAU?$_Tree_node@U?$pair@$$CBV?$basic_string@DU?$char_traits@D@std@@V?$allocator@D@2@@std@@V?$shared_ptr@VRawImageData@@@2@@std@@PAX@1@PBV?$_Tree_val@U?$_Tree_simple_types@U?$pair@$$CBV?$basic_string@DU?$char_traits@D@std@@V?$allocator@D@2@@std@@V?$shared_ptr@VRawImageData@@@2@@std@@@std@@@1@@Z 0040a670 f i DraggingDemo.obj
 0001:000096b0       ??0?$_Tree_unchecked_const_iterator@V?$_Tree_val@U?$_Tree_simple_types@U?$pair@$$CBV?$basic_string@DU?$char_traits@D@std@@V?$allocator@D@2@@std@@V?$weak_ptr@VRawImageData@@@2@@std@@@std@@@std@@U_Iterator_base12@2@@std@@QAE@$$QAV01@@Z 0040a6b0 f i DraggingDemo.obj
 0001:000096f0       ??0?$_Tree_unchecked_const_iterator@V?$_Tree_val@U?$_Tree_simple_types@U?$pair@$$CBV?$basic_string@DU?$char_traits@D@std@@V?$allocator@D@2@@std@@V?$weak_ptr@VRawImageData@@@2@@std@@@std@@@std@@U_Iterator_base12@2@@std@@QAE@ABV01@@Z 0040a6f0 f i DraggingDemo.obj
 0001:00009730       ??0?$_Tree_unchecked_const_iterator@V?$_Tree_val@U?$_Tree_simple_types@U?$pair@$$CBV?$basic_string@DU?$char_traits@D@std@@V?$allocator@D@2@@std@@V?$weak_ptr@VRawImageData@@@2@@std@@@std@@@std@@U_Iterator_base12@2@@std@@QAE@PAU?$_Tree_node@U?$pair@$$CBV?$basic_string@DU?$char_traits@D@std@@V?$allocator@D@2@@std@@V?$weak_ptr@VRawImageData@@@2@@std@@PAX@1@PBV?$_Tree_val@U?$_Tree_simple_types@U?$pair@$$CBV?$basic_string@DU?$char_traits@D@std@@V?$allocator@D@2@@std@@V?$weak_ptr@VRawImageData@@@2@@std@@@std@@@1@@Z 0040a730 f i DraggingDemo.obj
 0001:00009770       ??0?$_Tree_val@U?$_Tree_simple_types@U?$pair@$$CBV?$basic_string@DU?$char_traits@D@std@@V?$allocator@D@2@@std@@V?$shared_ptr@VRawImageData@@@2@@std@@@std@@@std@@QAE@XZ 0040a770 f i DraggingDemo.obj
 0001:000097b0       ??0?$_Tree_val@U?$_Tree_simple_types@U?$pair@$$CBV?$basic_string@DU?$char_traits@D@std@@V?$allocator@D@2@@std@@V?$weak_ptr@VRawImageData@@@2@@std@@@std@@@std@@QAE@XZ 0040a7b0 f i DraggingDemo.obj
 0001:000097f0       ??0?$allocator@D@std@@QAE@XZ 0040a7f0 f i DraggingDemo.obj
 0001:00009810       ??0?$allocator@U?$_Tree_node@U?$pair@$$CBV?$basic_string@DU?$char_traits@D@std@@V?$allocator@D@2@@std@@V?$shared_ptr@VRawImageData@@@2@@std@@PAX@std@@@std@@QAE@XZ 0040a810 f i DraggingDemo.obj
 0001:00009830       ??0?$allocator@U?$_Tree_node@U?$pair@$$CBV?$basic_string@DU?$char_traits@D@std@@V?$allocator@D@2@@std@@V?$weak_ptr@VRawImageData@@@2@@std@@PAX@std@@@std@@QAE@XZ 0040a830 f i DraggingDemo.obj
 0001:00009850       ??0?$basic_string@DU?$char_traits@D@std@@V?$allocator@D@2@@std@@QAE@$$QAV01@@Z 0040a850 f i DraggingDemo.obj
 0001:000098f0       ??0?$basic_string@DU?$char_traits@D@std@@V?$allocator@D@2@@std@@QAE@ABV01@@Z 0040a8f0 f i DraggingDemo.obj
 0001:00009990       ??0?$basic_string@DU?$char_traits@D@std@@V?$allocator@D@2@@std@@QAE@QBD@Z 0040a990 f i DraggingDemo.obj
 0001:00009a10       ??0?$map@V?$basic_string@DU?$char_traits@D@std@@V?$allocator@D@2@@std@@V?$shared_ptr@VRawImageData@@@2@U?$less@V?$basic_string@DU?$char_traits@D@std@@V?$allocator@D@2@@std@@@2@V?$allocator@U?$pair@$$CBV?$basic_string@DU?$char_traits@D@std@@V?$allocator@D@2@@std@@V?$shared_ptr@VRawImageData@@@2@@std@@@2@@std@@QAE@XZ 0040aa10 f i DraggingDemo.obj
 0001:00009a40       ??0?$map@V?$basic_string@DU?$char_traits@D@std@@V?$allocator@D@2@@std@@V?$weak_ptr@VRawImageData@@@2@U?$less@V?$basic_string@DU?$char_traits@D@std@@V?$allocator@D@2@@std@@@2@V?$allocator@U?$pair@$$CBV?$basic_string@DU?$char_traits@D@std@@V?$allocator@D@2@@std@@V?$weak_ptr@VRawImageData@@@2@@std@@@2@@std@@QAE@XZ 0040aa40 f i DraggingDemo.obj
 0001:00009a70       ??0?$shared_ptr@VRawImageData@@@std@@QAE@$$QAV01@@Z 0040aa70 f i DraggingDemo.obj
 0001:00009ae0       ??0?$shared_ptr@VRawImageData@@@std@@QAE@$$T@Z 0040aae0 f i DraggingDemo.obj
 0001:00009b00       ??0?$shared_ptr@VRawImageData@@@std@@QAE@ABV01@@Z 0040ab00 f i DraggingDemo.obj
 0001:00009b70       ??0?$shared_ptr@VRawImageData@@@std@@QAE@XZ 0040ab70 f i DraggingDemo.obj
 0001:00009b90       ??0?$weak_ptr@VRawImageData@@@std@@QAE@$$QAV01@@Z 0040ab90 f i DraggingDemo.obj
 0001:00009c00       ??0?$weak_ptr@VRawImageData@@@std@@QAE@ABV01@@Z 0040ac00 f i DraggingDemo.obj
 0001:00009c70       ??0DragableBaseClassObject@@QAE@HHPAVBaseEngine@@HH_N@Z 0040ac70 f i DraggingDemo.obj
 0001:00009cd0       ??0DragableBaseClassObject@@QAE@PAVBaseEngine@@HH_N@Z 0040acd0 f i DraggingDemo.obj
 0001:00009d20       ??0DragableImageObject@@QAE@HHPAVBaseEngine@@V?$basic_string@DU?$char_traits@D@std@@V?$allocator@D@2@@std@@_N2@Z 0040ad20 f i DraggingDemo.obj
 0001:00009ec0       ??0DragableObject@@QAE@HHPAVBaseEngine@@HH_N1@Z 0040aec0 f i DraggingDemo.obj
 0001:00009f70       ??0DragableObject@@QAE@PAVBaseEngine@@HH_N1@Z 0040af70 f i DraggingDemo.obj
 0001:0000a020       ??0ImageManager@@QAE@XZ    0040b020 f i DraggingDemo.obj
 0001:0000a0a0       ??0ImageObject@@QAE@HHPAVBaseEngine@@V?$basic_string@DU?$char_traits@D@std@@V?$allocator@D@2@@std@@_N2@Z 0040b0a0 f i DraggingDemo.obj
 0001:0000a230       ??0RawImageData@@QAE@V?$basic_string@DU?$char_traits@D@std@@V?$allocator@D@2@@std@@@Z 0040b230 f i DraggingDemo.obj
 0001:0000a2e0       ??0_Bxty@?$_String_val@U?$_Simple_types@D@std@@@std@@QAE@XZ 0040b2e0 f i DraggingDemo.obj
 0001:0000a300       ??0_Container_base12@std@@QAE@XZ 0040b300 f i DraggingDemo.obj
 0001:0000a320       ??0_Container_proxy@std@@QAE@XZ 0040b320 f i DraggingDemo.obj
 0001:0000a350       ??0_Iterator_base12@std@@QAE@ABU01@@Z 0040b350 f i DraggingDemo.obj
 0001:0000a390       ??0_Iterator_base12@std@@QAE@XZ 0040b390 f i DraggingDemo.obj
 0001:0000a3c0       ??0_Ref_count_base@std@@IAE@XZ 0040b3c0 f i DraggingDemo.obj
 0001:0000a3f0       ??0_Sentry_base@?$basic_ostream@DU?$char_traits@D@std@@@std@@QAE@AAV12@@Z 0040b3f0 f i DraggingDemo.obj
 0001:0000a470       ??0sentry@?$basic_ostream@DU?$char_traits@D@std@@@std@@QAE@AAV12@@Z 0040b470 f i DraggingDemo.obj
 0001:0000a570       ??1?$_Compressed_pair@V?$allocator@D@std@@V?$_String_val@U?$_Simple_types@D@std@@@2@$00@std@@QAE@XZ 0040b570 f i DraggingDemo.obj
 0001:0000a590       ??1?$_Ref_count@VRawImageData@@@std@@UAE@XZ 0040b590 f i DraggingDemo.obj
 0001:0000a5b0       ??1?$_String_alloc@U?$_String_base_types@DV?$allocator@D@std@@@std@@@std@@QAE@XZ 0040b5b0 f i DraggingDemo.obj
 0001:0000a610       ??1?$_String_val@U?$_Simple_types@D@std@@@std@@QAE@XZ 0040b610 f i DraggingDemo.obj
 0001:0000a630       ??1?$_Tree@V?$_Tmap_traits@V?$basic_string@DU?$char_traits@D@std@@V?$allocator@D@2@@std@@V?$shared_ptr@VRawImageData@@@2@U?$less@V?$basic_string@DU?$char_traits@D@std@@V?$allocator@D@2@@std@@@2@V?$allocator@U?$pair@$$CBV?$basic_string@DU?$char_traits@D@std@@V?$allocator@D@2@@std@@V?$shared_ptr@VRawImageData@@@2@@std@@@2@$0A@@std@@@std@@QAE@XZ 0040b630 f i DraggingDemo.obj
 0001:0000a690       ??1?$_Tree@V?$_Tmap_traits@V?$basic_string@DU?$char_traits@D@std@@V?$allocator@D@2@@std@@V?$weak_ptr@VRawImageData@@@2@U?$less@V?$basic_string@DU?$char_traits@D@std@@V?$allocator@D@2@@std@@@2@V?$allocator@U?$pair@$$CBV?$basic_string@DU?$char_traits@D@std@@V?$allocator@D@2@@std@@V?$weak_ptr@VRawImageData@@@2@@std@@@2@$0A@@std@@@std@@QAE@XZ 0040b690 f i DraggingDemo.obj
 0001:0000a6f0       ??1?$_Tree_comp_alloc@V?$_Tmap_traits@V?$basic_string@DU?$char_traits@D@std@@V?$allocator@D@2@@std@@V?$shared_ptr@VRawImageData@@@2@U?$less@V?$basic_string@DU?$char_traits@D@std@@V?$allocator@D@2@@std@@@2@V?$allocator@U?$pair@$$CBV?$basic_string@DU?$char_traits@D@std@@V?$allocator@D@2@@std@@V?$shared_ptr@VRawImageData@@@2@@std@@@2@$0A@@std@@@std@@QAE@XZ 0040b6f0 f i DraggingDemo.obj
 0001:0000a760       ??1?$_Tree_comp_alloc@V?$_Tmap_traits@V?$basic_string@DU?$char_traits@D@std@@V?$allocator@D@2@@std@@V?$weak_ptr@VRawImageData@@@2@U?$less@V?$basic_string@DU?$char_traits@D@std@@V?$allocator@D@2@@std@@@2@V?$allocator@U?$pair@$$CBV?$basic_string@DU?$char_traits@D@std@@V?$allocator@D@2@@std@@V?$weak_ptr@VRawImageData@@@2@@std@@@2@$0A@@std@@@std@@QAE@XZ 0040b760 f i DraggingDemo.obj
 0001:0000a7d0       ??1?$_Tree_const_iterator@V?$_Tree_val@U?$_Tree_simple_types@U?$pair@$$CBV?$basic_string@DU?$char_traits@D@std@@V?$allocator@D@2@@std@@V?$shared_ptr@VRawImageData@@@2@@std@@@std@@@std@@@std@@QAE@XZ 0040b7d0 f i DraggingDemo.obj
 0001:0000a7f0       ??1?$_Tree_const_iterator@V?$_Tree_val@U?$_Tree_simple_types@U?$pair@$$CBV?$basic_string@DU?$char_traits@D@std@@V?$allocator@D@2@@std@@V?$weak_ptr@VRawImageData@@@2@@std@@@std@@@std@@@std@@QAE@XZ 0040b7f0 f i DraggingDemo.obj
 0001:0000a810       ??1?$_Tree_iterator@V?$_Tree_val@U?$_Tree_simple_types@U?$pair@$$CBV?$basic_string@DU?$char_traits@D@std@@V?$allocator@D@2@@std@@V?$shared_ptr@VRawImageData@@@2@@std@@@std@@@std@@@std@@QAE@XZ 0040b810 f i DraggingDemo.obj
 0001:0000a830       ??1?$_Tree_iterator@V?$_Tree_val@U?$_Tree_simple_types@U?$pair@$$CBV?$basic_string@DU?$char_traits@D@std@@V?$allocator@D@2@@std@@V?$weak_ptr@VRawImageData@@@2@@std@@@std@@@std@@@std@@QAE@XZ 0040b830 f i DraggingDemo.obj
 0001:0000a850       ??1?$_Tree_unchecked_const_iterator@V?$_Tree_val@U?$_Tree_simple_types@U?$pair@$$CBV?$basic_string@DU?$char_traits@D@std@@V?$allocator@D@2@@std@@V?$shared_ptr@VRawImageData@@@2@@std@@@std@@@std@@U_Iterator_base12@2@@std@@QAE@XZ 0040b850 f i DraggingDemo.obj
 0001:0000a870       ??1?$_Tree_unchecked_const_iterator@V?$_Tree_val@U?$_Tree_simple_types@U?$pair@$$CBV?$basic_string@DU?$char_traits@D@std@@V?$allocator@D@2@@std@@V?$weak_ptr@VRawImageData@@@2@@std@@@std@@@std@@U_Iterator_base12@2@@std@@QAE@XZ 0040b870 f i DraggingDemo.obj
 0001:0000a890       ??1?$basic_string@DU?$char_traits@D@std@@V?$allocator@D@2@@std@@QAE@XZ 0040b890 f i DraggingDemo.obj
 0001:0000a8f0       ??1?$map@V?$basic_string@DU?$char_traits@D@std@@V?$allocator@D@2@@std@@V?$shared_ptr@VRawImageData@@@2@U?$less@V?$basic_string@DU?$char_traits@D@std@@V?$allocator@D@2@@std@@@2@V?$allocator@U?$pair@$$CBV?$basic_string@DU?$char_traits@D@std@@V?$allocator@D@2@@std@@V?$shared_ptr@VRawImageData@@@2@@std@@@2@@std@@QAE@XZ 0040b8f0 f i DraggingDemo.obj
 0001:0000a910       ??1?$map@V?$basic_string@DU?$char_traits@D@std@@V?$allocator@D@2@@std@@V?$weak_ptr@VRawImageData@@@2@U?$less@V?$basic_string@DU?$char_traits@D@std@@V?$allocator@D@2@@std@@@2@V?$allocator@U?$pair@$$CBV?$basic_string@DU?$char_traits@D@std@@V?$allocator@D@2@@std@@V?$weak_ptr@VRawImageData@@@2@@std@@@2@@std@@QAE@XZ 0040b910 f i DraggingDemo.obj
 0001:0000a930       ??1?$pair@$$CBV?$basic_string@DU?$char_traits@D@std@@V?$allocator@D@2@@std@@V?$shared_ptr@VRawImageData@@@2@@std@@QAE@XZ 0040b930 f i DraggingDemo.obj
 0001:0000a960       ??1?$pair@$$CBV?$basic_string@DU?$char_traits@D@std@@V?$allocator@D@2@@std@@V?$weak_ptr@VRawImageData@@@2@@std@@QAE@XZ 0040b960 f i DraggingDemo.obj
 0001:0000a990       ??1?$pair@V?$_Tree_iterator@V?$_Tree_val@U?$_Tree_simple_types@U?$pair@$$CBV?$basic_string@DU?$char_traits@D@std@@V?$allocator@D@2@@std@@V?$shared_ptr@VRawImageData@@@2@@std@@@std@@@std@@@std@@_N@std@@QAE@XZ 0040b990 f i DraggingDemo.obj
 0001:0000a9b0       ??1?$pair@V?$_Tree_iterator@V?$_Tree_val@U?$_Tree_simple_types@U?$pair@$$CBV?$basic_string@DU?$char_traits@D@std@@V?$allocator@D@2@@std@@V?$weak_ptr@VRawImageData@@@2@@std@@@std@@@std@@@std@@_N@std@@QAE@XZ 0040b9b0 f i DraggingDemo.obj
 0001:0000a9d0       ??1?$pair@V?$basic_string@DU?$char_traits@D@std@@V?$allocator@D@2@@std@@V?$shared_ptr@VRawImageData@@@2@@std@@QAE@XZ 0040b9d0 f i DraggingDemo.obj
 0001:0000aa00       ??1?$pair@V?$basic_string@DU?$char_traits@D@std@@V?$allocator@D@2@@std@@V?$weak_ptr@VRawImageData@@@2@@std@@QAE@XZ 0040ba00 f i DraggingDemo.obj
 0001:0000aa30       ??1?$shared_ptr@VRawImageData@@@std@@QAE@XZ 0040ba30 f i DraggingDemo.obj
 0001:0000aa80       ??1?$weak_ptr@VRawImageData@@@std@@QAE@XZ 0040ba80 f i DraggingDemo.obj
 0001:0000aad0       ??1DragableBaseClassObject@@UAE@XZ 0040bad0 f i DraggingDemo.obj
 0001:0000aaf0       ??1DragableImageObject@@UAE@XZ 0040baf0 f i DraggingDemo.obj
 0001:0000ab20       ??1DragableObject@@UAE@XZ  0040bb20 f i DraggingDemo.obj
 0001:0000ab40       ??1ImageObject@@UAE@XZ     0040bb40 f i DraggingDemo.obj
 0001:0000ab70       ??1RawImageData@@QAE@XZ    0040bb70 f i DraggingDemo.obj
 0001:0000abd0       ??1SimpleImage@@QAE@XZ     0040bbd0 f i DraggingDemo.obj
 0001:0000ac20       ??1_Bxty@?$_String_val@U?$_Simple_types@D@std@@@std@@QAE@XZ 0040bc20 f i DraggingDemo.obj
 0001:0000ac30       ??1_Iterator_base12@std@@QAE@XZ 0040bc30 f i DraggingDemo.obj
 0001:0000aca0       ??1_Ref_count_base@std@@UAE@XZ 0040bca0 f i DraggingDemo.obj
 0001:0000acb0       ??1_Sentry_base@?$basic_ostream@DU?$char_traits@D@std@@@std@@QAE@XZ 0040bcb0 f i DraggingDemo.obj
 0001:0000ad50       ??1sentry@?$basic_ostream@DU?$char_traits@D@std@@@std@@QAE@XZ 0040bd50 f i DraggingDemo.obj
 0001:0000adc0       ??2@YAPAXIPAX@Z            0040bdc0 f i DraggingDemo.obj
 0001:0000add0       ??4_Iterator_base12@std@@QAEAAU01@ABU01@@Z 0040bdd0 f i DraggingDemo.obj
 0001:0000ae70       ??8?$_Tree_const_iterator@V?$_Tree_val@U?$_Tree_simple_types@U?$pair@$$CBV?$basic_string@DU?$char_traits@D@std@@V?$allocator@D@2@@std@@V?$shared_ptr@VRawImageData@@@2@@std@@@std@@@std@@@std@@QBE_NABV01@@Z 0040be70 f i DraggingDemo.obj
 0001:0000af30       ??8?$_Tree_const_iterator@V?$_Tree_val@U?$_Tree_simple_types@U?$pair@$$CBV?$basic_string@DU?$char_traits@D@std@@V?$allocator@D@2@@std@@V?$weak_ptr@VRawImageData@@@2@@std@@@std@@@std@@@std@@QBE_NABV01@@Z 0040bf30 f i DraggingDemo.obj
 0001:0000aff0       ??9?$_Tree_const_iterator@V?$_Tree_val@U?$_Tree_simple_types@U?$pair@$$CBV?$basic_string@DU?$char_traits@D@std@@V?$allocator@D@2@@std@@V?$shared_ptr@VRawImageData@@@2@@std@@@std@@@std@@@std@@QBE_NABV01@@Z 0040bff0 f i DraggingDemo.obj
 0001:0000b040       ??9?$_Tree_const_iterator@V?$_Tree_val@U?$_Tree_simple_types@U?$pair@$$CBV?$basic_string@DU?$char_traits@D@std@@V?$allocator@D@2@@std@@V?$weak_ptr@VRawImageData@@@2@@std@@@std@@@std@@@std@@QBE_NABV01@@Z 0040c040 f i DraggingDemo.obj
 0001:0000b090       ??A?$vector@PAVDisplayableObject@@V?$allocator@PAVDisplayableObject@@@std@@@std@@QAEAAPAVDisplayableObject@@I@Z 0040c090 f i DraggingDemo.obj
 0001:0000b130       ??Bsentry@?$basic_ostream@DU?$char_traits@D@std@@@std@@QBE_NXZ 0040c130 f i DraggingDemo.obj
 0001:0000b150       ??C?$_Tree_iterator@V?$_Tree_val@U?$_Tree_simple_types@U?$pair@$$CBV?$basic_string@DU?$char_traits@D@std@@V?$allocator@D@2@@std@@V?$weak_ptr@VRawImageData@@@2@@std@@@std@@@std@@@std@@QBEPAU?$pair@$$CBV?$basic_string@DU?$char_traits@D@std@@V?$allocator@D@2@@std@@V?$weak_ptr@VRawImageData@@@2@@1@XZ 0040c150 f i DraggingDemo.obj
 0001:0000b180       ??D?$_Tree_const_iterator@V?$_Tree_val@U?$_Tree_simple_types@U?$pair@$$CBV?$basic_string@DU?$char_traits@D@std@@V?$allocator@D@2@@std@@V?$weak_ptr@VRawImageData@@@2@@std@@@std@@@std@@@std@@QBEABU?$pair@$$CBV?$basic_string@DU?$char_traits@D@std@@V?$allocator@D@2@@std@@V?$weak_ptr@VRawImageData@@@2@@1@XZ 0040c180 f i DraggingDemo.obj
 0001:0000b290       ??D?$_Tree_iterator@V?$_Tree_val@U?$_Tree_simple_types@U?$pair@$$CBV?$basic_string@DU?$char_traits@D@std@@V?$allocator@D@2@@std@@V?$weak_ptr@VRawImageData@@@2@@std@@@std@@@std@@@std@@QBEAAU?$pair@$$CBV?$basic_string@DU?$char_traits@D@std@@V?$allocator@D@2@@std@@V?$weak_ptr@VRawImageData@@@2@@1@XZ 0040c290 f i DraggingDemo.obj
 0001:0000b2b0       ??E?$_Tree_const_iterator@V?$_Tree_val@U?$_Tree_simple_types@U?$pair@$$CBV?$basic_string@DU?$char_traits@D@std@@V?$allocator@D@2@@std@@V?$shared_ptr@VRawImageData@@@2@@std@@@std@@@std@@@std@@QAE?AV01@H@Z 0040c2b0 f i DraggingDemo.obj
 0001:0000b360       ??E?$_Tree_const_iterator@V?$_Tree_val@U?$_Tree_simple_types@U?$pair@$$CBV?$basic_string@DU?$char_traits@D@std@@V?$allocator@D@2@@std@@V?$shared_ptr@VRawImageData@@@2@@std@@@std@@@std@@@std@@QAEAAV01@XZ 0040c360 f i DraggingDemo.obj
 0001:0000b470       ??E?$_Tree_const_iterator@V?$_Tree_val@U?$_Tree_simple_types@U?$pair@$$CBV?$basic_string@DU?$char_traits@D@std@@V?$allocator@D@2@@std@@V?$weak_ptr@VRawImageData@@@2@@std@@@std@@@std@@@std@@QAE?AV01@H@Z 0040c470 f i DraggingDemo.obj
 0001:0000b520       ??E?$_Tree_const_iterator@V?$_Tree_val@U?$_Tree_simple_types@U?$pair@$$CBV?$basic_string@DU?$char_traits@D@std@@V?$allocator@D@2@@std@@V?$weak_ptr@VRawImageData@@@2@@std@@@std@@@std@@@std@@QAEAAV01@XZ 0040c520 f i DraggingDemo.obj
 0001:0000b630       ??E?$_Tree_unchecked_const_iterator@V?$_Tree_val@U?$_Tree_simple_types@U?$pair@$$CBV?$basic_string@DU?$char_traits@D@std@@V?$allocator@D@2@@std@@V?$shared_ptr@VRawImageData@@@2@@std@@@std@@@std@@U_Iterator_base12@2@@std@@QAEAAV01@XZ 0040c630 f i DraggingDemo.obj
 0001:0000b6d0       ??E?$_Tree_unchecked_const_iterator@V?$_Tree_val@U?$_Tree_simple_types@U?$pair@$$CBV?$basic_string@DU?$char_traits@D@std@@V?$allocator@D@2@@std@@V?$weak_ptr@VRawImageData@@@2@@std@@@std@@@std@@U_Iterator_base12@2@@std@@QAEAAV01@XZ 0040c6d0 f i DraggingDemo.obj
 0001:0000b770       ??F?$_Tree_const_iterator@V?$_Tree_val@U?$_Tree_simple_types@U?$pair@$$CBV?$basic_string@DU?$char_traits@D@std@@V?$allocator@D@2@@std@@V?$shared_ptr@VRawImageData@@@2@@std@@@std@@@std@@@std@@QAEAAV01@XZ 0040c770 f i DraggingDemo.obj
 0001:0000b880       ??F?$_Tree_const_iterator@V?$_Tree_val@U?$_Tree_simple_types@U?$pair@$$CBV?$basic_string@DU?$char_traits@D@std@@V?$allocator@D@2@@std@@V?$weak_ptr@VRawImageData@@@2@@std@@@std@@@std@@@std@@QAEAAV01@XZ 0040c880 f i DraggingDemo.obj
 0001:0000b990       ??F?$_Tree_iterator@V?$_Tree_val@U?$_Tree_simple_types@U?$pair@$$CBV?$basic_string@DU?$char_traits@D@std@@V?$allocator@D@2@@std@@V?$shared_ptr@VRawImageData@@@2@@std@@@std@@@std@@@std@@QAEAAV01@XZ 0040c990 f i DraggingDemo.obj
 0001:0000b9b0       ??F?$_Tree_iterator@V?$_Tree_val@U?$_Tree_simple_types@U?$pair@$$CBV?$basic_string@DU?$char_traits@D@std@@V?$allocator@D@2@@std@@V?$weak_ptr@VRawImageData@@@2@@std@@@std@@@std@@@std@@QAEAAV01@XZ 0040c9b0 f i DraggingDemo.obj
 0001:0000b9d0       ??F?$_Tree_unchecked_const_iterator@V?$_Tree_val@U?$_Tree_simple_types@U?$pair@$$CBV?$basic_string@DU?$char_traits@D@std@@V?$allocator@D@2@@std@@V?$shared_ptr@VRawImageData@@@2@@std@@@std@@@std@@U_Iterator_base12@2@@std@@QAEAAV01@XZ 0040c9d0 f i DraggingDemo.obj
 0001:0000baa0       ??F?$_Tree_unchecked_const_iterator@V?$_Tree_val@U?$_Tree_simple_types@U?$pair@$$CBV?$basic_string@DU?$char_traits@D@std@@V?$allocator@D@2@@std@@V?$weak_ptr@VRawImageData@@@2@@std@@@std@@@std@@U_Iterator_base12@2@@std@@QAEAAV01@XZ 0040caa0 f i DraggingDemo.obj
 0001:0000bb70       ??R<lambda_2afd52570c452b238925c6f475a76105>@@QBE@PAPAVDisplayableObject@@I@Z 0040cb70 f i DraggingDemo.obj
 0001:0000bba0       ??R<lambda_9366063389c5f42a00a5088cf24e69de>@@QBE@QADIQBD@Z 0040cba0 f i DraggingDemo.obj
 0001:0000bbf0       ??R?$less@V?$basic_string@DU?$char_traits@D@std@@V?$allocator@D@2@@std@@@std@@QBE_NABV?$basic_string@DU?$char_traits@D@std@@V?$allocator@D@2@@1@0@Z 0040cbf0 f i DraggingDemo.obj
 0001:0000bc20       ??_E?$_Ref_count@VRawImageData@@@std@@UAEPAXI@Z 0040cc20 f i DraggingDemo.obj
 0001:0000bc20       ??_G?$_Ref_count@VRawImageData@@@std@@UAEPAXI@Z 0040cc20 f i DraggingDemo.obj
 0001:0000bc60       ??_G?$pair@$$CBV?$basic_string@DU?$char_traits@D@std@@V?$allocator@D@2@@std@@V?$shared_ptr@VRawImageData@@@2@@std@@QAEPAXI@Z 0040cc60 f i DraggingDemo.obj
 0001:0000bca0       ??_G?$pair@$$CBV?$basic_string@DU?$char_traits@D@std@@V?$allocator@D@2@@std@@V?$weak_ptr@VRawImageData@@@2@@std@@QAEPAXI@Z 0040cca0 f i DraggingDemo.obj
 0001:0000bce0       ??_EDragableBaseClassObject@@UAEPAXI@Z 0040cce0 f i DraggingDemo.obj
 0001:0000bce0       ??_GDragableBaseClassObject@@UAEPAXI@Z 0040cce0 f i DraggingDemo.obj
 0001:0000bd20       ??_GDragableImageObject@@UAEPAXI@Z 0040cd20 f i DraggingDemo.obj
 0001:0000bd20       ??_EDragableImageObject@@UAEPAXI@Z 0040cd20 f i DraggingDemo.obj
 0001:0000bd60       ??_GDragableObject@@UAEPAXI@Z 0040cd60 f i DraggingDemo.obj
 0001:0000bd60       ??_EDragableObject@@UAEPAXI@Z 0040cd60 f i DraggingDemo.obj
 0001:0000bda0       ??_GImageObject@@UAEPAXI@Z 0040cda0 f i DraggingDemo.obj
 0001:0000bda0       ??_EImageObject@@UAEPAXI@Z 0040cda0 f i DraggingDemo.obj
 0001:0000bde0       ??_GRawImageData@@QAEPAXI@Z 0040cde0 f i DraggingDemo.obj
 0001:0000be20       ?_Adjust_manually_vector_aligned@std@@YAXAAPAXAAI@Z 0040ce20 f i DraggingDemo.obj
 0001:0000bf70       ?_Adopt@_Iterator_base12@std@@QAEXPBU_Container_base12@2@@Z 0040cf70 f i DraggingDemo.obj
 0001:0000c050       ?_Alloc_proxy@?$_String_alloc@U?$_String_base_types@DV?$allocator@D@std@@@std@@@std@@QAEXXZ 0040d050 f i DraggingDemo.obj
 0001:0000c0f0       ?_Alloc_proxy@?$_Tree_comp_alloc@V?$_Tmap_traits@V?$basic_string@DU?$char_traits@D@std@@V?$allocator@D@2@@std@@V?$shared_ptr@VRawImageData@@@2@U?$less@V?$basic_string@DU?$char_traits@D@std@@V?$allocator@D@2@@std@@@2@V?$allocator@U?$pair@$$CBV?$basic_string@DU?$char_traits@D@std@@V?$allocator@D@2@@std@@V?$shared_ptr@VRawImageData@@@2@@std@@@2@$0A@@std@@@std@@QAEXXZ 0040d0f0 f i DraggingDemo.obj
 0001:0000c190       ?_Alloc_proxy@?$_Tree_comp_alloc@V?$_Tmap_traits@V?$basic_string@DU?$char_traits@D@std@@V?$allocator@D@2@@std@@V?$weak_ptr@VRawImageData@@@2@U?$less@V?$basic_string@DU?$char_traits@D@std@@V?$allocator@D@2@@std@@@2@V?$allocator@U?$pair@$$CBV?$basic_string@DU?$char_traits@D@std@@V?$allocator@D@2@@std@@V?$weak_ptr@VRawImageData@@@2@@std@@@2@$0A@@std@@@std@@QAEXXZ 0040d190 f i DraggingDemo.obj
 0001:0000c230       ?_Allocate@_Default_allocate_traits@std@@SAPAXI@Z 0040d230 f i DraggingDemo.obj
 0001:0000c250       ?_Assign_rv_contents_with_alloc_always_equal@?$basic_string@DU?$char_traits@D@std@@V?$allocator@D@2@@std@@QAEX$$QAV12@U?$integral_constant@_N$00@2@@Z 0040d250 f i DraggingDemo.obj
 0001:0000c330       ?_Buyheadnode@?$_Tree_comp_alloc@V?$_Tmap_traits@V?$basic_string@DU?$char_traits@D@std@@V?$allocator@D@2@@std@@V?$shared_ptr@VRawImageData@@@2@U?$less@V?$basic_string@DU?$char_traits@D@std@@V?$allocator@D@2@@std@@@2@V?$allocator@U?$pair@$$CBV?$basic_string@DU?$char_traits@D@std@@V?$allocator@D@2@@std@@V?$shared_ptr@VRawImageData@@@2@@std@@@2@$0A@@std@@@std@@QAEPAU?$_Tree_node@U?$pair@$$CBV?$basic_string@DU?$char_traits@D@std@@V?$allocator@D@2@@std@@V?$shared_ptr@VRawImageData@@@2@@std@@PAX@2@XZ 0040d330 f i DraggingDemo.obj
 0001:0000c470       ?_Buyheadnode@?$_Tree_comp_alloc@V?$_Tmap_traits@V?$basic_string@DU?$char_traits@D@std@@V?$allocator@D@2@@std@@V?$weak_ptr@VRawImageData@@@2@U?$less@V?$basic_string@DU?$char_traits@D@std@@V?$allocator@D@2@@std@@@2@V?$allocator@U?$pair@$$CBV?$basic_string@DU?$char_traits@D@std@@V?$allocator@D@2@@std@@V?$weak_ptr@VRawImageData@@@2@@std@@@2@$0A@@std@@@std@@QAEPAU?$_Tree_node@U?$pair@$$CBV?$basic_string@DU?$char_traits@D@std@@V?$allocator@D@2@@std@@V?$weak_ptr@VRawImageData@@@2@@std@@PAX@2@XZ 0040d470 f i DraggingDemo.obj
 0001:0000c5b0       ?_Buynode0@?$_Tree_comp_alloc@V?$_Tmap_traits@V?$basic_string@DU?$char_traits@D@std@@V?$allocator@D@2@@std@@V?$shared_ptr@VRawImageData@@@2@U?$less@V?$basic_string@DU?$char_traits@D@std@@V?$allocator@D@2@@std@@@2@V?$allocator@U?$pair@$$CBV?$basic_string@DU?$char_traits@D@std@@V?$allocator@D@2@@std@@V?$shared_ptr@VRawImageData@@@2@@std@@@2@$0A@@std@@@std@@QAEPAU?$_Tree_node@U?$pair@$$CBV?$basic_string@DU?$char_traits@D@std@@V?$allocator@D@2@@std@@V?$shared_ptr@VRawImageData@@@2@@std@@PAX@2@XZ 0040d5b0 f i DraggingDemo.obj
 0001:0000c700       ?_Buynode0@?$_Tree_comp_alloc@V?$_Tmap_traits@V?$basic_string@DU?$char_traits@D@std@@V?$allocator@D@2@@std@@V?$weak_ptr@VRawImageData@@@2@U?$less@V?$basic_string@DU?$char_traits@D@std@@V?$allocator@D@2@@std@@@2@V?$allocator@U?$pair@$$CBV?$basic_string@DU?$char_traits@D@std@@V?$allocator@D@2@@std@@V?$weak_ptr@VRawImageData@@@2@@std@@@2@$0A@@std@@@std@@QAEPAU?$_Tree_node@U?$pair@$$CBV?$basic_string@DU?$char_traits@D@std@@V?$allocator@D@2@@std@@V?$weak_ptr@VRawImageData@@@2@@std@@PAX@2@XZ 0040d700 f i DraggingDemo.obj
 0001:0000c850       ?_Calculate_growth@?$basic_string@DU?$char_traits@D@std@@V?$allocator@D@2@@std@@QBEII@Z 0040d850 f i DraggingDemo.obj
 0001:0000c8f0       ?_Calculate_growth@?$vector@PAVDisplayableObject@@V?$allocator@PAVDisplayableObject@@@std@@@std@@ABEII@Z 0040d8f0 f i DraggingDemo.obj
 0001:0000c960       ?_Change_array@?$vector@PAVDisplayableObject@@V?$allocator@PAVDisplayableObject@@@std@@@std@@AAEXQAPAVDisplayableObject@@II@Z 0040d960 f i DraggingDemo.obj
 0001:0000ca20       ?_Clrcont@_Iterator_base12@std@@QAEXXZ 0040da20 f i DraggingDemo.obj
 0001:0000ca40       ?_Compare@?$_Tree@V?$_Tmap_traits@V?$basic_string@DU?$char_traits@D@std@@V?$allocator@D@2@@std@@V?$weak_ptr@VRawImageData@@@2@U?$less@V?$basic_string@DU?$char_traits@D@std@@V?$allocator@D@2@@std@@@2@V?$allocator@U?$pair@$$CBV?$basic_string@DU?$char_traits@D@std@@V?$allocator@D@2@@std@@V?$weak_ptr@VRawImageData@@@2@@std@@@2@$0A@@std@@@std@@IBE_NABV?$basic_string@DU?$char_traits@D@std@@V?$allocator@D@2@@2@0@Z 0040da40 f i DraggingDemo.obj
 0001:0000ca70       ?_Construct@?$_Tree_comp_alloc@V?$_Tmap_traits@V?$basic_string@DU?$char_traits@D@std@@V?$allocator@D@2@@std@@V?$shared_ptr@VRawImageData@@@2@U?$less@V?$basic_string@DU?$char_traits@D@std@@V?$allocator@D@2@@std@@@2@V?$allocator@U?$pair@$$CBV?$basic_string@DU?$char_traits@D@std@@V?$allocator@D@2@@std@@V?$shared_ptr@VRawImageData@@@2@@std@@@2@$0A@@std@@@std@@QAEXXZ 0040da70 f i DraggingDemo.obj
 0001:0000cb30       ?_Construct@?$_Tree_comp_alloc@V?$_Tmap_traits@V?$basic_string@DU?$char_traits@D@std@@V?$allocator@D@2@@std@@V?$weak_ptr@VRawImageData@@@2@U?$less@V?$basic_string@DU?$char_traits@D@std@@V?$allocator@D@2@@std@@@2@V?$allocator@U?$pair@$$CBV?$basic_string@DU?$char_traits@D@std@@V?$allocator@D@2@@std@@V?$weak_ptr@VRawImageData@@@2@@std@@@2@$0A@@std@@@std@@QAEXXZ 0040db30 f i DraggingDemo.obj
 0001:0000cbf0       ?_Construct_lv_contents@?$basic_string@DU?$char_traits@D@std@@V?$allocator@D@2@@std@@QAEXABV12@@Z 0040dbf0 f i DraggingDemo.obj
 0001:0000cd40       ?_Decref@?$_Ptr_base@VRawImageData@@@std@@IAEXXZ 0040dd40 f i DraggingDemo.obj
 0001:0000cd70       ?_Decref@_Ref_count_base@std@@QAEXXZ 0040dd70 f i DraggingDemo.obj
 0001:0000cdb0       ?_Decwref@?$_Ptr_base@VRawImageData@@@std@@IAEXXZ 0040ddb0 f i DraggingDemo.obj
 0001:0000cde0       ?_Decwref@_Ref_count_base@std@@QAEXXZ 0040dde0 f i DraggingDemo.obj
 0001:0000ce20       ?_Delete_this@?$_Ref_count@VRawImageData@@@std@@EAEXXZ 0040de20 f i DraggingDemo.obj
 0001:0000ce70       ?_Destroy@?$_Ref_count@VRawImageData@@@std@@EAEXXZ 0040de70 f i DraggingDemo.obj
 0001:0000cec0       ?_Destroy@?$vector@PAVDisplayableObject@@V?$allocator@PAVDisplayableObject@@@std@@@std@@AAEXPAPAVDisplayableObject@@0@Z 0040dec0 f i DraggingDemo.obj
 0001:0000cef0       ?_Destroy_if_node@?$_Tree@V?$_Tmap_traits@V?$basic_string@DU?$char_traits@D@std@@V?$allocator@D@2@@std@@V?$shared_ptr@VRawImageData@@@2@U?$less@V?$basic_string@DU?$char_traits@D@std@@V?$allocator@D@2@@std@@@2@V?$allocator@U?$pair@$$CBV?$basic_string@DU?$char_traits@D@std@@V?$allocator@D@2@@std@@V?$shared_ptr@VRawImageData@@@2@@std@@@2@$0A@@std@@@std@@IAEXPAU?$_Tree_node@U?$pair@$$CBV?$basic_string@DU?$char_traits@D@std@@V?$allocator@D@2@@std@@V?$shared_ptr@VRawImageData@@@2@@std@@PAX@2@@Z 0040def0 f i DraggingDemo.obj
 0001:0000cf50       ?_Destroy_if_node@?$_Tree@V?$_Tmap_traits@V?$basic_string@DU?$char_traits@D@std@@V?$allocator@D@2@@std@@V?$weak_ptr@VRawImageData@@@2@U?$less@V?$basic_string@DU?$char_traits@D@std@@V?$allocator@D@2@@std@@@2@V?$allocator@U?$pair@$$CBV?$basic_string@DU?$char_traits@D@std@@V?$allocator@D@2@@std@@V?$weak_ptr@VRawImageData@@@2@@std@@@2@$0A@@std@@@std@@IAEXPAU?$_Tree_node@U?$pair@$$CBV?$basic_string@DU?$char_traits@D@std@@V?$allocator@D@2@@std@@V?$weak_ptr@VRawImageData@@@2@@std@@PAX@2@@Z 0040df50 f i DraggingDemo.obj
 0001:0000cfb0       ?_Erase@?$_Tree@V?$_Tmap_traits@V?$basic_string@DU?$char_traits@D@std@@V?$allocator@D@2@@std@@V?$shared_ptr@VRawImageData@@@2@U?$less@V?$basic_string@DU?$char_traits@D@std@@V?$allocator@D@2@@std@@@2@V?$allocator@U?$pair@$$CBV?$basic_string@DU?$char_traits@D@std@@V?$allocator@D@2@@std@@V?$shared_ptr@VRawImageData@@@2@@std@@@2@$0A@@std@@@std@@IAEXPAU?$_Tree_node@U?$pair@$$CBV?$basic_string@DU?$char_traits@D@std@@V?$allocator@D@2@@std@@V?$shared_ptr@VRawImageData@@@2@@std@@PAX@2@@Z 0040dfb0 f i DraggingDemo.obj
 0001:0000d050       ?_Erase@?$_Tree@V?$_Tmap_traits@V?$basic_string@DU?$char_traits@D@std@@V?$allocator@D@2@@std@@V?$weak_ptr@VRawImageData@@@2@U?$less@V?$basic_string@DU?$char_traits@D@std@@V?$allocator@D@2@@std@@@2@V?$allocator@U?$pair@$$CBV?$basic_string@DU?$char_traits@D@std@@V?$allocator@D@2@@std@@V?$weak_ptr@VRawImageData@@@2@@std@@@2@$0A@@std@@@std@@IAEXPAU?$_Tree_node@U?$pair@$$CBV?$basic_string@DU?$char_traits@D@std@@V?$allocator@D@2@@std@@V?$weak_ptr@VRawImageData@@@2@@std@@PAX@2@@Z 0040e050 f i DraggingDemo.obj
 0001:0000d0f0       ?_Extract@?$_Tree_val@U?$_Tree_simple_types@U?$pair@$$CBV?$basic_string@DU?$char_traits@D@std@@V?$allocator@D@2@@std@@V?$shared_ptr@VRawImageData@@@2@@std@@@std@@@std@@QAEPAU?$_Tree_node@U?$pair@$$CBV?$basic_string@DU?$char_traits@D@std@@V?$allocator@D@2@@std@@V?$shared_ptr@VRawImageData@@@2@@std@@PAX@2@V?$_Tree_const_iterator@V?$_Tree_val@U?$_Tree_simple_types@U?$pair@$$CBV?$basic_string@DU?$char_traits@D@std@@V?$allocator@D@2@@std@@V?$shared_ptr@VRawImageData@@@2@@std@@@std@@@std@@@2@@Z 0040e0f0 f i DraggingDemo.obj
 0001:0000d710       ?_Extract@?$_Tree_val@U?$_Tree_simple_types@U?$pair@$$CBV?$basic_string@DU?$char_traits@D@std@@V?$allocator@D@2@@std@@V?$weak_ptr@VRawImageData@@@2@@std@@@std@@@std@@QAEPAU?$_Tree_node@U?$pair@$$CBV?$basic_string@DU?$char_traits@D@std@@V?$allocator@D@2@@std@@V?$weak_ptr@VRawImageData@@@2@@std@@PAX@2@V?$_Tree_const_iterator@V?$_Tree_val@U?$_Tree_simple_types@U?$pair@$$CBV?$basic_string@DU?$char_traits@D@std@@V?$allocator@D@2@@std@@V?$weak_ptr@VRawImageData@@@2@@std@@@std@@@std@@@2@@Z 0040e710 f i DraggingDemo.obj
 0001:0000dd30       ?_Free_proxy@?$_String_alloc@U?$_String_base_types@DV?$allocator@D@std@@@std@@@std@@QAEXXZ 0040ed30 f i DraggingDemo.obj
 0001:0000ddb0       ?_Free_proxy@?$_Tree_comp_alloc@V?$_Tmap_traits@V?$basic_string@DU?$char_traits@D@std@@V?$allocator@D@2@@std@@V?$shared_ptr@VRawImageData@@@2@U?$less@V?$basic_string@DU?$char_traits@D@std@@V?$allocator@D@2@@std@@@2@V?$allocator@U?$pair@$$CBV?$basic_string@DU?$char_traits@D@std@@V?$allocator@D@2@@std@@V?$shared_ptr@VRawImageData@@@2@@std@@@2@$0A@@std@@@std@@QAEXXZ 0040edb0 f i DraggingDemo.obj
 0001:0000de30       ?_Free_proxy@?$_Tree_comp_alloc@V?$_Tmap_traits@V?$basic_string@DU?$char_traits@D@std@@V?$allocator@D@2@@std@@V?$weak_ptr@VRawImageData@@@2@U?$less@V?$basic_string@DU?$char_traits@D@std@@V?$allocator@D@2@@std@@@2@V?$allocator@U?$pair@$$CBV?$basic_string@DU?$char_traits@D@std@@V?$allocator@D@2@@std@@V?$weak_ptr@VRawImageData@@@2@@std@@@2@$0A@@std@@@std@@QAEXXZ 0040ee30 f i DraggingDemo.obj
 0001:0000deb0       ?_Freeheadnode@?$_Tree_comp_alloc@V?$_Tmap_traits@V?$basic_string@DU?$char_traits@D@std@@V?$allocator@D@2@@std@@V?$shared_ptr@VRawImageData@@@2@U?$less@V?$basic_string@DU?$char_traits@D@std@@V?$allocator@D@2@@std@@@2@V?$allocator@U?$pair@$$CBV?$basic_string@DU?$char_traits@D@std@@V?$allocator@D@2@@std@@V?$shared_ptr@VRawImageData@@@2@@std@@@2@$0A@@std@@@std@@QAEXPAU?$_Tree_node@U?$pair@$$CBV?$basic_string@DU?$char_traits@D@std@@V?$allocator@D@2@@std@@V?$shared_ptr@VRawImageData@@@2@@std@@PAX@2@@Z 0040eeb0 f i DraggingDemo.obj
 0001:0000dee0       ?_Freeheadnode@?$_Tree_comp_alloc@V?$_Tmap_traits@V?$basic_string@DU?$char_traits@D@std@@V?$allocator@D@2@@std@@V?$weak_ptr@VRawImageData@@@2@U?$less@V?$basic_string@DU?$char_traits@D@std@@V?$allocator@D@2@@std@@@2@V?$allocator@U?$pair@$$CBV?$basic_string@DU?$char_traits@D@std@@V?$allocator@D@2@@std@@V?$weak_ptr@VRawImageData@@@2@@std@@@2@$0A@@std@@@std@@QAEXPAU?$_Tree_node@U?$pair@$$CBV?$basic_string@DU?$char_traits@D@std@@V?$allocator@D@2@@std@@V?$weak_ptr@VRawImageData@@@2@@std@@PAX@2@@Z 0040eee0 f i DraggingDemo.obj
 0001:0000df10       ?_Freenode0@?$_Tree_comp_alloc@V?$_Tmap_traits@V?$basic_string@DU?$char_traits@D@std@@V?$allocator@D@2@@std@@V?$shared_ptr@VRawImageData@@@2@U?$less@V?$basic_string@DU?$char_traits@D@std@@V?$allocator@D@2@@std@@@2@V?$allocator@U?$pair@$$CBV?$basic_string@DU?$char_traits@D@std@@V?$allocator@D@2@@std@@V?$shared_ptr@VRawImageData@@@2@@std@@@2@$0A@@std@@@std@@QAEXPAU?$_Tree_node@U?$pair@$$CBV?$basic_string@DU?$char_traits@D@std@@V?$allocator@D@2@@std@@V?$shared_ptr@VRawImageData@@@2@@std@@PAX@2@@Z 0040ef10 f i DraggingDemo.obj
 0001:0000df40       ?_Freenode0@?$_Tree_comp_alloc@V?$_Tmap_traits@V?$basic_string@DU?$char_traits@D@std@@V?$allocator@D@2@@std@@V?$weak_ptr@VRawImageData@@@2@U?$less@V?$basic_string@DU?$char_traits@D@std@@V?$allocator@D@2@@std@@@2@V?$allocator@U?$pair@$$CBV?$basic_string@DU?$char_traits@D@std@@V?$allocator@D@2@@std@@V?$weak_ptr@VRawImageData@@@2@@std@@@2@$0A@@std@@@std@@QAEXPAU?$_Tree_node@U?$pair@$$CBV?$basic_string@DU?$char_traits@D@std@@V?$allocator@D@2@@std@@V?$weak_ptr@VRawImageData@@@2@@std@@PAX@2@@Z 0040ef40 f i DraggingDemo.obj
 0001:0000df70       ?_Get_atomic_count@std@@YAKABK@Z 0040ef70 f i DraggingDemo.obj
 0001:0000df80       ?_Get_data@?$_String_alloc@U?$_String_base_types@DV?$allocator@D@std@@@std@@@std@@QAEAAV?$_String_val@U?$_Simple_types@D@std@@@2@XZ 0040ef80 f i DraggingDemo.obj
 0001:0000dfa0       ?_Get_data@?$_String_alloc@U?$_String_base_types@DV?$allocator@D@std@@@std@@@std@@QBEABV?$_String_val@U?$_Simple_types@D@std@@@2@XZ 0040efa0 f i DraggingDemo.obj
 0001:0000dfc0       ?_Get_data@?$_Tree_comp_alloc@V?$_Tmap_traits@V?$basic_string@DU?$char_traits@D@std@@V?$allocator@D@2@@std@@V?$shared_ptr@VRawImageData@@@2@U?$less@V?$basic_string@DU?$char_traits@D@std@@V?$allocator@D@2@@std@@@2@V?$allocator@U?$pair@$$CBV?$basic_string@DU?$char_traits@D@std@@V?$allocator@D@2@@std@@V?$shared_ptr@VRawImageData@@@2@@std@@@2@$0A@@std@@@std@@QAEAAV?$_Tree_val@U?$_Tree_simple_types@U?$pair@$$CBV?$basic_string@DU?$char_traits@D@std@@V?$allocator@D@2@@std@@V?$shared_ptr@VRawImageData@@@2@@std@@@std@@@2@XZ 0040efc0 f i DraggingDemo.obj
 0001:0000dfe0       ?_Get_data@?$_Tree_comp_alloc@V?$_Tmap_traits@V?$basic_string@DU?$char_traits@D@std@@V?$allocator@D@2@@std@@V?$shared_ptr@VRawImageData@@@2@U?$less@V?$basic_string@DU?$char_traits@D@std@@V?$allocator@D@2@@std@@@2@V?$allocator@U?$pair@$$CBV?$basic_string@DU?$char_traits@D@std@@V?$allocator@D@2@@std@@V?$shared_ptr@VRawImageData@@@2@@std@@@2@$0A@@std@@@std@@QBEABV?$_Tree_val@U?$_Tree_simple_types@U?$pair@$$CBV?$basic_string@DU?$char_traits@D@std@@V?$allocator@D@2@@std@@V?$shared_ptr@VRawImageData@@@2@@std@@@std@@@2@XZ 0040efe0 f i DraggingDemo.obj
 0001:0000e000       ?_Get_data@?$_Tree_comp_alloc@V?$_Tmap_traits@V?$basic_string@DU?$char_traits@D@std@@V?$allocator@D@2@@std@@V?$weak_ptr@VRawImageData@@@2@U?$less@V?$basic_string@DU?$char_traits@D@std@@V?$allocator@D@2@@std@@@2@V?$allocator@U?$pair@$$CBV?$basic_string@DU?$char_traits@D@std@@V?$allocator@D@2@@std@@V?$weak_ptr@VRawImageData@@@2@@std@@@2@$0A@@std@@@std@@QAEAAV?$_Tree_val@U?$_Tree_simple_types@U?$pair@$$CBV?$basic_string@DU?$char_traits@D@std@@V?$allocator@D@2@@std@@V?$weak_ptr@VRawImageData@@@2@@std@@@std@@@2@XZ 0040f000 f i DraggingDemo.obj
 0001:0000e020       ?_Get_data@?$_Tree_comp_alloc@V?$_Tmap_traits@V?$basic_string@DU?$char_traits@D@std@@V?$allocator@D@2@@std@@V?$weak_ptr@VRawImageData@@@2@U?$less@V?$basic_string@DU?$char_traits@D@std@@V?$allocator@D@2@@std@@@2@V?$allocator@U?$pair@$$CBV?$basic_string@DU?$char_traits@D@std@@V?$allocator@D@2@@std@@V?$weak_ptr@VRawImageData@@@2@@std@@@2@$0A@@std@@@std@@QBEABV?$_Tree_val@U?$_Tree_simple_types@U?$pair@$$CBV?$basic_string@DU?$char_traits@D@std@@V?$allocator@D@2@@std@@V?$weak_ptr@VRawImageData@@@2@@std@@@std@@@2@XZ 0040f020 f i DraggingDemo.obj
 0001:0000e040       ?_Get_data@?$_Vector_alloc@U?$_Vec_base_types@PAVDisplayableObject@@V?$allocator@PAVDisplayableObject@@@std@@@std@@@std@@QAEAAV?$_Vector_val@U?$_Simple_types@PAVDisplayableObject@@@std@@@2@XZ 0040f040 f i DraggingDemo.obj
 0001:0000e060       ?_Get_data@?$_Vector_alloc@U?$_Vec_base_types@PAVDisplayableObject@@V?$allocator@PAVDisplayableObject@@@std@@@std@@@std@@QBEABV?$_Vector_val@U?$_Simple_types@PAVDisplayableObject@@@std@@@2@XZ 0040f060 f i DraggingDemo.obj
 0001:0000e080       ?_Get_deleter@_Ref_count_base@std@@UBEPAXABVtype_info@@@Z 0040f080 f i DraggingDemo.obj
 0001:0000e0a0       ?_Get_first@?$_Compressed_pair@U?$less@V?$basic_string@DU?$char_traits@D@std@@V?$allocator@D@2@@std@@@std@@V?$_Compressed_pair@V?$allocator@U?$_Tree_node@U?$pair@$$CBV?$basic_string@DU?$char_traits@D@std@@V?$allocator@D@2@@std@@V?$shared_ptr@VRawImageData@@@2@@std@@PAX@std@@@std@@V?$_Tree_val@U?$_Tree_simple_types@U?$pair@$$CBV?$basic_string@DU?$char_traits@D@std@@V?$allocator@D@2@@std@@V?$shared_ptr@VRawImageData@@@2@@std@@@std@@@2@$00@2@$00@std@@QAEAAU?$less@V?$basic_string@DU?$char_traits@D@std@@V?$allocator@D@2@@std@@@2@XZ 0040f0a0 f i DraggingDemo.obj
 0001:0000e0c0       ?_Get_first@?$_Compressed_pair@U?$less@V?$basic_string@DU?$char_traits@D@std@@V?$allocator@D@2@@std@@@std@@V?$_Compressed_pair@V?$allocator@U?$_Tree_node@U?$pair@$$CBV?$basic_string@DU?$char_traits@D@std@@V?$allocator@D@2@@std@@V?$weak_ptr@VRawImageData@@@2@@std@@PAX@std@@@std@@V?$_Tree_val@U?$_Tree_simple_types@U?$pair@$$CBV?$basic_string@DU?$char_traits@D@std@@V?$allocator@D@2@@std@@V?$weak_ptr@VRawImageData@@@2@@std@@@std@@@2@$00@2@$00@std@@QAEAAU?$less@V?$basic_string@DU?$char_traits@D@std@@V?$allocator@D@2@@std@@@2@XZ 0040f0c0 f i DraggingDemo.obj
 0001:0000e0e0       ?_Get_first@?$_Compressed_pair@U?$less@V?$basic_string@DU?$char_traits@D@std@@V?$allocator@D@2@@std@@@std@@V?$_Compressed_pair@V?$allocator@U?$_Tree_node@U?$pair@$$CBV?$basic_string@DU?$char_traits@D@std@@V?$allocator@D@2@@std@@V?$weak_ptr@VRawImageData@@@2@@std@@PAX@std@@@std@@V?$_Tree_val@U?$_Tree_simple_types@U?$pair@$$CBV?$basic_string@DU?$char_traits@D@std@@V?$allocator@D@2@@std@@V?$weak_ptr@VRawImageData@@@2@@std@@@std@@@2@$00@2@$00@std@@QBEABU?$less@V?$basic_string@DU?$char_traits@D@std@@V?$allocator@D@2@@std@@@2@XZ 0040f0e0 f i DraggingDemo.obj
 0001:0000e100       ?_Get_first@?$_Compressed_pair@V?$allocator@D@std@@V?$_String_val@U?$_Simple_types@D@std@@@2@$00@std@@QAEAAV?$allocator@D@2@XZ 0040f100 f i DraggingDemo.obj
 0001:0000e120       ?_Get_first@?$_Compressed_pair@V?$allocator@D@std@@V?$_String_val@U?$_Simple_types@D@std@@@2@$00@std@@QBEABV?$allocator@D@2@XZ 0040f120 f i DraggingDemo.obj
 0001:0000e140       ?_Get_first@?$_Compressed_pair@V?$allocator@PAVDisplayableObject@@@std@@V?$_Vector_val@U?$_Simple_types@PAVDisplayableObject@@@std@@@2@$00@std@@QAEAAV?$allocator@PAVDisplayableObject@@@2@XZ 0040f140 f i DraggingDemo.obj
 0001:0000e160       ?_Get_first@?$_Compressed_pair@V?$allocator@PAVDisplayableObject@@@std@@V?$_Vector_val@U?$_Simple_types@PAVDisplayableObject@@@std@@@2@$00@std@@QBEABV?$allocator@PAVDisplayableObject@@@2@XZ 0040f160 f i DraggingDemo.obj
 0001:0000e180       ?_Get_first@?$_Compressed_pair@V?$allocator@U?$_Tree_node@U?$pair@$$CBV?$basic_string@DU?$char_traits@D@std@@V?$allocator@D@2@@std@@V?$shared_ptr@VRawImageData@@@2@@std@@PAX@std@@@std@@V?$_Tree_val@U?$_Tree_simple_types@U?$pair@$$CBV?$basic_string@DU?$char_traits@D@std@@V?$allocator@D@2@@std@@V?$shared_ptr@VRawImageData@@@2@@std@@@std@@@2@$00@std@@QAEAAV?$allocator@U?$_Tree_node@U?$pair@$$CBV?$basic_string@DU?$char_traits@D@std@@V?$allocator@D@2@@std@@V?$shared_ptr@VRawImageData@@@2@@std@@PAX@std@@@2@XZ 0040f180 f i DraggingDemo.obj
 0001:0000e1a0       ?_Get_first@?$_Compressed_pair@V?$allocator@U?$_Tree_node@U?$pair@$$CBV?$basic_string@DU?$char_traits@D@std@@V?$allocator@D@2@@std@@V?$shared_ptr@VRawImageData@@@2@@std@@PAX@std@@@std@@V?$_Tree_val@U?$_Tree_simple_types@U?$pair@$$CBV?$basic_string@DU?$char_traits@D@std@@V?$allocator@D@2@@std@@V?$shared_ptr@VRawImageData@@@2@@std@@@std@@@2@$00@std@@QBEABV?$allocator@U?$_Tree_node@U?$pair@$$CBV?$basic_string@DU?$char_traits@D@std@@V?$allocator@D@2@@std@@V?$shared_ptr@VRawImageData@@@2@@std@@PAX@std@@@2@XZ 0040f1a0 f i DraggingDemo.obj
 0001:0000e1c0       ?_Get_first@?$_Compressed_pair@V?$allocator@U?$_Tree_node@U?$pair@$$CBV?$basic_string@DU?$char_traits@D@std@@V?$allocator@D@2@@std@@V?$weak_ptr@VRawImageData@@@2@@std@@PAX@std@@@std@@V?$_Tree_val@U?$_Tree_simple_types@U?$pair@$$CBV?$basic_string@DU?$char_traits@D@std@@V?$allocator@D@2@@std@@V?$weak_ptr@VRawImageData@@@2@@std@@@std@@@2@$00@std@@QAEAAV?$allocator@U?$_Tree_node@U?$pair@$$CBV?$basic_string@DU?$char_traits@D@std@@V?$allocator@D@2@@std@@V?$weak_ptr@VRawImageData@@@2@@std@@PAX@std@@@2@XZ 0040f1c0 f i DraggingDemo.obj
 0001:0000e1e0       ?_Get_first@?$_Compressed_pair@V?$allocator@U?$_Tree_node@U?$pair@$$CBV?$basic_string@DU?$char_traits@D@std@@V?$allocator@D@2@@std@@V?$weak_ptr@VRawImageData@@@2@@std@@PAX@std@@@std@@V?$_Tree_val@U?$_Tree_simple_types@U?$pair@$$CBV?$basic_string@DU?$char_traits@D@std@@V?$allocator@D@2@@std@@V?$weak_ptr@VRawImageData@@@2@@std@@@std@@@2@$00@std@@QBEABV?$allocator@U?$_Tree_node@U?$pair@$$CBV?$basic_string@DU?$char_traits@D@std@@V?$allocator@D@2@@std@@V?$weak_ptr@VRawImageData@@@2@@std@@PAX@std@@@2@XZ 0040f1e0 f i DraggingDemo.obj
 0001:0000e200       ?_Get_second@?$_Compressed_pair@U?$less@V?$basic_string@DU?$char_traits@D@std@@V?$allocator@D@2@@std@@@std@@V?$_Compressed_pair@V?$allocator@U?$_Tree_node@U?$pair@$$CBV?$basic_string@DU?$char_traits@D@std@@V?$allocator@D@2@@std@@V?$shared_ptr@VRawImageData@@@2@@std@@PAX@std@@@std@@V?$_Tree_val@U?$_Tree_simple_types@U?$pair@$$CBV?$basic_string@DU?$char_traits@D@std@@V?$allocator@D@2@@std@@V?$shared_ptr@VRawImageData@@@2@@std@@@std@@@2@$00@2@$00@std@@QAEAAV?$_Compressed_pair@V?$allocator@U?$_Tree_node@U?$pair@$$CBV?$basic_string@DU?$char_traits@D@std@@V?$allocator@D@2@@std@@V?$shared_ptr@VRawImageData@@@2@@std@@PAX@std@@@std@@V?$_Tree_val@U?$_Tree_simple_types@U?$pair@$$CBV?$basic_string@DU?$char_traits@D@std@@V?$allocator@D@2@@std@@V?$shared_ptr@VRawImageData@@@2@@std@@@std@@@2@$00@2@XZ 0040f200 f i DraggingDemo.obj
 0001:0000e220       ?_Get_second@?$_Compressed_pair@U?$less@V?$basic_string@DU?$char_traits@D@std@@V?$allocator@D@2@@std@@@std@@V?$_Compressed_pair@V?$allocator@U?$_Tree_node@U?$pair@$$CBV?$basic_string@DU?$char_traits@D@std@@V?$allocator@D@2@@std@@V?$shared_ptr@VRawImageData@@@2@@std@@PAX@std@@@std@@V?$_Tree_val@U?$_Tree_simple_types@U?$pair@$$CBV?$basic_string@DU?$char_traits@D@std@@V?$allocator@D@2@@std@@V?$shared_ptr@VRawImageData@@@2@@std@@@std@@@2@$00@2@$00@std@@QBEABV?$_Compressed_pair@V?$allocator@U?$_Tree_node@U?$pair@$$CBV?$basic_string@DU?$char_traits@D@std@@V?$allocator@D@2@@std@@V?$shared_ptr@VRawImageData@@@2@@std@@PAX@std@@@std@@V?$_Tree_val@U?$_Tree_simple_types@U?$pair@$$CBV?$basic_string@DU?$char_traits@D@std@@V?$allocator@D@2@@std@@V?$shared_ptr@VRawImageData@@@2@@std@@@std@@@2@$00@2@XZ 0040f220 f i DraggingDemo.obj
 0001:0000e240       ?_Get_second@?$_Compressed_pair@U?$less@V?$basic_string@DU?$char_traits@D@std@@V?$allocator@D@2@@std@@@std@@V?$_Compressed_pair@V?$allocator@U?$_Tree_node@U?$pair@$$CBV?$basic_string@DU?$char_traits@D@std@@V?$allocator@D@2@@std@@V?$weak_ptr@VRawImageData@@@2@@std@@PAX@std@@@std@@V?$_Tree_val@U?$_Tree_simple_types@U?$pair@$$CBV?$basic_string@DU?$char_traits@D@std@@V?$allocator@D@2@@std@@V?$weak_ptr@VRawImageData@@@2@@std@@@std@@@2@$00@2@$00@std@@QAEAAV?$_Compressed_pair@V?$allocator@U?$_Tree_node@U?$pair@$$CBV?$basic_string@DU?$char_traits@D@std@@V?$allocator@D@2@@std@@V?$weak_ptr@VRawImageData@@@2@@std@@PAX@std@@@std@@V?$_Tree_val@U?$_Tree_simple_types@U?$pair@$$CBV?$basic_string@DU?$char_traits@D@std@@V?$allocator@D@2@@std@@V?$weak_ptr@VRawImageData@@@2@@std@@@std@@@2@$00@2@XZ 0040f240 f i DraggingDemo.obj
 0001:0000e260       ?_Get_second@?$_Compressed_pair@U?$less@V?$basic_string@DU?$char_traits@D@std@@V?$allocator@D@2@@std@@@std@@V?$_Compressed_pair@V?$allocator@U?$_Tree_node@U?$pair@$$CBV?$basic_string@DU?$char_traits@D@std@@V?$allocator@D@2@@std@@V?$weak_ptr@VRawImageData@@@2@@std@@PAX@std@@@std@@V?$_Tree_val@U?$_Tree_simple_types@U?$pair@$$CBV?$basic_string@DU?$char_traits@D@std@@V?$allocator@D@2@@std@@V?$weak_ptr@VRawImageData@@@2@@std@@@std@@@2@$00@2@$00@std@@QBEABV?$_Compressed_pair@V?$allocator@U?$_Tree_node@U?$pair@$$CBV?$basic_string@DU?$char_traits@D@std@@V?$allocator@D@2@@std@@V?$weak_ptr@VRawImageData@@@2@@std@@PAX@std@@@std@@V?$_Tree_val@U?$_Tree_simple_types@U?$pair@$$CBV?$basic_string@DU?$char_traits@D@std@@V?$allocator@D@2@@std@@V?$weak_ptr@VRawImageData@@@2@@std@@@std@@@2@$00@2@XZ 0040f260 f i DraggingDemo.obj
 0001:0000e280       ?_Get_second@?$_Compressed_pair@V?$allocator@D@std@@V?$_String_val@U?$_Simple_types@D@std@@@2@$00@std@@QAEAAV?$_String_val@U?$_Simple_types@D@std@@@2@XZ 0040f280 f i DraggingDemo.obj
 0001:0000e2a0       ?_Get_second@?$_Compressed_pair@V?$allocator@D@std@@V?$_String_val@U?$_Simple_types@D@std@@@2@$00@std@@QBEABV?$_String_val@U?$_Simple_types@D@std@@@2@XZ 0040f2a0 f i DraggingDemo.obj
 0001:0000e2c0       ?_Get_second@?$_Compressed_pair@V?$allocator@PAVDisplayableObject@@@std@@V?$_Vector_val@U?$_Simple_types@PAVDisplayableObject@@@std@@@2@$00@std@@QAEAAV?$_Vector_val@U?$_Simple_types@PAVDisplayableObject@@@std@@@2@XZ 0040f2c0 f i DraggingDemo.obj
 0001:0000e2e0       ?_Get_second@?$_Compressed_pair@V?$allocator@PAVDisplayableObject@@@std@@V?$_Vector_val@U?$_Simple_types@PAVDisplayableObject@@@std@@@2@$00@std@@QBEABV?$_Vector_val@U?$_Simple_types@PAVDisplayableObject@@@std@@@2@XZ 0040f2e0 f i DraggingDemo.obj
 0001:0000e300       ?_Get_second@?$_Compressed_pair@V?$allocator@U?$_Tree_node@U?$pair@$$CBV?$basic_string@DU?$char_traits@D@std@@V?$allocator@D@2@@std@@V?$shared_ptr@VRawImageData@@@2@@std@@PAX@std@@@std@@V?$_Tree_val@U?$_Tree_simple_types@U?$pair@$$CBV?$basic_string@DU?$char_traits@D@std@@V?$allocator@D@2@@std@@V?$shared_ptr@VRawImageData@@@2@@std@@@std@@@2@$00@std@@QAEAAV?$_Tree_val@U?$_Tree_simple_types@U?$pair@$$CBV?$basic_string@DU?$char_traits@D@std@@V?$allocator@D@2@@std@@V?$shared_ptr@VRawImageData@@@2@@std@@@std@@@2@XZ 0040f300 f i DraggingDemo.obj
 0001:0000e320       ?_Get_second@?$_Compressed_pair@V?$allocator@U?$_Tree_node@U?$pair@$$CBV?$basic_string@DU?$char_traits@D@std@@V?$allocator@D@2@@std@@V?$shared_ptr@VRawImageData@@@2@@std@@PAX@std@@@std@@V?$_Tree_val@U?$_Tree_simple_types@U?$pair@$$CBV?$basic_string@DU?$char_traits@D@std@@V?$allocator@D@2@@std@@V?$shared_ptr@VRawImageData@@@2@@std@@@std@@@2@$00@std@@QBEABV?$_Tree_val@U?$_Tree_simple_types@U?$pair@$$CBV?$basic_string@DU?$char_traits@D@std@@V?$allocator@D@2@@std@@V?$shared_ptr@VRawImageData@@@2@@std@@@std@@@2@XZ 0040f320 f i DraggingDemo.obj
 0001:0000e340       ?_Get_second@?$_Compressed_pair@V?$allocator@U?$_Tree_node@U?$pair@$$CBV?$basic_string@DU?$char_traits@D@std@@V?$allocator@D@2@@std@@V?$weak_ptr@VRawImageData@@@2@@std@@PAX@std@@@std@@V?$_Tree_val@U?$_Tree_simple_types@U?$pair@$$CBV?$basic_string@DU?$char_traits@D@std@@V?$allocator@D@2@@std@@V?$weak_ptr@VRawImageData@@@2@@std@@@std@@@2@$00@std@@QAEAAV?$_Tree_val@U?$_Tree_simple_types@U?$pair@$$CBV?$basic_string@DU?$char_traits@D@std@@V?$allocator@D@2@@std@@V?$weak_ptr@VRawImageData@@@2@@std@@@std@@@2@XZ 0040f340 f i DraggingDemo.obj
 0001:0000e360       ?_Get_second@?$_Compressed_pair@V?$allocator@U?$_Tree_node@U?$pair@$$CBV?$basic_string@DU?$char_traits@D@std@@V?$allocator@D@2@@std@@V?$weak_ptr@VRawImageData@@@2@@std@@PAX@std@@@std@@V?$_Tree_val@U?$_Tree_simple_types@U?$pair@$$CBV?$basic_string@DU?$char_traits@D@std@@V?$allocator@D@2@@std@@V?$weak_ptr@VRawImageData@@@2@@std@@@std@@@2@$00@std@@QBEABV?$_Tree_val@U?$_Tree_simple_types@U?$pair@$$CBV?$basic_string@DU?$char_traits@D@std@@V?$allocator@D@2@@std@@V?$weak_ptr@VRawImageData@@@2@@std@@@std@@@2@XZ 0040f360 f i DraggingDemo.obj
 0001:0000e380       ?_Getal@?$_String_alloc@U?$_String_base_types@DV?$allocator@D@std@@@std@@@std@@QAEAAV?$allocator@D@2@XZ 0040f380 f i DraggingDemo.obj
 0001:0000e3a0       ?_Getal@?$_String_alloc@U?$_String_base_types@DV?$allocator@D@std@@@std@@@std@@QBEABV?$allocator@D@2@XZ 0040f3a0 f i DraggingDemo.obj
 0001:0000e3c0       ?_Getal@?$_Tree_comp_alloc@V?$_Tmap_traits@V?$basic_string@DU?$char_traits@D@std@@V?$allocator@D@2@@std@@V?$shared_ptr@VRawImageData@@@2@U?$less@V?$basic_string@DU?$char_traits@D@std@@V?$allocator@D@2@@std@@@2@V?$allocator@U?$pair@$$CBV?$basic_string@DU?$char_traits@D@std@@V?$allocator@D@2@@std@@V?$shared_ptr@VRawImageData@@@2@@std@@@2@$0A@@std@@@std@@QAEAAV?$allocator@U?$_Tree_node@U?$pair@$$CBV?$basic_string@DU?$char_traits@D@std@@V?$allocator@D@2@@std@@V?$shared_ptr@VRawImageData@@@2@@std@@PAX@std@@@2@XZ 0040f3c0 f i DraggingDemo.obj
 0001:0000e3e0       ?_Getal@?$_Tree_comp_alloc@V?$_Tmap_traits@V?$basic_string@DU?$char_traits@D@std@@V?$allocator@D@2@@std@@V?$shared_ptr@VRawImageData@@@2@U?$less@V?$basic_string@DU?$char_traits@D@std@@V?$allocator@D@2@@std@@@2@V?$allocator@U?$pair@$$CBV?$basic_string@DU?$char_traits@D@std@@V?$allocator@D@2@@std@@V?$shared_ptr@VRawImageData@@@2@@std@@@2@$0A@@std@@@std@@QBEABV?$allocator@U?$_Tree_node@U?$pair@$$CBV?$basic_string@DU?$char_traits@D@std@@V?$allocator@D@2@@std@@V?$shared_ptr@VRawImageData@@@2@@std@@PAX@std@@@2@XZ 0040f3e0 f i DraggingDemo.obj
 0001:0000e400       ?_Getal@?$_Tree_comp_alloc@V?$_Tmap_traits@V?$basic_string@DU?$char_traits@D@std@@V?$allocator@D@2@@std@@V?$weak_ptr@VRawImageData@@@2@U?$less@V?$basic_string@DU?$char_traits@D@std@@V?$allocator@D@2@@std@@@2@V?$allocator@U?$pair@$$CBV?$basic_string@DU?$char_traits@D@std@@V?$allocator@D@2@@std@@V?$weak_ptr@VRawImageData@@@2@@std@@@2@$0A@@std@@@std@@QAEAAV?$allocator@U?$_Tree_node@U?$pair@$$CBV?$basic_string@DU?$char_traits@D@std@@V?$allocator@D@2@@std@@V?$weak_ptr@VRawImageData@@@2@@std@@PAX@std@@@2@XZ 0040f400 f i DraggingDemo.obj
 0001:0000e420       ?_Getal@?$_Tree_comp_alloc@V?$_Tmap_traits@V?$basic_string@DU?$char_traits@D@std@@V?$allocator@D@2@@std@@V?$weak_ptr@VRawImageData@@@2@U?$less@V?$basic_string@DU?$char_traits@D@std@@V?$allocator@D@2@@std@@@2@V?$allocator@U?$pair@$$CBV?$basic_string@DU?$char_traits@D@std@@V?$allocator@D@2@@std@@V?$weak_ptr@VRawImageData@@@2@@std@@@2@$0A@@std@@@std@@QBEABV?$allocator@U?$_Tree_node@U?$pair@$$CBV?$basic_string@DU?$char_traits@D@std@@V?$allocator@D@2@@std@@V?$weak_ptr@VRawImageData@@@2@@std@@PAX@std@@@2@XZ 0040f420 f i DraggingDemo.obj
 0001:0000e440       ?_Getal@?$_Vector_alloc@U?$_Vec_base_types@PAVDisplayableObject@@V?$allocator@PAVDisplayableObject@@@std@@@std@@@std@@QAEAAV?$allocator@PAVDisplayableObject@@@2@XZ 0040f440 f i DraggingDemo.obj
 0001:0000e460       ?_Getal@?$_Vector_alloc@U?$_Vec_base_types@PAVDisplayableObject@@V?$allocator@PAVDisplayableObject@@@std@@@std@@@std@@QBEABV?$allocator@PAVDisplayableObject@@@2@XZ 0040f460 f i DraggingDemo.obj
 0001:0000e480       ?_Getcomp@?$_Tree_comp_alloc@V?$_Tmap_traits@V?$basic_string@DU?$char_traits@D@std@@V?$allocator@D@2@@std@@V?$shared_ptr@VRawImageData@@@2@U?$less@V?$basic_string@DU?$char_traits@D@std@@V?$allocator@D@2@@std@@@2@V?$allocator@U?$pair@$$CBV?$basic_string@DU?$char_traits@D@std@@V?$allocator@D@2@@std@@V?$shared_ptr@VRawImageData@@@2@@std@@@2@$0A@@std@@@std@@QAEAAU?$less@V?$basic_string@DU?$char_traits@D@std@@V?$allocator@D@2@@std@@@2@XZ 0040f480 f i DraggingDemo.obj
 0001:0000e4a0       ?_Getcomp@?$_Tree_comp_alloc@V?$_Tmap_traits@V?$basic_string@DU?$char_traits@D@std@@V?$allocator@D@2@@std@@V?$weak_ptr@VRawImageData@@@2@U?$less@V?$basic_string@DU?$char_traits@D@std@@V?$allocator@D@2@@std@@@2@V?$allocator@U?$pair@$$CBV?$basic_string@DU?$char_traits@D@std@@V?$allocator@D@2@@std@@V?$weak_ptr@VRawImageData@@@2@@std@@@2@$0A@@std@@@std@@QAEAAU?$less@V?$basic_string@DU?$char_traits@D@std@@V?$allocator@D@2@@std@@@2@XZ 0040f4a0 f i DraggingDemo.obj
 0001:0000e4c0       ?_Getcomp@?$_Tree_comp_alloc@V?$_Tmap_traits@V?$basic_string@DU?$char_traits@D@std@@V?$allocator@D@2@@std@@V?$weak_ptr@VRawImageData@@@2@U?$less@V?$basic_string@DU?$char_traits@D@std@@V?$allocator@D@2@@std@@@2@V?$allocator@U?$pair@$$CBV?$basic_string@DU?$char_traits@D@std@@V?$allocator@D@2@@std@@V?$weak_ptr@VRawImageData@@@2@@std@@@2@$0A@@std@@@std@@QBEABU?$less@V?$basic_string@DU?$char_traits@D@std@@V?$allocator@D@2@@std@@@2@XZ 0040f4c0 f i DraggingDemo.obj
 0001:0000e4e0       ?_Getcont@_Iterator_base12@std@@QBEPBU_Container_base12@2@XZ 0040f4e0 f i DraggingDemo.obj
 0001:0000e520       ?_Getpfirst@?$_Tree_comp_alloc@V?$_Tmap_traits@V?$basic_string@DU?$char_traits@D@std@@V?$allocator@D@2@@std@@V?$shared_ptr@VRawImageData@@@2@U?$less@V?$basic_string@DU?$char_traits@D@std@@V?$allocator@D@2@@std@@@2@V?$allocator@U?$pair@$$CBV?$basic_string@DU?$char_traits@D@std@@V?$allocator@D@2@@std@@V?$shared_ptr@VRawImageData@@@2@@std@@@2@$0A@@std@@@std@@QBEPAPAU_Iterator_base12@2@XZ 0040f520 f i DraggingDemo.obj
 0001:0000e540       ?_Getpfirst@?$_Tree_comp_alloc@V?$_Tmap_traits@V?$basic_string@DU?$char_traits@D@std@@V?$allocator@D@2@@std@@V?$weak_ptr@VRawImageData@@@2@U?$less@V?$basic_string@DU?$char_traits@D@std@@V?$allocator@D@2@@std@@@2@V?$allocator@U?$pair@$$CBV?$basic_string@DU?$char_traits@D@std@@V?$allocator@D@2@@std@@V?$weak_ptr@VRawImageData@@@2@@std@@@2@$0A@@std@@@std@@QBEPAPAU_Iterator_base12@2@XZ 0040f540 f i DraggingDemo.obj
 0001:0000e560       ?_Getpfirst@?$_Vector_alloc@U?$_Vec_base_types@PAVDisplayableObject@@V?$allocator@PAVDisplayableObject@@@std@@@std@@@std@@QBEPAPAU_Iterator_base12@2@XZ 0040f560 f i DraggingDemo.obj
 0001:0000e580       ?_Getpfirst@_Container_base12@std@@QBEPAPAU_Iterator_base12@2@XZ 0040f580 f i DraggingDemo.obj
 0001:0000e5c0       ?_Getpnext@_Iterator_base12@std@@QAEPAPAU12@XZ 0040f5c0 f i DraggingDemo.obj
 0001:0000e5e0       ?_Incref@_Ref_count_base@std@@QAEXXZ 0040f5e0 f i DraggingDemo.obj
 0001:0000e600       ?_Incref_nz@_Ref_count_base@std@@QAE_NXZ 0040f600 f i DraggingDemo.obj
 0001:0000e650       ?_Incwref@_Ref_count_base@std@@QAEXXZ 0040f650 f i DraggingDemo.obj
 0001:0000e670       ?_Key@?$_Tree@V?$_Tmap_traits@V?$basic_string@DU?$char_traits@D@std@@V?$allocator@D@2@@std@@V?$shared_ptr@VRawImageData@@@2@U?$less@V?$basic_string@DU?$char_traits@D@std@@V?$allocator@D@2@@std@@@2@V?$allocator@U?$pair@$$CBV?$basic_string@DU?$char_traits@D@std@@V?$allocator@D@2@@std@@V?$shared_ptr@VRawImageData@@@2@@std@@@2@$0A@@std@@@std@@IBEABV?$basic_string@DU?$char_traits@D@std@@V?$allocator@D@2@@2@PAU?$_Tree_node@U?$pair@$$CBV?$basic_string@DU?$char_traits@D@std@@V?$allocator@D@2@@std@@V?$shared_ptr@VRawImageData@@@2@@std@@PAX@2@@Z 0040f670 f i DraggingDemo.obj
 0001:0000e6a0       ?_Key@?$_Tree@V?$_Tmap_traits@V?$basic_string@DU?$char_traits@D@std@@V?$allocator@D@2@@std@@V?$weak_ptr@VRawImageData@@@2@U?$less@V?$basic_string@DU?$char_traits@D@std@@V?$allocator@D@2@@std@@@2@V?$allocator@U?$pair@$$CBV?$basic_string@DU?$char_traits@D@std@@V?$allocator@D@2@@std@@V?$weak_ptr@VRawImageData@@@2@@std@@@2@$0A@@std@@@std@@IBEABV?$basic_string@DU?$char_traits@D@std@@V?$allocator@D@2@@2@PAU?$_Tree_node@U?$pair@$$CBV?$basic_string@DU?$char_traits@D@std@@V?$allocator@D@2@@std@@V?$weak_ptr@VRawImageData@@@2@@std@@PAX@2@@Z 0040f6a0 f i DraggingDemo.obj
 0001:0000e6d0       ?_Kfn@?$_Tree@V?$_Tmap_traits@V?$basic_string@DU?$char_traits@D@std@@V?$allocator@D@2@@std@@V?$shared_ptr@VRawImageData@@@2@U?$less@V?$basic_string@DU?$char_traits@D@std@@V?$allocator@D@2@@std@@@2@V?$allocator@U?$pair@$$CBV?$basic_string@DU?$char_traits@D@std@@V?$allocator@D@2@@std@@V?$shared_ptr@VRawImageData@@@2@@std@@@2@$0A@@std@@@std@@IBEABV?$basic_string@DU?$char_traits@D@std@@V?$allocator@D@2@@2@ABU?$pair@$$CBV?$basic_string@DU?$char_traits@D@std@@V?$allocator@D@2@@std@@V?$shared_ptr@VRawImageData@@@2@@2@@Z 0040f6d0 f i DraggingDemo.obj
 0001:0000e6f0       ?_Kfn@?$_Tree@V?$_Tmap_traits@V?$basic_string@DU?$char_traits@D@std@@V?$allocator@D@2@@std@@V?$weak_ptr@VRawImageData@@@2@U?$less@V?$basic_string@DU?$char_traits@D@std@@V?$allocator@D@2@@std@@@2@V?$allocator@U?$pair@$$CBV?$basic_string@DU?$char_traits@D@std@@V?$allocator@D@2@@std@@V?$weak_ptr@VRawImageData@@@2@@std@@@2@$0A@@std@@@std@@IBEABV?$basic_string@DU?$char_traits@D@std@@V?$allocator@D@2@@2@ABU?$pair@$$CBV?$basic_string@DU?$char_traits@D@std@@V?$allocator@D@2@@std@@V?$weak_ptr@VRawImageData@@@2@@2@@Z 0040f6f0 f i DraggingDemo.obj
 0001:0000e710       ?_Large_string_engaged@?$_String_val@U?$_Simple_types@D@std@@@std@@QBE_NXZ 0040f710 f i DraggingDemo.obj
 0001:0000e750       ?_Lmost@?$_Tree_val@U?$_Tree_simple_types@U?$pair@$$CBV?$basic_string@DU?$char_traits@D@std@@V?$allocator@D@2@@std@@V?$shared_ptr@VRawImageData@@@2@@std@@@std@@@std@@QBEAAPAU?$_Tree_node@U?$pair@$$CBV?$basic_string@DU?$char_traits@D@std@@V?$allocator@D@2@@std@@V?$shared_ptr@VRawImageData@@@2@@std@@PAX@2@XZ 0040f750 f i DraggingDemo.obj
 0001:0000e770       ?_Lmost@?$_Tree_val@U?$_Tree_simple_types@U?$pair@$$CBV?$basic_string@DU?$char_traits@D@std@@V?$allocator@D@2@@std@@V?$weak_ptr@VRawImageData@@@2@@std@@@std@@@std@@QBEAAPAU?$_Tree_node@U?$pair@$$CBV?$basic_string@DU?$char_traits@D@std@@V?$allocator@D@2@@std@@V?$weak_ptr@VRawImageData@@@2@@std@@PAX@2@XZ 0040f770 f i DraggingDemo.obj
 0001:0000e790       ?_Lrotate@?$_Tree_val@U?$_Tree_simple_types@U?$pair@$$CBV?$basic_string@DU?$char_traits@D@std@@V?$allocator@D@2@@std@@V?$shared_ptr@VRawImageData@@@2@@std@@@std@@@std@@QAEXPAU?$_Tree_node@U?$pair@$$CBV?$basic_string@DU?$char_traits@D@std@@V?$allocator@D@2@@std@@V?$shared_ptr@VRawImageData@@@2@@std@@PAX@2@@Z 0040f790 f i DraggingDemo.obj
 0001:0000e850       ?_Lrotate@?$_Tree_val@U?$_Tree_simple_types@U?$pair@$$CBV?$basic_string@DU?$char_traits@D@std@@V?$allocator@D@2@@std@@V?$weak_ptr@VRawImageData@@@2@@std@@@std@@@std@@QAEXPAU?$_Tree_node@U?$pair@$$CBV?$basic_string@DU?$char_traits@D@std@@V?$allocator@D@2@@std@@V?$weak_ptr@VRawImageData@@@2@@std@@PAX@2@@Z 0040f850 f i DraggingDemo.obj
 0001:0000e910       ?_Max@?$_Tree_val@U?$_Tree_simple_types@U?$pair@$$CBV?$basic_string@DU?$char_traits@D@std@@V?$allocator@D@2@@std@@V?$shared_ptr@VRawImageData@@@2@@std@@@std@@@std@@SAPAU?$_Tree_node@U?$pair@$$CBV?$basic_string@DU?$char_traits@D@std@@V?$allocator@D@2@@std@@V?$shared_ptr@VRawImageData@@@2@@std@@PAX@2@PAU32@@Z 0040f910 f i DraggingDemo.obj
 0001:0000e940       ?_Max@?$_Tree_val@U?$_Tree_simple_types@U?$pair@$$CBV?$basic_string@DU?$char_traits@D@std@@V?$allocator@D@2@@std@@V?$weak_ptr@VRawImageData@@@2@@std@@@std@@@std@@SAPAU?$_Tree_node@U?$pair@$$CBV?$basic_string@DU?$char_traits@D@std@@V?$allocator@D@2@@std@@V?$weak_ptr@VRawImageData@@@2@@std@@PAX@2@PAU32@@Z 0040f940 f i DraggingDemo.obj
 0001:0000e970       ?_Min@?$_Tree_val@U?$_Tree_simple_types@U?$pair@$$CBV?$basic_string@DU?$char_traits@D@std@@V?$allocator@D@2@@std@@V?$shared_ptr@VRawImageData@@@2@@std@@@std@@@std@@SAPAU?$_Tree_node@U?$pair@$$CBV?$basic_string@DU?$char_traits@D@std@@V?$allocator@D@2@@std@@V?$shared_ptr@VRawImageData@@@2@@std@@PAX@2@PAU32@@Z 0040f970 f i DraggingDemo.obj
 0001:0000e9a0       ?_Min@?$_Tree_val@U?$_Tree_simple_types@U?$pair@$$CBV?$basic_string@DU?$char_traits@D@std@@V?$allocator@D@2@@std@@V?$weak_ptr@VRawImageData@@@2@@std@@@std@@@std@@SAPAU?$_Tree_node@U?$pair@$$CBV?$basic_string@DU?$char_traits@D@std@@V?$allocator@D@2@@std@@V?$weak_ptr@VRawImageData@@@2@@std@@PAX@2@PAU32@@Z 0040f9a0 f i DraggingDemo.obj
 0001:0000e9d0       ?_Myend@?$_Vector_alloc@U?$_Vec_base_types@PAVDisplayableObject@@V?$allocator@PAVDisplayableObject@@@std@@@std@@@std@@QAEAAPAPAVDisplayableObject@@XZ 0040f9d0 f i DraggingDemo.obj
 0001:0000e9f0       ?_Myend@?$_Vector_alloc@U?$_Vec_base_types@PAVDisplayableObject@@V?$allocator@PAVDisplayableObject@@@std@@@std@@@std@@QBEABQAPAVDisplayableObject@@XZ 0040f9f0 f i DraggingDemo.obj
 0001:0000ea10       ?_Myfirst@?$_Vector_alloc@U?$_Vec_base_types@PAVDisplayableObject@@V?$allocator@PAVDisplayableObject@@@std@@@std@@@std@@QAEAAPAPAVDisplayableObject@@XZ 0040fa10 f i DraggingDemo.obj
 0001:0000ea30       ?_Myfirst@?$_Vector_alloc@U?$_Vec_base_types@PAVDisplayableObject@@V?$allocator@PAVDisplayableObject@@@std@@@std@@@std@@QBEABQAPAVDisplayableObject@@XZ 0040fa30 f i DraggingDemo.obj
 0001:0000ea50       ?_Mylast@?$_Vector_alloc@U?$_Vec_base_types@PAVDisplayableObject@@V?$allocator@PAVDisplayableObject@@@std@@@std@@@std@@QAEAAPAPAVDisplayableObject@@XZ 0040fa50 f i DraggingDemo.obj
 0001:0000ea70       ?_Mylast@?$_Vector_alloc@U?$_Vec_base_types@PAVDisplayableObject@@V?$allocator@PAVDisplayableObject@@@std@@@std@@@std@@QBEABQAPAVDisplayableObject@@XZ 0040fa70 f i DraggingDemo.obj
 0001:0000ea90       ?_Myproxy@?$_String_alloc@U?$_String_base_types@DV?$allocator@D@std@@@std@@@std@@QAEAAPAU_Container_proxy@2@XZ 0040fa90 f i DraggingDemo.obj
 0001:0000eab0       ?_Myproxy@?$_Tree_comp_alloc@V?$_Tmap_traits@V?$basic_string@DU?$char_traits@D@std@@V?$allocator@D@2@@std@@V?$shared_ptr@VRawImageData@@@2@U?$less@V?$basic_string@DU?$char_traits@D@std@@V?$allocator@D@2@@std@@@2@V?$allocator@U?$pair@$$CBV?$basic_string@DU?$char_traits@D@std@@V?$allocator@D@2@@std@@V?$shared_ptr@VRawImageData@@@2@@std@@@2@$0A@@std@@@std@@QAEAAPAU_Container_proxy@2@XZ 0040fab0 f i DraggingDemo.obj
 0001:0000ead0       ?_Myproxy@?$_Tree_comp_alloc@V?$_Tmap_traits@V?$basic_string@DU?$char_traits@D@std@@V?$allocator@D@2@@std@@V?$weak_ptr@VRawImageData@@@2@U?$less@V?$basic_string@DU?$char_traits@D@std@@V?$allocator@D@2@@std@@@2@V?$allocator@U?$pair@$$CBV?$basic_string@DU?$char_traits@D@std@@V?$allocator@D@2@@std@@V?$weak_ptr@VRawImageData@@@2@@std@@@2@$0A@@std@@@std@@QAEAAPAU_Container_proxy@2@XZ 0040fad0 f i DraggingDemo.obj
 0001:0000eaf0       ?_Myptr@?$_String_val@U?$_Simple_types@D@std@@@std@@QAEPADXZ 0040faf0 f i DraggingDemo.obj
 0001:0000eb40       ?_Myptr@?$_String_val@U?$_Simple_types@D@std@@@std@@QBEPBDXZ 0040fb40 f i DraggingDemo.obj
 0001:0000eb90       ?_Orphan_all@?$_String_alloc@U?$_String_base_types@DV?$allocator@D@std@@@std@@@std@@QAEXXZ 0040fb90 f i DraggingDemo.obj
 0001:0000ebb0       ?_Orphan_all@?$_Tree_comp_alloc@V?$_Tmap_traits@V?$basic_string@DU?$char_traits@D@std@@V?$allocator@D@2@@std@@V?$shared_ptr@VRawImageData@@@2@U?$less@V?$basic_string@DU?$char_traits@D@std@@V?$allocator@D@2@@std@@@2@V?$allocator@U?$pair@$$CBV?$basic_string@DU?$char_traits@D@std@@V?$allocator@D@2@@std@@V?$shared_ptr@VRawImageData@@@2@@std@@@2@$0A@@std@@@std@@QAEXXZ 0040fbb0 f i DraggingDemo.obj
 0001:0000ebd0       ?_Orphan_all@?$_Tree_comp_alloc@V?$_Tmap_traits@V?$basic_string@DU?$char_traits@D@std@@V?$allocator@D@2@@std@@V?$weak_ptr@VRawImageData@@@2@U?$less@V?$basic_string@DU?$char_traits@D@std@@V?$allocator@D@2@@std@@@2@V?$allocator@U?$pair@$$CBV?$basic_string@DU?$char_traits@D@std@@V?$allocator@D@2@@std@@V?$weak_ptr@VRawImageData@@@2@@std@@@2@$0A@@std@@@std@@QAEXXZ 0040fbd0 f i DraggingDemo.obj
 0001:0000ebf0       ?_Orphan_all@?$_Vector_alloc@U?$_Vec_base_types@PAVDisplayableObject@@V?$allocator@PAVDisplayableObject@@@std@@@std@@@std@@QAEXXZ 0040fbf0 f i DraggingDemo.obj
 0001:0000ec10       ?_Orphan_all@_Container_base12@std@@QAEXXZ 0040fc10 f i DraggingDemo.obj
 0001:0000ecd0       ?_Orphan_me@_Iterator_base12@std@@QAEXXZ 0040fcd0 f i DraggingDemo.obj
 0001:0000edb0       ?_Orphan_ptr@?$_Tree@V?$_Tmap_traits@V?$basic_string@DU?$char_traits@D@std@@V?$allocator@D@2@@std@@V?$shared_ptr@VRawImageData@@@2@U?$less@V?$basic_string@DU?$char_traits@D@std@@V?$allocator@D@2@@std@@@2@V?$allocator@U?$pair@$$CBV?$basic_string@DU?$char_traits@D@std@@V?$allocator@D@2@@std@@V?$shared_ptr@VRawImageData@@@2@@std@@@2@$0A@@std@@@std@@IAEXPAU?$_Tree_node@U?$pair@$$CBV?$basic_string@DU?$char_traits@D@std@@V?$allocator@D@2@@std@@V?$shared_ptr@VRawImageData@@@2@@std@@PAX@2@@Z 0040fdb0 f i DraggingDemo.obj
 0001:0000eeb0       ?_Orphan_ptr@?$_Tree@V?$_Tmap_traits@V?$basic_string@DU?$char_traits@D@std@@V?$allocator@D@2@@std@@V?$weak_ptr@VRawImageData@@@2@U?$less@V?$basic_string@DU?$char_traits@D@std@@V?$allocator@D@2@@std@@@2@V?$allocator@U?$pair@$$CBV?$basic_string@DU?$char_traits@D@std@@V?$allocator@D@2@@std@@V?$weak_ptr@VRawImageData@@@2@@std@@@2@$0A@@std@@@std@@IAEXPAU?$_Tree_node@U?$pair@$$CBV?$basic_string@DU?$char_traits@D@std@@V?$allocator@D@2@@std@@V?$weak_ptr@VRawImageData@@@2@@std@@PAX@2@@Z 0040feb0 f i DraggingDemo.obj
 0001:0000efb0       ?_Orphan_range@?$vector@PAVDisplayableObject@@V?$allocator@PAVDisplayableObject@@@std@@@std@@ABEXPAPAVDisplayableObject@@0@Z 0040ffb0 f i DraggingDemo.obj
 0001:0000f0a0       ?_Rmost@?$_Tree_val@U?$_Tree_simple_types@U?$pair@$$CBV?$basic_string@DU?$char_traits@D@std@@V?$allocator@D@2@@std@@V?$shared_ptr@VRawImageData@@@2@@std@@@std@@@std@@QBEAAPAU?$_Tree_node@U?$pair@$$CBV?$basic_string@DU?$char_traits@D@std@@V?$allocator@D@2@@std@@V?$shared_ptr@VRawImageData@@@2@@std@@PAX@2@XZ 004100a0 f i DraggingDemo.obj
 0001:0000f0c0       ?_Rmost@?$_Tree_val@U?$_Tree_simple_types@U?$pair@$$CBV?$basic_string@DU?$char_traits@D@std@@V?$allocator@D@2@@std@@V?$weak_ptr@VRawImageData@@@2@@std@@@std@@@std@@QBEAAPAU?$_Tree_node@U?$pair@$$CBV?$basic_string@DU?$char_traits@D@std@@V?$allocator@D@2@@std@@V?$weak_ptr@VRawImageData@@@2@@std@@PAX@2@XZ 004100c0 f i DraggingDemo.obj
 0001:0000f0e0       ?_Root@?$_Tree_val@U?$_Tree_simple_types@U?$pair@$$CBV?$basic_string@DU?$char_traits@D@std@@V?$allocator@D@2@@std@@V?$shared_ptr@VRawImageData@@@2@@std@@@std@@@std@@QBEAAPAU?$_Tree_node@U?$pair@$$CBV?$basic_string@DU?$char_traits@D@std@@V?$allocator@D@2@@std@@V?$shared_ptr@VRawImageData@@@2@@std@@PAX@2@XZ 004100e0 f i DraggingDemo.obj
 0001:0000f100       ?_Root@?$_Tree_val@U?$_Tree_simple_types@U?$pair@$$CBV?$basic_string@DU?$char_traits@D@std@@V?$allocator@D@2@@std@@V?$weak_ptr@VRawImageData@@@2@@std@@@std@@@std@@QBEAAPAU?$_Tree_node@U?$pair@$$CBV?$basic_string@DU?$char_traits@D@std@@V?$allocator@D@2@@std@@V?$weak_ptr@VRawImageData@@@2@@std@@PAX@2@XZ 00410100 f i DraggingDemo.obj
 0001:0000f120       ?_Rrotate@?$_Tree_val@U?$_Tree_simple_types@U?$pair@$$CBV?$basic_string@DU?$char_traits@D@std@@V?$allocator@D@2@@std@@V?$shared_ptr@VRawImageData@@@2@@std@@@std@@@std@@QAEXPAU?$_Tree_node@U?$pair@$$CBV?$basic_string@DU?$char_traits@D@std@@V?$allocator@D@2@@std@@V?$shared_ptr@VRawImageData@@@2@@std@@PAX@2@@Z 00410120 f i DraggingDemo.obj
 0001:0000f1f0       ?_Rrotate@?$_Tree_val@U?$_Tree_simple_types@U?$pair@$$CBV?$basic_string@DU?$char_traits@D@std@@V?$allocator@D@2@@std@@V?$weak_ptr@VRawImageData@@@2@@std@@@std@@@std@@QAEXPAU?$_Tree_node@U?$pair@$$CBV?$basic_string@DU?$char_traits@D@std@@V?$allocator@D@2@@std@@V?$weak_ptr@VRawImageData@@@2@@std@@PAX@2@@Z 004101f0 f i DraggingDemo.obj
 0001:0000f2c0       ?_Set_ptr_rep@?$_Ptr_base@VRawImageData@@@std@@IAEXPAVRawImageData@@PAV_Ref_count_base@2@@Z 004102c0 f i DraggingDemo.obj
 0001:0000f2f0       ?_Swap_all@?$_String_alloc@U?$_String_base_types@DV?$allocator@D@std@@@std@@@std@@QAEXAAV12@@Z 004102f0 f i DraggingDemo.obj
 0001:0000f320       ?_Swap_all@_Container_base12@std@@QAEXAAU12@@Z 00410320 f i DraggingDemo.obj
 0001:0000f3d0       ?_Tidy@?$_Tree@V?$_Tmap_traits@V?$basic_string@DU?$char_traits@D@std@@V?$allocator@D@2@@std@@V?$shared_ptr@VRawImageData@@@2@U?$less@V?$basic_string@DU?$char_traits@D@std@@V?$allocator@D@2@@std@@@2@V?$allocator@U?$pair@$$CBV?$basic_string@DU?$char_traits@D@std@@V?$allocator@D@2@@std@@V?$shared_ptr@VRawImageData@@@2@@std@@@2@$0A@@std@@@std@@IAEXXZ 004103d0 f i DraggingDemo.obj
 0001:0000f4d0       ?_Tidy@?$_Tree@V?$_Tmap_traits@V?$basic_string@DU?$char_traits@D@std@@V?$allocator@D@2@@std@@V?$weak_ptr@VRawImageData@@@2@U?$less@V?$basic_string@DU?$char_traits@D@std@@V?$allocator@D@2@@std@@@2@V?$allocator@U?$pair@$$CBV?$basic_string@DU?$char_traits@D@std@@V?$allocator@D@2@@std@@V?$weak_ptr@VRawImageData@@@2@@std@@@2@$0A@@std@@@std@@IAEXXZ 004104d0 f i DraggingDemo.obj
 0001:0000f5d0       ?_Tidy_deallocate@?$basic_string@DU?$char_traits@D@std@@V?$allocator@D@2@@std@@QAEXXZ 004105d0 f i DraggingDemo.obj
 0001:0000f6b0       ?_Tidy_init@?$basic_string@DU?$char_traits@D@std@@V?$allocator@D@2@@std@@QAEXXZ 004106b0 f i DraggingDemo.obj
 0001:0000f710       ?_Udefault@?$vector@PAVDisplayableObject@@V?$allocator@PAVDisplayableObject@@@std@@@std@@AAEPAPAVDisplayableObject@@PAPAV3@I@Z 00410710 f i DraggingDemo.obj
 0001:0000f740       ?_Umove_if_noexcept1@?$vector@PAVDisplayableObject@@V?$allocator@PAVDisplayableObject@@@std@@@std@@AAEXPAPAVDisplayableObject@@00U?$integral_constant@_N$00@2@@Z 00410740 f i DraggingDemo.obj
 0001:0000f780       ?_Umove_if_noexcept@?$vector@PAVDisplayableObject@@V?$allocator@PAVDisplayableObject@@@std@@@std@@AAEXPAPAVDisplayableObject@@00@Z 00410780 f i DraggingDemo.obj
 0001:0000f7c0       ?_Use_count@_Ref_count_base@std@@QBEJXZ 004107c0 f i DraggingDemo.obj
 0001:0000f820       ?_Xlen@?$basic_string@DU?$char_traits@D@std@@V?$allocator@D@2@@std@@SAXXZ 00410820 f i DraggingDemo.obj
 0001:0000f840       ?_Xlength@?$vector@PAVDisplayableObject@@V?$allocator@PAVDisplayableObject@@@std@@@std@@CAXXZ 00410840 f i DraggingDemo.obj
 0001:0000f860       ?__empty_global_delete@@YAXPAX@Z 00410860 f i DraggingDemo.obj
 0001:0000f870       ?__empty_global_delete@@YAXPAXI@Z 00410870 f i DraggingDemo.obj
 0001:0000f880       ?allocate@?$allocator@D@std@@QAEPADI@Z 00410880 f i DraggingDemo.obj
 0001:0000f8b0       ?allocate@?$allocator@PAVDisplayableObject@@@std@@QAEPAPAVDisplayableObject@@I@Z 004108b0 f i DraggingDemo.obj
 0001:0000f8e0       ?allocate@?$allocator@U?$_Tree_node@U?$pair@$$CBV?$basic_string@DU?$char_traits@D@std@@V?$allocator@D@2@@std@@V?$shared_ptr@VRawImageData@@@2@@std@@PAX@std@@@std@@QAEPAU?$_Tree_node@U?$pair@$$CBV?$basic_string@DU?$char_traits@D@std@@V?$allocator@D@2@@std@@V?$shared_ptr@VRawImageData@@@2@@std@@PAX@2@I@Z 004108e0 f i DraggingDemo.obj
 0001:0000f910       ?allocate@?$allocator@U?$_Tree_node@U?$pair@$$CBV?$basic_string@DU?$char_traits@D@std@@V?$allocator@D@2@@std@@V?$weak_ptr@VRawImageData@@@2@@std@@PAX@std@@@std@@QAEPAU?$_Tree_node@U?$pair@$$CBV?$basic_string@DU?$char_traits@D@std@@V?$allocator@D@2@@std@@V?$weak_ptr@VRawImageData@@@2@@std@@PAX@2@I@Z 00410910 f i DraggingDemo.obj
 0001:0000f940       ?allocate@?$allocator@U_Container_proxy@std@@@std@@QAEPAU_Container_proxy@2@I@Z 00410940 f i DraggingDemo.obj
 0001:0000f970       ?assign@?$basic_string@DU?$char_traits@D@std@@V?$allocator@D@2@@std@@QAEAAV12@QBD@Z 00410970 f i DraggingDemo.obj
 0001:0000f9b0       ?assign@?$basic_string@DU?$char_traits@D@std@@V?$allocator@D@2@@std@@QAEAAV12@QBDI@Z 004109b0 f i DraggingDemo.obj
 0001:0000fa60       ?assign@?$char_traits@D@std@@SAXAADABD@Z 00410a60 f i DraggingDemo.obj
 0001:0000fa80       ?begin@?$_Tree@V?$_Tmap_traits@V?$basic_string@DU?$char_traits@D@std@@V?$allocator@D@2@@std@@V?$shared_ptr@VRawImageData@@@2@U?$less@V?$basic_string@DU?$char_traits@D@std@@V?$allocator@D@2@@std@@@2@V?$allocator@U?$pair@$$CBV?$basic_string@DU?$char_traits@D@std@@V?$allocator@D@2@@std@@V?$shared_ptr@VRawImageData@@@2@@std@@@2@$0A@@std@@@std@@QAE?AV?$_Tree_iterator@V?$_Tree_val@U?$_Tree_simple_types@U?$pair@$$CBV?$basic_string@DU?$char_traits@D@std@@V?$allocator@D@2@@std@@V?$shared_ptr@VRawImageData@@@2@@std@@@std@@@std@@@2@XZ 00410a80 f i DraggingDemo.obj
 0001:0000fb00       ?begin@?$_Tree@V?$_Tmap_traits@V?$basic_string@DU?$char_traits@D@std@@V?$allocator@D@2@@std@@V?$weak_ptr@VRawImageData@@@2@U?$less@V?$basic_string@DU?$char_traits@D@std@@V?$allocator@D@2@@std@@@2@V?$allocator@U?$pair@$$CBV?$basic_string@DU?$char_traits@D@std@@V?$allocator@D@2@@std@@V?$weak_ptr@VRawImageData@@@2@@std@@@2@$0A@@std@@@std@@QAE?AV?$_Tree_iterator@V?$_Tree_val@U?$_Tree_simple_types@U?$pair@$$CBV?$basic_string@DU?$char_traits@D@std@@V?$allocator@D@2@@std@@V?$weak_ptr@VRawImageData@@@2@@std@@@std@@@std@@@2@XZ 00410b00 f i DraggingDemo.obj
 0001:0000fb80       ?c_str@?$basic_string@DU?$char_traits@D@std@@V?$allocator@D@2@@std@@QBEPBDXZ 00410b80 f i DraggingDemo.obj
 0001:0000fbe0       ?capacity@?$vector@PAVDisplayableObject@@V?$allocator@PAVDisplayableObject@@@std@@@std@@QBEIXZ 00410be0 f i DraggingDemo.obj
 0001:0000fc20       ?checkDoDrag@DragableBaseClassObject@@UAEXHH@Z 00410c20 f i DraggingDemo.obj
 0001:0000fca0       ?checkFinishDrag@DragableBaseClassObject@@UAEXHH@Z 00410ca0 f i DraggingDemo.obj
 0001:0000fce0       ?checkStartDrag@DragableBaseClassObject@@UAEXHH@Z 00410ce0 f i DraggingDemo.obj
 0001:0000fd60       ?checkWritable@DrawingSurface@@QAEXXZ 00410d60 f i DraggingDemo.obj
 0001:0000fdb0       ?clear@?$_Tree@V?$_Tmap_traits@V?$basic_string@DU?$char_traits@D@std@@V?$allocator@D@2@@std@@V?$shared_ptr@VRawImageData@@@2@U?$less@V?$basic_string@DU?$char_traits@D@std@@V?$allocator@D@2@@std@@@2@V?$allocator@U?$pair@$$CBV?$basic_string@DU?$char_traits@D@std@@V?$allocator@D@2@@std@@V?$shared_ptr@VRawImageData@@@2@@std@@@2@$0A@@std@@@std@@QAEXXZ 00410db0 f i DraggingDemo.obj
 0001:0000fe70       ?clear@?$_Tree@V?$_Tmap_traits@V?$basic_string@DU?$char_traits@D@std@@V?$allocator@D@2@@std@@V?$weak_ptr@VRawImageData@@@2@U?$less@V?$basic_string@DU?$char_traits@D@std@@V?$allocator@D@2@@std@@@2@V?$allocator@U?$pair@$$CBV?$basic_string@DU?$char_traits@D@std@@V?$allocator@D@2@@std@@V?$weak_ptr@VRawImageData@@@2@@std@@@2@$0A@@std@@@std@@QAEXXZ 00410e70 f i DraggingDemo.obj
 0001:0000ff30       ?compare@?$basic_string@DU?$char_traits@D@std@@V?$allocator@D@2@@std@@QBEHABV12@@Z 00410f30 f i DraggingDemo.obj
 0001:0000ffd0       ?compare@?$char_traits@D@std@@SAHQBD0I@Z 00410fd0 f i DraggingDemo.obj
 0001:0000fff0       ?copy@?$char_traits@D@std@@SAPADQADQBDI@Z 00410ff0 f i DraggingDemo.obj
 0001:00010010       ?createObjectArray@DisplayableObjectContainer@@QAEXH@Z 00411010 f i DraggingDemo.obj
 0001:00010060       ?data@?$basic_string@DU?$char_traits@D@std@@V?$allocator@D@2@@std@@QBEPBDXZ 00411060 f i DraggingDemo.obj
 0001:000100c0       ?deallocate@?$_Default_allocator_traits@V?$allocator@U?$_Tree_node@U?$pair@$$CBV?$basic_string@DU?$char_traits@D@std@@V?$allocator@D@2@@std@@V?$shared_ptr@VRawImageData@@@2@@std@@PAX@std@@@std@@@std@@SAXAAV?$allocator@U?$_Tree_node@U?$pair@$$CBV?$basic_string@DU?$char_traits@D@std@@V?$allocator@D@2@@std@@V?$shared_ptr@VRawImageData@@@2@@std@@PAX@std@@@2@QAU?$_Tree_node@U?$pair@$$CBV?$basic_string@DU?$char_traits@D@std@@V?$allocator@D@2@@std@@V?$shared_ptr@VRawImageData@@@2@@std@@PAX@2@I@Z 004110c0 f i DraggingDemo.obj
 0001:000100e0       ?deallocate@?$_Default_allocator_traits@V?$allocator@U?$_Tree_node@U?$pair@$$CBV?$basic_string@DU?$char_traits@D@std@@V?$allocator@D@2@@std@@V?$weak_ptr@VRawImageData@@@2@@std@@PAX@std@@@std@@@std@@SAXAAV?$allocator@U?$_Tree_node@U?$pair@$$CBV?$basic_string@DU?$char_traits@D@std@@V?$allocator@D@2@@std@@V?$weak_ptr@VRawImageData@@@2@@std@@PAX@std@@@2@QAU?$_Tree_node@U?$pair@$$CBV?$basic_string@DU?$char_traits@D@std@@V?$allocator@D@2@@std@@V?$weak_ptr@VRawImageData@@@2@@std@@PAX@2@I@Z 004110e0 f i DraggingDemo.obj
 0001:00010100       ?deallocate@?$_Default_allocator_traits@V?$allocator@U_Container_proxy@std@@@std@@@std@@SAXAAV?$allocator@U_Container_proxy@std@@@2@QAU_Container_proxy@2@I@Z 00411100 f i DraggingDemo.obj
 0001:00010120       ?deallocate@?$allocator@D@std@@QAEXQADI@Z 00411120 f i DraggingDemo.obj
 0001:00010150       ?deallocate@?$allocator@PAVDisplayableObject@@@std@@QAEXQAPAVDisplayableObject@@I@Z 00411150 f i DraggingDemo.obj
 0001:00010180       ?deallocate@?$allocator@U?$_Tree_node@U?$pair@$$CBV?$basic_string@DU?$char_traits@D@std@@V?$allocator@D@2@@std@@V?$shared_ptr@VRawImageData@@@2@@std@@PAX@std@@@std@@QAEXQAU?$_Tree_node@U?$pair@$$CBV?$basic_string@DU?$char_traits@D@std@@V?$allocator@D@2@@std@@V?$shared_ptr@VRawImageData@@@2@@std@@PAX@2@I@Z 00411180 f i DraggingDemo.obj
 0001:000101b0       ?deallocate@?$allocator@U?$_Tree_node@U?$pair@$$CBV?$basic_string@DU?$char_traits@D@std@@V?$allocator@D@2@@std@@V?$weak_ptr@VRawImageData@@@2@@std@@PAX@std@@@std@@QAEXQAU?$_Tree_node@U?$pair@$$CBV?$basic_string@DU?$char_traits@D@std@@V?$allocator@D@2@@std@@V?$weak_ptr@VRawImageData@@@2@@std@@PAX@2@I@Z 004111b0 f i DraggingDemo.obj
 0001:000101e0       ?deleteOnRemoval@DisplayableObject@@UBE_NXZ 004111e0 f i DraggingDemo.obj
 0001:00010200       ?doDragRedraw@DragableBaseClassObject@@UAEXXZ 00411200 f i DraggingDemo.obj
 0001:00010220       ?drawableObjectsChanged@DisplayableObjectContainer@@QAEXXZ 00411220 f i DraggingDemo.obj
 0001:00010240       ?end@?$_Tree@V?$_Tmap_traits@V?$basic_string@DU?$char_traits@D@std@@V?$allocator@D@2@@std@@V?$shared_ptr@VRawImageData@@@2@U?$less@V?$basic_string@DU?$char_traits@D@std@@V?$allocator@D@2@@std@@@2@V?$allocator@U?$pair@$$CBV?$basic_string@DU?$char_traits@D@std@@V?$allocator@D@2@@std@@V?$shared_ptr@VRawImageData@@@2@@std@@@2@$0A@@std@@@std@@QAE?AV?$_Tree_iterator@V?$_Tree_val@U?$_Tree_simple_types@U?$pair@$$CBV?$basic_string@DU?$char_traits@D@std@@V?$allocator@D@2@@std@@V?$shared_ptr@VRawImageData@@@2@@std@@@std@@@std@@@2@XZ 00411240 f i DraggingDemo.obj
 0001:000102c0       ?end@?$_Tree@V?$_Tmap_traits@V?$basic_string@DU?$char_traits@D@std@@V?$allocator@D@2@@std@@V?$weak_ptr@VRawImageData@@@2@U?$less@V?$basic_string@DU?$char_traits@D@std@@V?$allocator@D@2@@std@@@2@V?$allocator@U?$pair@$$CBV?$basic_string@DU?$char_traits@D@std@@V?$allocator@D@2@@std@@V?$weak_ptr@VRawImageData@@@2@@std@@@2@$0A@@std@@@std@@QAE?AV?$_Tree_iterator@V?$_Tree_val@U?$_Tree_simple_types@U?$pair@$$CBV?$basic_string@DU?$char_traits@D@std@@V?$allocator@D@2@@std@@V?$weak_ptr@VRawImageData@@@2@@std@@@std@@@std@@@2@XZ 004112c0 f i DraggingDemo.obj
 0001:00010340       ?eof@?$char_traits@D@std@@SAHXZ 00411340 f i DraggingDemo.obj
 0001:00010350       ?eq_int_type@?$char_traits@D@std@@SA_NABH0@Z 00411350 f i DraggingDemo.obj
 0001:00010380       ?erase@?$_Tree@V?$_Tmap_traits@V?$basic_string@DU?$char_traits@D@std@@V?$allocator@D@2@@std@@V?$shared_ptr@VRawImageData@@@2@U?$less@V?$basic_string@DU?$char_traits@D@std@@V?$allocator@D@2@@std@@@2@V?$allocator@U?$pair@$$CBV?$basic_string@DU?$char_traits@D@std@@V?$allocator@D@2@@std@@V?$shared_ptr@VRawImageData@@@2@@std@@@2@$0A@@std@@@std@@QAE?AV?$_Tree_iterator@V?$_Tree_val@U?$_Tree_simple_types@U?$pair@$$CBV?$basic_string@DU?$char_traits@D@std@@V?$allocator@D@2@@std@@V?$shared_ptr@VRawImageData@@@2@@std@@@std@@@std@@@2@V?$_Tree_const_iterator@V?$_Tree_val@U?$_Tree_simple_types@U?$pair@$$CBV?$basic_string@DU?$char_traits@D@std@@V?$allocator@D@2@@std@@V?$shared_ptr@VRawImageData@@@2@@std@@@std@@@std@@@2@0@Z 00411380 f i DraggingDemo.obj
 0001:000105f0       ?erase@?$_Tree@V?$_Tmap_traits@V?$basic_string@DU?$char_traits@D@std@@V?$allocator@D@2@@std@@V?$shared_ptr@VRawImageData@@@2@U?$less@V?$basic_string@DU?$char_traits@D@std@@V?$allocator@D@2@@std@@@2@V?$allocator@U?$pair@$$CBV?$basic_string@DU?$char_traits@D@std@@V?$allocator@D@2@@std@@V?$shared_ptr@VRawImageData@@@2@@std@@@2@$0A@@std@@@std@@QAE?AV?$_Tree_iterator@V?$_Tree_val@U?$_Tree_simple_types@U?$pair@$$CBV?$basic_string@DU?$char_traits@D@std@@V?$allocator@D@2@@std@@V?$shared_ptr@VRawImageData@@@2@@std@@@std@@@std@@@2@V?$_Tree_const_iterator@V?$_Tree_val@U?$_Tree_simple_types@U?$pair@$$CBV?$basic_string@DU?$char_traits@D@std@@V?$allocator@D@2@@std@@V?$shared_ptr@VRawImageData@@@2@@std@@@std@@@std@@@2@@Z 004115f0 f i DraggingDemo.obj
 0001:000107e0       ?erase@?$_Tree@V?$_Tmap_traits@V?$basic_string@DU?$char_traits@D@std@@V?$allocator@D@2@@std@@V?$weak_ptr@VRawImageData@@@2@U?$less@V?$basic_string@DU?$char_traits@D@std@@V?$allocator@D@2@@std@@@2@V?$allocator@U?$pair@$$CBV?$basic_string@DU?$char_traits@D@std@@V?$allocator@D@2@@std@@V?$weak_ptr@VRawImageData@@@2@@std@@@2@$0A@@std@@@std@@QAE?AV?$_Tree_iterator@V?$_Tree_val@U?$_Tree_simple_types@U?$pair@$$CBV?$basic_string@DU?$char_traits@D@std@@V?$allocator@D@2@@std@@V?$weak_ptr@VRawImageData@@@2@@std@@@std@@@std@@@2@V?$_Tree_const_iterator@V?$_Tree_val@U?$_Tree_simple_types@U?$pair@$$CBV?$basic_string@DU?$char_traits@D@std@@V?$allocator@D@2@@std@@V?$weak_ptr@VRawImageData@@@2@@std@@@std@@@std@@@2@0@Z 004117e0 f i DraggingDemo.obj
 0001:00010a50       ?erase@?$_Tree@V?$_Tmap_traits@V?$basic_string@DU?$char_traits@D@std@@V?$allocator@D@2@@std@@V?$weak_ptr@VRawImageData@@@2@U?$less@V?$basic_string@DU?$char_traits@D@std@@V?$allocator@D@2@@std@@@2@V?$allocator@U?$pair@$$CBV?$basic_string@DU?$char_traits@D@std@@V?$allocator@D@2@@std@@V?$weak_ptr@VRawImageData@@@2@@std@@@2@$0A@@std@@@std@@QAE?AV?$_Tree_iterator@V?$_Tree_val@U?$_Tree_simple_types@U?$pair@$$CBV?$basic_string@DU?$char_traits@D@std@@V?$allocator@D@2@@std@@V?$weak_ptr@VRawImageData@@@2@@std@@@std@@@std@@@2@V?$_Tree_const_iterator@V?$_Tree_val@U?$_Tree_simple_types@U?$pair@$$CBV?$basic_string@DU?$char_traits@D@std@@V?$allocator@D@2@@std@@V?$weak_ptr@VRawImageData@@@2@@std@@@std@@@std@@@2@@Z 00411a50 f i DraggingDemo.obj
 0001:00010c40       ?expired@?$weak_ptr@VRawImageData@@@std@@QBE_NXZ 00411c40 f i DraggingDemo.obj
 0001:00010c80       ?find@?$_Tree@V?$_Tmap_traits@V?$basic_string@DU?$char_traits@D@std@@V?$allocator@D@2@@std@@V?$weak_ptr@VRawImageData@@@2@U?$less@V?$basic_string@DU?$char_traits@D@std@@V?$allocator@D@2@@std@@@2@V?$allocator@U?$pair@$$CBV?$basic_string@DU?$char_traits@D@std@@V?$allocator@D@2@@std@@V?$weak_ptr@VRawImageData@@@2@@std@@@2@$0A@@std@@@std@@QAE?AV?$_Tree_iterator@V?$_Tree_val@U?$_Tree_simple_types@U?$pair@$$CBV?$basic_string@DU?$char_traits@D@std@@V?$allocator@D@2@@std@@V?$weak_ptr@VRawImageData@@@2@@std@@@std@@@std@@@2@ABV?$basic_string@DU?$char_traits@D@std@@V?$allocator@D@2@@2@@Z 00411c80 f i DraggingDemo.obj
 0001:00010e40       ?freeSurface@RawImageData@@QAEXXZ 00411e40 f i DraggingDemo.obj
 0001:00010e80       ?get@?$_Ptr_base@VRawImageData@@@std@@IBEPAVRawImageData@@XZ 00411e80 f i DraggingDemo.obj
 0001:00010ea0       ?get@ImageManager@@SAPAV1@XZ 00411ea0 f i DraggingDemo.obj
 0001:00010f50       ?getEngine@DisplayableObject@@QBEPAVBaseEngine@@XZ 00411f50 f i DraggingDemo.obj
 0001:00010f70       ?getForegroundSurface@BaseEngine@@QAEPAVDrawingSurface@@XZ 00411f70 f i DraggingDemo.obj
 0001:00010f90       ?getHeight@RawImageData@@QBEHXZ 00411f90 f i DraggingDemo.obj
 0001:00010fb0       ?getHeight@SimpleImage@@QBEHXZ 00411fb0 f i DraggingDemo.obj
 0001:00010fe0       ?getImagePtrbyURL@ImageManager@@QAE?AV?$shared_ptr@VRawImageData@@@std@@V?$basic_string@DU?$char_traits@D@std@@V?$allocator@D@2@@3@_N1@Z 00411fe0 f i DraggingDemo.obj
 0001:00011440       ?getImagebyURL@ImageManager@@QAE?AVSimpleImage@@V?$basic_string@DU?$char_traits@D@std@@V?$allocator@D@2@@std@@_N1@Z 00412440 f i DraggingDemo.obj
 0001:00011510       ?getIntsPerWindowRow@DrawingSurface@@QBEIXZ 00412510 f i DraggingDemo.obj
 0001:00011530       ?getSurfaceHeight@DrawingSurface@@QBEHXZ 00412530 f i DraggingDemo.obj
 0001:00011550       ?getSurfaceWidth@DrawingSurface@@QBEHXZ 00412550 f i DraggingDemo.obj
 0001:00011570       ?getWidth@RawImageData@@QBEHXZ 00412570 f i DraggingDemo.obj
 0001:00011590       ?getWidth@SimpleImage@@QBEHXZ 00412590 f i DraggingDemo.obj
 0001:000115c0       ?getWindowHeight@BaseEngine@@QBEHXZ 004125c0 f i DraggingDemo.obj
 0001:000115e0       ?getWindowWidth@BaseEngine@@QBEHXZ 004125e0 f i DraggingDemo.obj
 0001:00011600       ?getXForRotationAndCrop@RawImageData@@SAHHHHHHH@Z 00412600 f i DraggingDemo.obj
 0001:00011670       ?getYForRotationAndCrop@RawImageData@@SAHHHHHHH@Z 00412670 f i DraggingDemo.obj
 0001:000116e0       ?isVisible@DisplayableObject@@QBE_NXZ 004126e0 f i DraggingDemo.obj
 0001:00011700       ?length@?$char_traits@D@std@@SAIQBD@Z 00412700 f i DraggingDemo.obj
 0001:00011720       ?loadAsNew@ImageManager@@QAE?AV?$shared_ptr@VRawImageData@@@std@@V?$basic_string@DU?$char_traits@D@std@@V?$allocator@D@2@@3@@Z 00412720 f i DraggingDemo.obj
 0001:000118f0       ?loadImage@RawImageData@@QAE_NV?$basic_string@DU?$char_traits@D@std@@V?$allocator@D@2@@std@@HHHHH_N@Z 004128f0 f i DraggingDemo.obj
 0001:00011c00       ?lock@?$weak_ptr@VRawImageData@@@std@@QBE?AV?$shared_ptr@VRawImageData@@@2@XZ 00412c00 f i DraggingDemo.obj
 0001:00011c80       ?lower_bound@?$_Tree@V?$_Tmap_traits@V?$basic_string@DU?$char_traits@D@std@@V?$allocator@D@2@@std@@V?$weak_ptr@VRawImageData@@@2@U?$less@V?$basic_string@DU?$char_traits@D@std@@V?$allocator@D@2@@std@@@2@V?$allocator@U?$pair@$$CBV?$basic_string@DU?$char_traits@D@std@@V?$allocator@D@2@@std@@V?$weak_ptr@VRawImageData@@@2@@std@@@2@$0A@@std@@@std@@QAE?AV?$_Tree_iterator@V?$_Tree_val@U?$_Tree_simple_types@U?$pair@$$CBV?$basic_string@DU?$char_traits@D@std@@V?$allocator@D@2@@std@@V?$weak_ptr@VRawImageData@@@2@@std@@@std@@@std@@@2@ABV?$basic_string@DU?$char_traits@D@std@@V?$allocator@D@2@@2@@Z 00412c80 f i DraggingDemo.obj
 0001:00011ce0       ?max@?$numeric_limits@H@std@@SAHXZ 00412ce0 f i DraggingDemo.obj
 0001:00011cf0       ?max_size@?$_Default_allocator_traits@V?$allocator@D@std@@@std@@SAIABV?$allocator@D@2@@Z 00412cf0 f i DraggingDemo.obj
 0001:00011d00       ?max_size@?$_Default_allocator_traits@V?$allocator@PAVDisplayableObject@@@std@@@std@@SAIABV?$allocator@PAVDisplayableObject@@@2@@Z 00412d00 f i DraggingDemo.obj
 0001:00011d10       ?max_size@?$_Default_allocator_traits@V?$allocator@U?$_Tree_node@U?$pair@$$CBV?$basic_string@DU?$char_traits@D@std@@V?$allocator@D@2@@std@@V?$shared_ptr@VRawImageData@@@2@@std@@PAX@std@@@std@@@std@@SAIABV?$allocator@U?$_Tree_node@U?$pair@$$CBV?$basic_string@DU?$char_traits@D@std@@V?$allocator@D@2@@std@@V?$shared_ptr@VRawImageData@@@2@@std@@PAX@std@@@2@@Z 00412d10 f i DraggingDemo.obj
 0001:00011d20       ?max_size@?$_Default_allocator_traits@V?$allocator@U?$_Tree_node@U?$pair@$$CBV?$basic_string@DU?$char_traits@D@std@@V?$allocator@D@2@@std@@V?$weak_ptr@VRawImageData@@@2@@std@@PAX@std@@@std@@@std@@SAIABV?$allocator@U?$_Tree_node@U?$pair@$$CBV?$basic_string@DU?$char_traits@D@std@@V?$allocator@D@2@@std@@V?$weak_ptr@VRawImageData@@@2@@std@@PAX@std@@@2@@Z 00412d20 f i DraggingDemo.obj
 0001:00011d30       ?max_size@?$_Tree@V?$_Tmap_traits@V?$basic_string@DU?$char_traits@D@std@@V?$allocator@D@2@@std@@V?$shared_ptr@VRawImageData@@@2@U?$less@V?$basic_string@DU?$char_traits@D@std@@V?$allocator@D@2@@std@@@2@V?$allocator@U?$pair@$$CBV?$basic_string@DU?$char_traits@D@std@@V?$allocator@D@2@@std@@V?$shared_ptr@VRawImageData@@@2@@std@@@2@$0A@@std@@@std@@QBEIXZ 00412d30 f i DraggingDemo.obj
 0001:00011d60       ?max_size@?$_Tree@V?$_Tmap_traits@V?$basic_string@DU?$char_traits@D@std@@V?$allocator@D@2@@std@@V?$weak_ptr@VRawImageData@@@2@U?$less@V?$basic_string@DU?$char_traits@D@std@@V?$allocator@D@2@@std@@@2@V?$allocator@U?$pair@$$CBV?$basic_string@DU?$char_traits@D@std@@V?$allocator@D@2@@std@@V?$weak_ptr@VRawImageData@@@2@@std@@@2@$0A@@std@@@std@@QBEIXZ 00412d60 f i DraggingDemo.obj
 0001:00011d90       ?max_size@?$basic_string@DU?$char_traits@D@std@@V?$allocator@D@2@@std@@QBEIXZ 00412d90 f i DraggingDemo.obj
 0001:00011e10       ?max_size@?$vector@PAVDisplayableObject@@V?$allocator@PAVDisplayableObject@@@std@@@std@@QBEIXZ 00412e10 f i DraggingDemo.obj
 0001:00011e60       ?move@?$char_traits@D@std@@SAPADQADQBDI@Z 00412e60 f i DraggingDemo.obj
 0001:00011e80       ?notifyObjectsAboutMouse@BaseEngine@@QAEX_N@Z 00412e80 f i DraggingDemo.obj
 0001:00011ea0       ?pointer_to@?$pointer_traits@PAU?$pair@$$CBV?$basic_string@DU?$char_traits@D@std@@V?$allocator@D@2@@std@@V?$weak_ptr@VRawImageData@@@2@@std@@@std@@SAPAU?$pair@$$CBV?$basic_string@DU?$char_traits@D@std@@V?$allocator@D@2@@std@@V?$weak_ptr@VRawImageData@@@2@@2@AAU32@@Z 00412ea0 f i DraggingDemo.obj
 0001:00011ec0       ?rawSetPixel@DrawingSurface@@QAEXHHI@Z 00412ec0 f i DraggingDemo.obj
 0001:00011f70       ?resetOptions@ImageManager@@QAEXXZ 00412f70 f i DraggingDemo.obj
 0001:00011fb0       ?resize@?$vector@PAVDisplayableObject@@V?$allocator@PAVDisplayableObject@@@std@@@std@@QAEXI@Z 00412fb0 f i DraggingDemo.obj
 0001:00011ff0       ?select_on_container_copy_construction@?$_Default_allocator_traits@V?$allocator@D@std@@@std@@SA?AV?$allocator@D@2@ABV32@@Z 00412ff0 f i DraggingDemo.obj
 0001:00012000       ?setBackgroundPixel@BaseEngine@@QAEXHHI@Z 00413000 f i DraggingDemo.obj
 0001:00012030       ?setExitWithCode@BaseEngine@@QAEXH@Z 00413030 f i DraggingDemo.obj
 0001:00012050       ?setPixel@DrawingSurface@@QAEXHHI@Z 00413050 f i DraggingDemo.obj
 0001:000120c0       ?setPosition@DisplayableObject@@UAEXHH@Z 004130c0 f i DraggingDemo.obj
 0001:00012100       ?setVisible@DisplayableObject@@QAEX_N@Z 00413100 f i DraggingDemo.obj
 0001:00012120       ?size@?$basic_string@DU?$char_traits@D@std@@V?$allocator@D@2@@std@@QBEIXZ 00413120 f i DraggingDemo.obj
 0001:00012140       ?size@?$vector@PAVDisplayableObject@@V?$allocator@PAVDisplayableObject@@@std@@@std@@QBEIXZ 00413140 f i DraggingDemo.obj
 0001:00012180       ?storeObjectInArray@DisplayableObjectContainer@@QAEXHPAVDisplayableObject@@@Z 00413180 f i DraggingDemo.obj
 0001:000121c0       ?use_count@?$_Ptr_base@VRawImageData@@@std@@QBEJXZ 004131c0 f i DraggingDemo.obj
 0001:00012200       ?virtDraw@DragableImageObject@@UAEXXZ 00413200 f i DraggingDemo.obj
 0001:00012280       ?virtDraw@ImageObject@@UAEXXZ 00413280 f i DraggingDemo.obj
 0001:00012300       ?virtIsPositionWithinObject@DisplayableObject@@UAE_NHH@Z 00413300 f i DraggingDemo.obj
 0001:00012390       ?virtKeyDown@DisplayableObject@@UAEXH@Z 00413390 f i DraggingDemo.obj
 0001:000123a0       ?virtKeyUp@DisplayableObject@@UAEXH@Z 004133a0 f i DraggingDemo.obj
 0001:000123b0       ?virtMouseDown@DisplayableObject@@UAEXHHH@Z 004133b0 f i DraggingDemo.obj
 0001:000123c0       ?virtMouseDown@DragableImageObject@@UAEXHHH@Z 004133c0 f i DraggingDemo.obj
 0001:000123f0       ?virtMouseDown@DragableObject@@UAEXHHH@Z 004133f0 f i DraggingDemo.obj
 0001:00012420       ?virtMouseMoved@DisplayableObject@@UAEXHH@Z 00413420 f i DraggingDemo.obj
 0001:00012430       ?virtMouseMoved@DragableImageObject@@UAEXHH@Z 00413430 f i DraggingDemo.obj
 0001:00012460       ?virtMouseMoved@DragableObject@@UAEXHH@Z 00413460 f i DraggingDemo.obj
 0001:00012490       ?virtMouseUp@DisplayableObject@@UAEXHHH@Z 00413490 f i DraggingDemo.obj
 0001:000124a0       ?virtMouseUp@DragableImageObject@@UAEXHHH@Z 004134a0 f i DraggingDemo.obj
 0001:000124d0       ?virtMouseUp@DragableObject@@UAEXHHH@Z 004134d0 f i DraggingDemo.obj
 0001:00012510       ?virtNotify@DisplayableObject@@UAEJHHH@Z 00413510 f i DraggingDemo.obj
 0001:00012530       ?virtSingleItemMouseDown@DisplayableObject@@UAE_NHHH@Z 00413530 f i DraggingDemo.obj
 0001:00012550       ___local_stdio_printf_options 00413550 f i DraggingDemo.obj
 0001:00012560       __vfprintf_l               00413560 f i DraggingDemo.obj
 0001:000125a0       _printf                    004135a0 f i DraggingDemo.obj
 0001:000125f0       ??0DrawingSurface@@QAE@PAVBaseEngine@@@Z 004135f0 f   DrawingSurface.obj
 0001:00012690       ?drawLine@DrawingSurface@@QAEXNNNNI@Z 00413690 f   DrawingSurface.obj
 0001:00012870       ?drawThickLine@DrawingSurface@@QAEXNNNNIH@Z 00413870 f   DrawingSurface.obj
 0001:00012d10       ?drawVerticalSidedRegion@DrawingSurface@@QAEXNNNNNNI@Z 00413d10 f   DrawingSurface.obj
 0001:000130b0       ?drawRectangle@DrawingSurface@@QAEXHHHHI@Z 004140b0 f   DrawingSurface.obj
 0001:000131c0       ?drawOval@DrawingSurface@@QAEXHHHHI@Z 004141c0 f   DrawingSurface.obj
 0001:00013390       ?rawDrawOval@DrawingSurface@@QAEXHHHHI@Z 00414390 f   DrawingSurface.obj
 0001:000134f0       ?drawHollowOval@DrawingSurface@@QAEXHHHHHHHHI@Z 004144f0 f   DrawingSurface.obj
 0001:00013810       ?drawPolygon@DrawingSurface@@QAEXHPAN0I@Z 00414810 f   DrawingSurface.obj
 0001:00013f90       ?drawFastString@DrawingSurface@@QAEXHHPBDIPAVFont@@@Z 00414f90 f   DrawingSurface.obj
 0001:00014080       ?drawScalableString@DrawingSurface@@QAEXHHPBDIPAVFont@@@Z 00415080 f   DrawingSurface.obj
 0001:00014250       ?drawShortenedArrow@DrawingSurface@@QAEXHHHHHHIHH@Z 00415250 f   DrawingSurface.obj
 0001:000147d0       ?drawShortenedLine@DrawingSurface@@QAEXHHHHHHIH@Z 004157d0 f   DrawingSurface.obj
 0001:00014bd0       ?drawTriangle@DrawingSurface@@QAEXNNNNNNI@Z 00415bd0 f   DrawingSurface.obj
 0001:00014f20       ?copyEntireSurface@DrawingSurface@@QAEXPAV1@@Z 00415f20 f   DrawingSurface.obj
 0001:00014f70       ?copyRectangleFrom@DrawingSurface@@QAEXPAV1@HHHHHH@Z 00415f70 f   DrawingSurface.obj
 0001:00015170       ?getAngle@DrawingSurface@@SANNNNN@Z 00416170 f   DrawingSurface.obj
 0001:00015210       ?getVirtualRedrawMinX@DrawingSurface@@QAEHXZ 00416210 f   DrawingSurface.obj
 0001:00015260       ?getVirtualRedrawMinY@DrawingSurface@@QAEHXZ 00416260 f   DrawingSurface.obj
 0001:000152b0       ?getVirtualRedrawMaxX@DrawingSurface@@QAEHXZ 004162b0 f   DrawingSurface.obj
 0001:00015310       ?getVirtualRedrawMaxY@DrawingSurface@@QAEHXZ 00416310 f   DrawingSurface.obj
 0001:00015370       ?getRealRedrawMinX@DrawingSurface@@QAEHXZ 00416370 f   DrawingSurface.obj
 0001:000153c0       ?getRealRedrawMinY@DrawingSurface@@QAEHXZ 004163c0 f   DrawingSurface.obj
 0001:00015410       ?getRealRedrawMaxX@DrawingSurface@@QAEHXZ 00416410 f   DrawingSurface.obj
 0001:00015460       ?getRealRedrawMaxY@DrawingSurface@@QAEHXZ 00416460 f   DrawingSurface.obj
 0001:000154b0       ?destroyImageManager@ImageManager@@SAXXZ 004164b0 f i mainfunction.obj
 0001:00016060       ??$swapPoints@H@@YAXAAH0@Z 00417060 f i DrawingSurface.obj
 0001:00016090       ??$swapPoints@N@@YAXAAN0@Z 00417090 f i DrawingSurface.obj
 0001:000160d0       ?checkBlitable@DrawingSurface@@QAEXXZ 004170d0 f i DrawingSurface.obj
 0001:00016120       ?convertRealToVirtualXPosition@DrawingSurface@@QAEHH@Z 00417120 f i DrawingSurface.obj
 0001:00016160       ?convertRealToVirtualYPosition@DrawingSurface@@QAEHH@Z 00417160 f i DrawingSurface.obj
 0001:000161a0       ?getDefaultFont@BaseEngine@@QBEPAVFont@@XZ 004171a0 f i DrawingSurface.obj
 0001:000161c0       ?getRedrawAllScreen@BaseEngine@@QAEHXZ 004171c0 f i DrawingSurface.obj
 0001:000161e0       ?getRedrawRectRealBottom@BaseEngine@@QAEHXZ 004171e0 f i DrawingSurface.obj
 0001:00016200       ?getRedrawRectRealLeft@BaseEngine@@QAEHXZ 00417200 f i DrawingSurface.obj
 0001:00016220       ?getRedrawRectRealRight@BaseEngine@@QAEHXZ 00417220 f i DrawingSurface.obj
 0001:00016240       ?getRedrawRectRealTop@BaseEngine@@QAEHXZ 00417240 f i DrawingSurface.obj
 0001:00016260       ?getRedrawRectVirtualBottom@BaseEngine@@QAEHXZ 00417260 f i DrawingSurface.obj
 0001:00016280       ?getRedrawRectVirtualLeft@BaseEngine@@QAEHXZ 00417280 f i DrawingSurface.obj
 0001:000162a0       ?getRedrawRectVirtualRight@BaseEngine@@QAEHXZ 004172a0 f i DrawingSurface.obj
 0001:000162c0       ?getRedrawRectVirtualTop@BaseEngine@@QAEHXZ 004172c0 f i DrawingSurface.obj
 0001:000162e0       ?getTTFFont@Font@@QAEPAU_TTF_Font@@XZ 004172e0 f i DrawingSurface.obj
 0001:00016300       ?mySDLTempRelockSurface@DrawingSurface@@QAEXXZ 00417300 f i DrawingSurface.obj
 0001:00016350       ?mySDLTempUnlockSurface@DrawingSurface@@QAEXXZ 00417350 f i DrawingSurface.obj
 0001:000163a0       ?setDrawPointsFilter@DrawingSurface@@QAEXPAVFilterPoints@@@Z 004173a0 f i DrawingSurface.obj
 0001:000163c0       ??0FlashingDemo@@QAE@XZ    004173c0 f   FlashingDemo.obj
 0001:00016480       ??1FlashingDemo@@UAE@XZ    00417480 f   FlashingDemo.obj
 0001:000164d0       ?virtSetupBackgroundBuffer@FlashingDemo@@UAEXXZ 004174d0 f   FlashingDemo.obj
 0001:00016950       ?virtMainLoopDoBeforeUpdate@FlashingDemo@@UAEXXZ 00417950 f   FlashingDemo.obj
 0001:00016a10       ?virtCreateSurfaces@FlashingDemo@@UAEXXZ 00417a10 f   FlashingDemo.obj
 0001:00016c30       ??1DrawingSurface@@QAE@XZ  00417c30 f i FlashingDemo.obj
 0001:00016c40       ??_GFlashingDemo@@UAEPAXI@Z 00417c40 f i FlashingDemo.obj
 0001:00016c40       ??_EFlashingDemo@@UAEPAXI@Z 00417c40 f i FlashingDemo.obj
 0001:00016c80       ?copyAllBackgroundBuffer@BaseEngine@@UAEXXZ 00417c80 f i FlashingDemo.obj
 0001:00016cb0       ?copyBackgroundPixels@BaseEngine@@UAEXHHHH@Z 00417cb0 f i FlashingDemo.obj
 0001:00016d00       ?createSurface@DrawingSurface@@QAEXHH@Z 00417d00 f i FlashingDemo.obj
 0001:00016d50       ?destroyOldObjects@DisplayableObjectContainer@@UAEX_N@Z 00417d50 f i FlashingDemo.obj
 0001:00016e40       ?fillBackground@BaseEngine@@UAEXI@Z 00417e40 f i FlashingDemo.obj
 0001:00016e70       ?fillSurface@DrawingSurface@@QAEXI@Z 00417e70 f i FlashingDemo.obj
 0001:00016f00       ?filter@BaseEngine@@UAE_NPAVDrawingSurface@@AAH1AAI@Z 00417f00 f i FlashingDemo.obj
 0001:00016fc0       ?filterConvertRealToVirtualXPosition@FilterPoints@@UAEHH@Z 00417fc0 f i FlashingDemo.obj
 0001:00016fe0       ?filterConvertRealToVirtualYPosition@FilterPoints@@UAEHH@Z 00417fe0 f i FlashingDemo.obj
 0001:00017000       ?filterConvertVirtualToRealXPosition@FilterPoints@@UAEHH@Z 00418000 f i FlashingDemo.obj
 0001:00017020       ?filterConvertVirtualToRealYPosition@FilterPoints@@UAEHH@Z 00418020 f i FlashingDemo.obj
 0001:00017040       ?getModifiedTime@BaseEngine@@UBEHXZ 00418040 f i FlashingDemo.obj
 0001:00017080       ?mySDLLockSurface@DrawingSurface@@QAEXXZ 00418080 f i FlashingDemo.obj
 0001:000170d0       ?mySDLUnlockSurface@DrawingSurface@@QAEXXZ 004180d0 f i FlashingDemo.obj
 0001:00017120       ?redrawDisplay@BaseEngine@@QAEXXZ 00418120 f i FlashingDemo.obj
 0001:00017140       ?virtBackgroundMouseDown@BaseEngine@@UAEXHHHHH@Z 00418140 f i FlashingDemo.obj
 0001:00017150       ?virtMainLoopDoAfterUpdate@BaseEngine@@UAEXXZ 00418150 f i FlashingDemo.obj
 0001:00017160       ?virtMainLoopPostUpdate@BaseEngine@@UAEXXZ 00418160 f i FlashingDemo.obj
 0001:00017170       ?virtMainLoopPreUpdate@BaseEngine@@UAEXXZ 00418170 f i FlashingDemo.obj
 0001:00017180       ?virtMainLoopStartIteration@BaseEngine@@UAEXXZ 00418180 f i FlashingDemo.obj
 0001:00017190       ?virtMouseWheel@BaseEngine@@UAEXHHHH@Z 00418190 f i FlashingDemo.obj
 0001:000171a0       ?virtPostDraw@BaseEngine@@UAEXXZ 004181a0 f i FlashingDemo.obj
 0001:000171b0       ?virtPreDraw@BaseEngine@@UAEXXZ 004181b0 f i FlashingDemo.obj
 0001:000171c0       ?virtRealMouseDown@BaseEngine@@UAEXHHH@Z 004181c0 f i FlashingDemo.obj
 0001:000171d0       ?virtRealMouseUp@BaseEngine@@UAEXHHH@Z 004181d0 f i FlashingDemo.obj
 0001:000171e0       ?virtTouchEvent@BaseEngine@@UAEXHH_J0MMMMM@Z 004181e0 f i FlashingDemo.obj
 0001:000171f0       ?virtSetupBackgroundBuffer@ImageObjectDemo@@UAEXXZ 004181f0 f   ImageObjectDemo.obj
 0001:000173c0       ?virtInitialiseObjects@ImageObjectDemo@@UAEHXZ 004183c0 f   ImageObjectDemo.obj
 0001:00017480       ?virtDrawStringsUnderneath@ImageObjectDemo@@UAEXXZ 00418480 f   ImageObjectDemo.obj
 0001:00017530       ?virtDrawStringsOnTop@ImageObjectDemo@@UAEXXZ 00418530 f   ImageObjectDemo.obj
 0001:000175b0       ?virtMouseDown@ImageObjectDemo@@UAEXHHH@Z 004185b0 f   ImageObjectDemo.obj
 0001:000175d0       ?virtKeyDown@ImageObjectDemo@@UAEXH@Z 004185d0 f   ImageObjectDemo.obj
 0001:00017730       ??$move@AAPAVRawImageData@@@std@@YA$$QAPAVRawImageData@@AAPAV1@@Z 00418730 f i ImageObjectDemo.obj
 0001:00017740       ??$move@AAPAV_Ref_count_base@std@@@std@@YA$$QAPAV_Ref_count_base@0@AAPAV10@@Z 00418740 f i ImageObjectDemo.obj
 0001:00017750       ??$swap@PAVRawImageData@@X@std@@YAXAAPAVRawImageData@@0@Z 00418750 f i ImageObjectDemo.obj
 0001:000177a0       ??$swap@PAV_Ref_count_base@std@@X@std@@YAXAAPAV_Ref_count_base@0@0@Z 004187a0 f i ImageObjectDemo.obj
 0001:000177f0       ??0BouncingImageObject@@QAE@PAVBaseEngine@@V?$basic_string@DU?$char_traits@D@std@@V?$allocator@D@2@@std@@@Z 004187f0 f i ImageObjectDemo.obj
 0001:000178e0       ??0BouncingObject@@QAE@PAVBaseEngine@@@Z 004188e0 f i ImageObjectDemo.obj
 0001:000179e0       ??1BouncingImageObject@@UAE@XZ 004189e0 f i ImageObjectDemo.obj
 0001:00017a10       ??1BouncingObject@@UAE@XZ  00418a10 f i ImageObjectDemo.obj
 0001:00017a30       ??4?$shared_ptr@VRawImageData@@@std@@QAEAAV01@ABV01@@Z 00418a30 f i ImageObjectDemo.obj
 0001:00017a70       ??4SimpleImage@@QAEAAV0@ABV0@@Z 00418a70 f i ImageObjectDemo.obj
 0001:00017ac0       ??_EBouncingImageObject@@UAEPAXI@Z 00418ac0 f i ImageObjectDemo.obj
 0001:00017ac0       ??_GBouncingImageObject@@UAEPAXI@Z 00418ac0 f i ImageObjectDemo.obj
 0001:00017b00       ??_EBouncingObject@@UAEPAXI@Z 00418b00 f i ImageObjectDemo.obj
 0001:00017b00       ??_GBouncingObject@@UAEPAXI@Z 00418b00 f i ImageObjectDemo.obj
 0001:00017b40       ?_Swap@?$_Ptr_base@VRawImageData@@@std@@IAEXAAV12@@Z 00418b40 f i ImageObjectDemo.obj
 0001:00017b80       ?drawForegroundRectangle@BaseEngine@@QAEXHHHHI@Z 00418b80 f i ImageObjectDemo.obj
 0001:00017bc0       ?drawForegroundString@BaseEngine@@QAEXHHPBDIPAVFont@@@Z 00418bc0 f i ImageObjectDemo.obj
 0001:00017c00       ?getBackgroundSurface@BaseEngine@@QAEPAVDrawingSurface@@XZ 00418c00 f i ImageObjectDemo.obj
 0001:00017c20       ?isPaused@BaseEngine@@QAE_NXZ 00418c20 f i ImageObjectDemo.obj
 0001:00017c60       ?loadImage@BaseEngine@@QAE?AVSimpleImage@@V?$basic_string@DU?$char_traits@D@std@@V?$allocator@D@2@@std@@_N@Z 00418c60 f i ImageObjectDemo.obj
 0001:00017d20       ?lockAndSetupBackground@BaseEngine@@QAEXXZ 00418d20 f i ImageObjectDemo.obj
 0001:00017d60       ?lockBackgroundForDrawing@BaseEngine@@QAEXXZ 00418d60 f i ImageObjectDemo.obj
 0001:00017d80       ?pause@BaseEngine@@QAEXXZ  00418d80 f i ImageObjectDemo.obj
 0001:00017db0       ?shrinkBy@SimpleImage@@QAE?AV1@H@Z 00418db0 f i ImageObjectDemo.obj
 0001:00017ec0       ?swap@?$shared_ptr@VRawImageData@@@std@@QAEXAAV12@@Z 00418ec0 f i ImageObjectDemo.obj
 0001:00017ee0       ?unlockBackgroundForDrawing@BaseEngine@@QAEXXZ 00418ee0 f i ImageObjectDemo.obj
 0001:00017f00       ?unpause@BaseEngine@@QAEXXZ 00418f00 f i ImageObjectDemo.obj
 0001:00017f50       ?virtDoUpdate@BouncingObject@@UAEXH@Z 00418f50 f i ImageObjectDemo.obj
 0001:00018350       ?virtDraw@BouncingImageObject@@UAEXXZ 00419350 f i ImageObjectDemo.obj
 0001:000183d0       ?virtDraw@BouncingObject@@UAEXXZ 004193d0 f i ImageObjectDemo.obj
 0001:00018470       __vsnprintf_l              00419470 f i ImageObjectDemo.obj
 0001:000184e0       __vsprintf_l               004194e0 f i ImageObjectDemo.obj
 0001:00018510       _sprintf                   00419510 f i ImageObjectDemo.obj
 0001:00018550       ?savePositions@JigsawDemo@@QAEXXZ 00419550 f   JigsawDemo.obj
 0001:000185c0       ?virtSetupBackgroundBuffer@JigsawDemo@@UAEXXZ 004195c0 f   JigsawDemo.obj
 0001:000185e0       ?virtInitialise@JigsawDemo@@UAEHXZ 004195e0 f   JigsawDemo.obj
 0001:00018630       ?virtInitialiseObjects@JigsawDemo@@UAEHXZ 00419630 f   JigsawDemo.obj
 0001:00018ad0       ?virtKeyDown@JigsawDemo@@UAEXH@Z 00419ad0 f   JigsawDemo.obj
 0001:00018bd0       ?virtMainLoopDoBeforeUpdate@JigsawDemo@@UAEXXZ 00419bd0 f   JigsawDemo.obj
 0001:00018c00       ?virtKeyUp@JigsawDemo@@UAEXH@Z 00419c00 f   JigsawDemo.obj
 0001:00018c20       ?virtRealMouseDown@JigsawDemo@@UAEXHHH@Z 00419c20 f   JigsawDemo.obj
 0001:00018e20       ?virtBackgroundMouseDown@JigsawDemo@@UAEXHHHHH@Z 00419e20 f   JigsawDemo.obj
 0001:00018e50       ?virtMouseMoved@JigsawDemo@@UAEXHH@Z 00419e50 f   JigsawDemo.obj
 0001:00018ea0       ?virtMouseUp@JigsawDemo@@UAEXHHH@Z 00419ea0 f   JigsawDemo.obj
 0001:00018f00       ?virtMouseWheel@JigsawDemo@@UAEXHHHH@Z 00419f00 f   JigsawDemo.obj
 0001:00018fc0       ?virtPreDraw@JigsawDemo@@UAEXXZ 00419fc0 f   JigsawDemo.obj
 0001:00018fd0       ?virtPostDraw@JigsawDemo@@UAEXXZ 00419fd0 f   JigsawDemo.obj
 0001:00019550       ??$?0ABV<lambda_2870de01b601283699da779de20905fc>@@X@?$_Func_impl_no_alloc@V<lambda_2870de01b601283699da779de20905fc>@@XPAVDisplayableObject@@@std@@QAE@ABV<lambda_2870de01b601283699da779de20905fc>@@@Z 0041a550 f i JigsawDemo.obj
 0001:00019590       ??$?0ABV<lambda_341a6657abb2758c42a6873833e6116f>@@X@?$_Func_impl_no_alloc@V<lambda_341a6657abb2758c42a6873833e6116f>@@XPAVDisplayableObject@@@std@@QAE@ABV<lambda_341a6657abb2758c42a6873833e6116f>@@@Z 0041a590 f i JigsawDemo.obj
 0001:000195e0       ??$?0ABV<lambda_369f3aee610e50bbd15c3a78d9c8686f>@@X@?$_Func_impl_no_alloc@V<lambda_369f3aee610e50bbd15c3a78d9c8686f>@@XPAVDisplayableObject@@@std@@QAE@ABV<lambda_369f3aee610e50bbd15c3a78d9c8686f>@@@Z 0041a5e0 f i JigsawDemo.obj
 0001:00019630       ??$?0ABV<lambda_4d3c514b9e5ad6cc29096aa3b57f98f2>@@X@?$_Func_impl_no_alloc@V<lambda_4d3c514b9e5ad6cc29096aa3b57f98f2>@@XPAVDisplayableObject@@@std@@QAE@ABV<lambda_4d3c514b9e5ad6cc29096aa3b57f98f2>@@@Z 0041a630 f i JigsawDemo.obj
 0001:00019680       ??$?0ABV<lambda_817584b2460f1bcab806f46a25c321a8>@@X@?$_Func_impl_no_alloc@V<lambda_817584b2460f1bcab806f46a25c321a8>@@XPAVDisplayableObject@@@std@@QAE@ABV<lambda_817584b2460f1bcab806f46a25c321a8>@@@Z 0041a680 f i JigsawDemo.obj
 0001:000197a0       ??$?0V<lambda_2870de01b601283699da779de20905fc>@@X@?$_Func_impl_no_alloc@V<lambda_2870de01b601283699da779de20905fc>@@XPAVDisplayableObject@@@std@@QAE@$$QAV<lambda_2870de01b601283699da779de20905fc>@@@Z 0041a7a0 f i JigsawDemo.obj
 0001:000197e0       ??$?0V<lambda_2870de01b601283699da779de20905fc>@@X@?$function@$$A6AXPAVDisplayableObject@@@Z@std@@QAE@V<lambda_2870de01b601283699da779de20905fc>@@@Z 0041a7e0 f i JigsawDemo.obj
 0001:00019860       ??$?0V<lambda_341a6657abb2758c42a6873833e6116f>@@X@?$_Func_impl_no_alloc@V<lambda_341a6657abb2758c42a6873833e6116f>@@XPAVDisplayableObject@@@std@@QAE@$$QAV<lambda_341a6657abb2758c42a6873833e6116f>@@@Z 0041a860 f i JigsawDemo.obj
 0001:000198b0       ??$?0V<lambda_341a6657abb2758c42a6873833e6116f>@@X@?$function@$$A6AXPAVDisplayableObject@@@Z@std@@QAE@V<lambda_341a6657abb2758c42a6873833e6116f>@@@Z 0041a8b0 f i JigsawDemo.obj
 0001:00019930       ??$?0V<lambda_369f3aee610e50bbd15c3a78d9c8686f>@@X@?$_Func_impl_no_alloc@V<lambda_369f3aee610e50bbd15c3a78d9c8686f>@@XPAVDisplayableObject@@@std@@QAE@$$QAV<lambda_369f3aee610e50bbd15c3a78d9c8686f>@@@Z 0041a930 f i JigsawDemo.obj
 0001:00019980       ??$?0V<lambda_369f3aee610e50bbd15c3a78d9c8686f>@@X@?$function@$$A6AXPAVDisplayableObject@@@Z@std@@QAE@V<lambda_369f3aee610e50bbd15c3a78d9c8686f>@@@Z 0041a980 f i JigsawDemo.obj
 0001:00019a00       ??$?0V<lambda_4d3c514b9e5ad6cc29096aa3b57f98f2>@@X@?$_Func_impl_no_alloc@V<lambda_4d3c514b9e5ad6cc29096aa3b57f98f2>@@XPAVDisplayableObject@@@std@@QAE@$$QAV<lambda_4d3c514b9e5ad6cc29096aa3b57f98f2>@@@Z 0041aa00 f i JigsawDemo.obj
 0001:00019a50       ??$?0V<lambda_4d3c514b9e5ad6cc29096aa3b57f98f2>@@X@?$function@$$A6AXPAVDisplayableObject@@@Z@std@@QAE@V<lambda_4d3c514b9e5ad6cc29096aa3b57f98f2>@@@Z 0041aa50 f i JigsawDemo.obj
 0001:00019ad0       ??$?0V<lambda_817584b2460f1bcab806f46a25c321a8>@@X@?$_Func_impl_no_alloc@V<lambda_817584b2460f1bcab806f46a25c321a8>@@XPAVDisplayableObject@@@std@@QAE@$$QAV<lambda_817584b2460f1bcab806f46a25c321a8>@@@Z 0041aad0 f i JigsawDemo.obj
 0001:00019b20       ??$?0V<lambda_817584b2460f1bcab806f46a25c321a8>@@X@?$function@$$A6AXPAVDisplayableObject@@@Z@std@@QAE@V<lambda_817584b2460f1bcab806f46a25c321a8>@@@Z 0041ab20 f i JigsawDemo.obj
 0001:00019df0       ??$_Adl_verify_range1@V?$_Vector_const_iterator@V?$_Vector_val@U?$_Simple_types@PAVDisplayableObject@@@std@@@std@@@std@@V12@@std@@YAXABV?$_Vector_const_iterator@V?$_Vector_val@U?$_Simple_types@PAVDisplayableObject@@@std@@@std@@@0@0U?$integral_constant@_N$00@0@@Z 0041adf0 f i JigsawDemo.obj
 0001:00019e10       ??$_Adl_verify_range1@V?$_Vector_iterator@V?$_Vector_val@U?$_Simple_types@PAVDisplayableObject@@@std@@@std@@@std@@V12@@std@@YAXABV?$_Vector_iterator@V?$_Vector_val@U?$_Simple_types@PAVDisplayableObject@@@std@@@std@@@0@0U?$integral_constant@_N$00@0@@Z 0041ae10 f i JigsawDemo.obj
 0001:00019e30       ??$_Adl_verify_range@V?$_Vector_const_iterator@V?$_Vector_val@U?$_Simple_types@PAVDisplayableObject@@@std@@@std@@@std@@V12@@std@@YAXABV?$_Vector_const_iterator@V?$_Vector_val@U?$_Simple_types@PAVDisplayableObject@@@std@@@std@@@0@0@Z 0041ae30 f i JigsawDemo.obj
 0001:00019e60       ??$_Adl_verify_range@V?$_Vector_iterator@V?$_Vector_val@U?$_Simple_types@PAVDisplayableObject@@@std@@@std@@@std@@V12@@std@@YAXABV?$_Vector_iterator@V?$_Vector_val@U?$_Simple_types@PAVDisplayableObject@@@std@@@std@@@0@0@Z 0041ae60 f i JigsawDemo.obj
 0001:00019e90       ??$_Call@AAV<lambda_2870de01b601283699da779de20905fc>@@PAVDisplayableObject@@@?$_Invoker_ret@X$00@std@@SAXAAV<lambda_2870de01b601283699da779de20905fc>@@$$QAPAVDisplayableObject@@@Z 0041ae90 f i JigsawDemo.obj
 0001:00019ec0       ??$_Call@AAV<lambda_2870de01b601283699da779de20905fc>@@PAVDisplayableObject@@@_Invoker_functor@std@@SAXAAV<lambda_2870de01b601283699da779de20905fc>@@$$QAPAVDisplayableObject@@@Z 0041aec0 f i JigsawDemo.obj
 0001:00019ef0       ??$_Call@AAV<lambda_341a6657abb2758c42a6873833e6116f>@@PAVDisplayableObject@@@?$_Invoker_ret@X$00@std@@SAXAAV<lambda_341a6657abb2758c42a6873833e6116f>@@$$QAPAVDisplayableObject@@@Z 0041aef0 f i JigsawDemo.obj
 0001:00019f20       ??$_Call@AAV<lambda_341a6657abb2758c42a6873833e6116f>@@PAVDisplayableObject@@@_Invoker_functor@std@@SAXAAV<lambda_341a6657abb2758c42a6873833e6116f>@@$$QAPAVDisplayableObject@@@Z 0041af20 f i JigsawDemo.obj
 0001:00019f50       ??$_Call@AAV<lambda_369f3aee610e50bbd15c3a78d9c8686f>@@PAVDisplayableObject@@@?$_Invoker_ret@X$00@std@@SAXAAV<lambda_369f3aee610e50bbd15c3a78d9c8686f>@@$$QAPAVDisplayableObject@@@Z 0041af50 f i JigsawDemo.obj
 0001:00019f80       ??$_Call@AAV<lambda_369f3aee610e50bbd15c3a78d9c8686f>@@PAVDisplayableObject@@@_Invoker_functor@std@@SAXAAV<lambda_369f3aee610e50bbd15c3a78d9c8686f>@@$$QAPAVDisplayableObject@@@Z 0041af80 f i JigsawDemo.obj
 0001:00019fb0       ??$_Call@AAV<lambda_4d3c514b9e5ad6cc29096aa3b57f98f2>@@PAVDisplayableObject@@@?$_Invoker_ret@X$00@std@@SAXAAV<lambda_4d3c514b9e5ad6cc29096aa3b57f98f2>@@$$QAPAVDisplayableObject@@@Z 0041afb0 f i JigsawDemo.obj
 0001:00019fe0       ??$_Call@AAV<lambda_4d3c514b9e5ad6cc29096aa3b57f98f2>@@PAVDisplayableObject@@@_Invoker_functor@std@@SAXAAV<lambda_4d3c514b9e5ad6cc29096aa3b57f98f2>@@$$QAPAVDisplayableObject@@@Z 0041afe0 f i JigsawDemo.obj
 0001:0001a010       ??$_Call@AAV<lambda_817584b2460f1bcab806f46a25c321a8>@@PAVDisplayableObject@@@?$_Invoker_ret@X$00@std@@SAXAAV<lambda_817584b2460f1bcab806f46a25c321a8>@@$$QAPAVDisplayableObject@@@Z 0041b010 f i JigsawDemo.obj
 0001:0001a040       ??$_Call@AAV<lambda_817584b2460f1bcab806f46a25c321a8>@@PAVDisplayableObject@@@_Invoker_functor@std@@SAXAAV<lambda_817584b2460f1bcab806f46a25c321a8>@@$$QAPAVDisplayableObject@@@Z 0041b040 f i JigsawDemo.obj
 0001:0001a190       ??$_Const_cast@QAVDisplayableObject@@@std@@YA@PBQAVDisplayableObject@@@Z 0041b190 f i JigsawDemo.obj
 0001:0001a1a0       ??$_Deallocate@$03$0A@@std@@YAXPAXI@Z 0041b1a0 f i JigsawDemo.obj
 0001:0001a1e0       ??$_Emplace_back_with_unused_capacity@ABQAVDisplayableObject@@@?$vector@PAVDisplayableObject@@V?$allocator@PAVDisplayableObject@@@std@@@std@@AAE@ABQAVDisplayableObject@@@Z 0041b1e0 f i JigsawDemo.obj
 0001:0001a290       ??$_Emplace_reallocate@ABQAVDisplayableObject@@@?$vector@PAVDisplayableObject@@V?$allocator@PAVDisplayableObject@@@std@@@std@@QAEPAPAVDisplayableObject@@QAPAV2@ABQAV2@@Z 0041b290 f i JigsawDemo.obj
 0001:0001a4e0       ??$_Find_unchecked1@PAPAVDisplayableObject@@PAV1@@std@@YAPAPAVDisplayableObject@@PAPAV1@QAPAV1@ABQAV1@U?$integral_constant@_N$0A@@0@@Z 0041b4e0 f i JigsawDemo.obj
 0001:0001a520       ??$_Find_unchecked@PAPAVDisplayableObject@@PAV1@@std@@YAPAPAVDisplayableObject@@QAPAV1@0ABQAV1@@Z 0041b520 f i JigsawDemo.obj
 0001:0001a550       ??$_Get_unwrapped@V?$_Vector_const_iterator@V?$_Vector_val@U?$_Simple_types@PAVDisplayableObject@@@std@@@std@@@std@@$0A@@std@@YA@ABV?$_Vector_const_iterator@V?$_Vector_val@U?$_Simple_types@PAVDisplayableObject@@@std@@@std@@@0@@Z 0041b550 f i JigsawDemo.obj
 0001:0001a560       ??$_Get_unwrapped@V?$_Vector_iterator@V?$_Vector_val@U?$_Simple_types@PAVDisplayableObject@@@std@@@std@@@std@@$0A@@std@@YA@ABV?$_Vector_iterator@V?$_Vector_val@U?$_Simple_types@PAVDisplayableObject@@@std@@@std@@@0@@Z 0041b560 f i JigsawDemo.obj
 0001:0001a570       ??$_Move_unchecked1@PAPAVDisplayableObject@@PAPAV1@@std@@YAPAPAVDisplayableObject@@PAPAV1@00U_Trivially_copyable_ptr_iterator_tag@0@@Z 0041b570 f i JigsawDemo.obj
 0001:0001a590       ??$_Move_unchecked@PAPAVDisplayableObject@@PAPAV1@@std@@YAPAPAVDisplayableObject@@PAPAV1@00@Z 0041b590 f i JigsawDemo.obj
 0001:0001a5e0       ??$_Reset@V<lambda_2870de01b601283699da779de20905fc>@@@?$_Func_class@XPAVDisplayableObject@@@std@@IAEX$$QAV<lambda_2870de01b601283699da779de20905fc>@@@Z 0041b5e0 f i JigsawDemo.obj
 0001:0001a630       ??$_Reset@V<lambda_341a6657abb2758c42a6873833e6116f>@@@?$_Func_class@XPAVDisplayableObject@@@std@@IAEX$$QAV<lambda_341a6657abb2758c42a6873833e6116f>@@@Z 0041b630 f i JigsawDemo.obj
 0001:0001a680       ??$_Reset@V<lambda_369f3aee610e50bbd15c3a78d9c8686f>@@@?$_Func_class@XPAVDisplayableObject@@@std@@IAEX$$QAV<lambda_369f3aee610e50bbd15c3a78d9c8686f>@@@Z 0041b680 f i JigsawDemo.obj
 0001:0001a6d0       ??$_Reset@V<lambda_4d3c514b9e5ad6cc29096aa3b57f98f2>@@@?$_Func_class@XPAVDisplayableObject@@@std@@IAEX$$QAV<lambda_4d3c514b9e5ad6cc29096aa3b57f98f2>@@@Z 0041b6d0 f i JigsawDemo.obj
 0001:0001a720       ??$_Reset@V<lambda_817584b2460f1bcab806f46a25c321a8>@@@?$_Func_class@XPAVDisplayableObject@@@std@@IAEX$$QAV<lambda_817584b2460f1bcab806f46a25c321a8>@@@Z 0041b720 f i JigsawDemo.obj
 0001:0001a860       ??$_Reset_impl@V?$_Func_impl_no_alloc@V<lambda_2870de01b601283699da779de20905fc>@@XPAVDisplayableObject@@@std@@V<lambda_2870de01b601283699da779de20905fc>@@@?$_Func_class@XPAVDisplayableObject@@@std@@IAEX$$QAV<lambda_2870de01b601283699da779de20905fc>@@U?$integral_constant@_N$0A@@1@@Z 0041b860 f i JigsawDemo.obj
 0001:0001a8c0       ??$_Reset_impl@V?$_Func_impl_no_alloc@V<lambda_341a6657abb2758c42a6873833e6116f>@@XPAVDisplayableObject@@@std@@V<lambda_341a6657abb2758c42a6873833e6116f>@@@?$_Func_class@XPAVDisplayableObject@@@std@@IAEX$$QAV<lambda_341a6657abb2758c42a6873833e6116f>@@U?$integral_constant@_N$0A@@1@@Z 0041b8c0 f i JigsawDemo.obj
 0001:0001a920       ??$_Reset_impl@V?$_Func_impl_no_alloc@V<lambda_369f3aee610e50bbd15c3a78d9c8686f>@@XPAVDisplayableObject@@@std@@V<lambda_369f3aee610e50bbd15c3a78d9c8686f>@@@?$_Func_class@XPAVDisplayableObject@@@std@@IAEX$$QAV<lambda_369f3aee610e50bbd15c3a78d9c8686f>@@U?$integral_constant@_N$0A@@1@@Z 0041b920 f i JigsawDemo.obj
 0001:0001a980       ??$_Reset_impl@V?$_Func_impl_no_alloc@V<lambda_4d3c514b9e5ad6cc29096aa3b57f98f2>@@XPAVDisplayableObject@@@std@@V<lambda_4d3c514b9e5ad6cc29096aa3b57f98f2>@@@?$_Func_class@XPAVDisplayableObject@@@std@@IAEX$$QAV<lambda_4d3c514b9e5ad6cc29096aa3b57f98f2>@@U?$integral_constant@_N$0A@@1@@Z 0041b980 f i JigsawDemo.obj
 0001:0001a9e0       ??$_Reset_impl@V?$_Func_impl_no_alloc@V<lambda_817584b2460f1bcab806f46a25c321a8>@@XPAVDisplayableObject@@@std@@V<lambda_817584b2460f1bcab806f46a25c321a8>@@@?$_Func_class@XPAVDisplayableObject@@@std@@IAEX$$QAV<lambda_817584b2460f1bcab806f46a25c321a8>@@U?$integral_constant@_N$0A@@1@@Z 0041b9e0 f i JigsawDemo.obj
 0001:0001ab60       ??$_Seek_wrapped@V?$_Vector_iterator@V?$_Vector_val@U?$_Simple_types@PAVDisplayableObject@@@std@@@std@@@std@@PAPAVDisplayableObject@@$0A@@std@@YAXAAV?$_Vector_iterator@V?$_Vector_val@U?$_Simple_types@PAVDisplayableObject@@@std@@@std@@@0@ABQAPAVDisplayableObject@@@Z 0041bb60 f i JigsawDemo.obj
 0001:0001ab80       ??$_Test_callable@V<lambda_2870de01b601283699da779de20905fc>@@@std@@YA_NABV<lambda_2870de01b601283699da779de20905fc>@@@Z 0041bb80 f i JigsawDemo.obj
 0001:0001aba0       ??$_Test_callable@V<lambda_2870de01b601283699da779de20905fc>@@@std@@YA_NABV<lambda_2870de01b601283699da779de20905fc>@@U?$integral_constant@_N$0A@@0@@Z 0041bba0 f i JigsawDemo.obj
 0001:0001abb0       ??$_Test_callable@V<lambda_341a6657abb2758c42a6873833e6116f>@@@std@@YA_NABV<lambda_341a6657abb2758c42a6873833e6116f>@@@Z 0041bbb0 f i JigsawDemo.obj
 0001:0001abd0       ??$_Test_callable@V<lambda_341a6657abb2758c42a6873833e6116f>@@@std@@YA_NABV<lambda_341a6657abb2758c42a6873833e6116f>@@U?$integral_constant@_N$0A@@0@@Z 0041bbd0 f i JigsawDemo.obj
 0001:0001abe0       ??$_Test_callable@V<lambda_369f3aee610e50bbd15c3a78d9c8686f>@@@std@@YA_NABV<lambda_369f3aee610e50bbd15c3a78d9c8686f>@@@Z 0041bbe0 f i JigsawDemo.obj
 0001:0001ac00       ??$_Test_callable@V<lambda_369f3aee610e50bbd15c3a78d9c8686f>@@@std@@YA_NABV<lambda_369f3aee610e50bbd15c3a78d9c8686f>@@U?$integral_constant@_N$0A@@0@@Z 0041bc00 f i JigsawDemo.obj
 0001:0001ac10       ??$_Test_callable@V<lambda_4d3c514b9e5ad6cc29096aa3b57f98f2>@@@std@@YA_NABV<lambda_4d3c514b9e5ad6cc29096aa3b57f98f2>@@@Z 0041bc10 f i JigsawDemo.obj
 0001:0001ac30       ??$_Test_callable@V<lambda_4d3c514b9e5ad6cc29096aa3b57f98f2>@@@std@@YA_NABV<lambda_4d3c514b9e5ad6cc29096aa3b57f98f2>@@U?$integral_constant@_N$0A@@0@@Z 0041bc30 f i JigsawDemo.obj
 0001:0001ac40       ??$_Test_callable@V<lambda_817584b2460f1bcab806f46a25c321a8>@@@std@@YA_NABV<lambda_817584b2460f1bcab806f46a25c321a8>@@@Z 0041bc40 f i JigsawDemo.obj
 0001:0001ac60       ??$_Test_callable@V<lambda_817584b2460f1bcab806f46a25c321a8>@@@std@@YA_NABV<lambda_817584b2460f1bcab806f46a25c321a8>@@U?$integral_constant@_N$0A@@0@@Z 0041bc60 f i JigsawDemo.obj
 0001:0001ad00       ??$_Unfancy@PAVDisplayableObject@@@std@@YAPAPAVDisplayableObject@@PAPAV1@@Z 0041bd00 f i JigsawDemo.obj
 0001:0001ad10       ??$addressof@$$CBV<lambda_2870de01b601283699da779de20905fc>@@@std@@YAPBV<lambda_2870de01b601283699da779de20905fc>@@ABV1@@Z 0041bd10 f i JigsawDemo.obj
 0001:0001ad20       ??$addressof@$$CBV<lambda_341a6657abb2758c42a6873833e6116f>@@@std@@YAPBV<lambda_341a6657abb2758c42a6873833e6116f>@@ABV1@@Z 0041bd20 f i JigsawDemo.obj
 0001:0001ad30       ??$addressof@$$CBV<lambda_369f3aee610e50bbd15c3a78d9c8686f>@@@std@@YAPBV<lambda_369f3aee610e50bbd15c3a78d9c8686f>@@ABV1@@Z 0041bd30 f i JigsawDemo.obj
 0001:0001ad40       ??$addressof@$$CBV<lambda_4d3c514b9e5ad6cc29096aa3b57f98f2>@@@std@@YAPBV<lambda_4d3c514b9e5ad6cc29096aa3b57f98f2>@@ABV1@@Z 0041bd40 f i JigsawDemo.obj
 0001:0001ad50       ??$addressof@$$CBV<lambda_817584b2460f1bcab806f46a25c321a8>@@@std@@YAPBV<lambda_817584b2460f1bcab806f46a25c321a8>@@ABV1@@Z 0041bd50 f i JigsawDemo.obj
 0001:0001ad90       ??$addressof@$$CBV?$_Vector_val@U?$_Simple_types@PAVDisplayableObject@@@std@@@std@@@std@@YAPBV?$_Vector_val@U?$_Simple_types@PAVDisplayableObject@@@std@@@0@ABV10@@Z 0041bd90 f i JigsawDemo.obj
 0001:0001ada0       ??$addressof@V?$_Vector_val@U?$_Simple_types@PAVDisplayableObject@@@std@@@std@@@std@@YAPAV?$_Vector_val@U?$_Simple_types@PAVDisplayableObject@@@std@@@0@AAV10@@Z 0041bda0 f i JigsawDemo.obj
 0001:0001adb0       ??$construct@PAVDisplayableObject@@ABQAV1@@?$_Default_allocator_traits@V?$allocator@PAVDisplayableObject@@@std@@@std@@SAXAAV?$allocator@PAVDisplayableObject@@@1@QAPAVDisplayableObject@@ABQAV3@@Z 0041bdb0 f i JigsawDemo.obj
 0001:0001adf0       ??$destroy@PAVDisplayableObject@@@?$_Default_allocator_traits@V?$allocator@PAVDisplayableObject@@@std@@@std@@SAXAAV?$allocator@PAVDisplayableObject@@@1@QAPAVDisplayableObject@@@Z 0041bdf0 f i JigsawDemo.obj
 0001:0001ae00       ??$emplace_back@ABQAVDisplayableObject@@@?$vector@PAVDisplayableObject@@V?$allocator@PAVDisplayableObject@@@std@@@std@@QAE@ABQAVDisplayableObject@@@Z 0041be00 f i JigsawDemo.obj
 0001:0001ae70       ??$find@V?$_Vector_iterator@V?$_Vector_val@U?$_Simple_types@PAVDisplayableObject@@@std@@@std@@@std@@PAVDisplayableObject@@@std@@YA?AV?$_Vector_iterator@V?$_Vector_val@U?$_Simple_types@PAVDisplayableObject@@@std@@@std@@@0@V10@V10@ABQAVDisplayableObject@@@Z 0041be70 f i JigsawDemo.obj
 0001:0001af60       ??$for_each@V?$_Vector_const_iterator@V?$_Vector_val@U?$_Simple_types@PAVDisplayableObject@@@std@@@std@@@std@@V?$function@$$A6AXPAVDisplayableObject@@@Z@2@@std@@YA?AV?$function@$$A6AXPAVDisplayableObject@@@Z@0@V?$_Vector_const_iterator@V?$_Vector_val@U?$_Simple_types@PAVDisplayableObject@@@std@@@std@@@0@0V10@@Z 0041bf60 f i JigsawDemo.obj
 0001:0001b070       ??$forward@AAV<lambda_2870de01b601283699da779de20905fc>@@@std@@YAAAV<lambda_2870de01b601283699da779de20905fc>@@AAV1@@Z 0041c070 f i JigsawDemo.obj
 0001:0001b080       ??$forward@AAV<lambda_341a6657abb2758c42a6873833e6116f>@@@std@@YAAAV<lambda_341a6657abb2758c42a6873833e6116f>@@AAV1@@Z 0041c080 f i JigsawDemo.obj
 0001:0001b090       ??$forward@AAV<lambda_369f3aee610e50bbd15c3a78d9c8686f>@@@std@@YAAAV<lambda_369f3aee610e50bbd15c3a78d9c8686f>@@AAV1@@Z 0041c090 f i JigsawDemo.obj
 0001:0001b0a0       ??$forward@AAV<lambda_4d3c514b9e5ad6cc29096aa3b57f98f2>@@@std@@YAAAV<lambda_4d3c514b9e5ad6cc29096aa3b57f98f2>@@AAV1@@Z 0041c0a0 f i JigsawDemo.obj
 0001:0001b0b0       ??$forward@AAV<lambda_817584b2460f1bcab806f46a25c321a8>@@@std@@YAAAV<lambda_817584b2460f1bcab806f46a25c321a8>@@AAV1@@Z 0041c0b0 f i JigsawDemo.obj
 0001:0001b0f0       ??$forward@ABQAVDisplayableObject@@@std@@YAABQAVDisplayableObject@@ABQAV1@@Z 0041c0f0 f i JigsawDemo.obj
 0001:0001b100       ??$forward@ABV<lambda_2870de01b601283699da779de20905fc>@@@std@@YAABV<lambda_2870de01b601283699da779de20905fc>@@ABV1@@Z 0041c100 f i JigsawDemo.obj
 0001:0001b110       ??$forward@ABV<lambda_341a6657abb2758c42a6873833e6116f>@@@std@@YAABV<lambda_341a6657abb2758c42a6873833e6116f>@@ABV1@@Z 0041c110 f i JigsawDemo.obj
 0001:0001b120       ??$forward@ABV<lambda_369f3aee610e50bbd15c3a78d9c8686f>@@@std@@YAABV<lambda_369f3aee610e50bbd15c3a78d9c8686f>@@ABV1@@Z 0041c120 f i JigsawDemo.obj
 0001:0001b130       ??$forward@ABV<lambda_4d3c514b9e5ad6cc29096aa3b57f98f2>@@@std@@YAABV<lambda_4d3c514b9e5ad6cc29096aa3b57f98f2>@@ABV1@@Z 0041c130 f i JigsawDemo.obj
 0001:0001b140       ??$forward@ABV<lambda_817584b2460f1bcab806f46a25c321a8>@@@std@@YAABV<lambda_817584b2460f1bcab806f46a25c321a8>@@ABV1@@Z 0041c140 f i JigsawDemo.obj
 0001:0001b180       ??$forward@PAVDisplayableObject@@@std@@YA$$QAPAVDisplayableObject@@AAPAV1@@Z 0041c180 f i JigsawDemo.obj
 0001:0001b190       ??$forward@V<lambda_2870de01b601283699da779de20905fc>@@@std@@YA$$QAV<lambda_2870de01b601283699da779de20905fc>@@AAV1@@Z 0041c190 f i JigsawDemo.obj
 0001:0001b1a0       ??$forward@V<lambda_341a6657abb2758c42a6873833e6116f>@@@std@@YA$$QAV<lambda_341a6657abb2758c42a6873833e6116f>@@AAV1@@Z 0041c1a0 f i JigsawDemo.obj
 0001:0001b1b0       ??$forward@V<lambda_369f3aee610e50bbd15c3a78d9c8686f>@@@std@@YA$$QAV<lambda_369f3aee610e50bbd15c3a78d9c8686f>@@AAV1@@Z 0041c1b0 f i JigsawDemo.obj
 0001:0001b1c0       ??$forward@V<lambda_4d3c514b9e5ad6cc29096aa3b57f98f2>@@@std@@YA$$QAV<lambda_4d3c514b9e5ad6cc29096aa3b57f98f2>@@AAV1@@Z 0041c1c0 f i JigsawDemo.obj
 0001:0001b1d0       ??$forward@V<lambda_817584b2460f1bcab806f46a25c321a8>@@@std@@YA$$QAV<lambda_817584b2460f1bcab806f46a25c321a8>@@AAV1@@Z 0041c1d0 f i JigsawDemo.obj
 0001:0001b210       ??$invoke@AAV<lambda_2870de01b601283699da779de20905fc>@@PAVDisplayableObject@@@std@@YAXAAV<lambda_2870de01b601283699da779de20905fc>@@$$QAPAVDisplayableObject@@@Z 0041c210 f i JigsawDemo.obj
 0001:0001b240       ??$invoke@AAV<lambda_341a6657abb2758c42a6873833e6116f>@@PAVDisplayableObject@@@std@@YAXAAV<lambda_341a6657abb2758c42a6873833e6116f>@@$$QAPAVDisplayableObject@@@Z 0041c240 f i JigsawDemo.obj
 0001:0001b270       ??$invoke@AAV<lambda_369f3aee610e50bbd15c3a78d9c8686f>@@PAVDisplayableObject@@@std@@YAXAAV<lambda_369f3aee610e50bbd15c3a78d9c8686f>@@$$QAPAVDisplayableObject@@@Z 0041c270 f i JigsawDemo.obj
 0001:0001b2a0       ??$invoke@AAV<lambda_4d3c514b9e5ad6cc29096aa3b57f98f2>@@PAVDisplayableObject@@@std@@YAXAAV<lambda_4d3c514b9e5ad6cc29096aa3b57f98f2>@@$$QAPAVDisplayableObject@@@Z 0041c2a0 f i JigsawDemo.obj
 0001:0001b2d0       ??$invoke@AAV<lambda_817584b2460f1bcab806f46a25c321a8>@@PAVDisplayableObject@@@std@@YAXAAV<lambda_817584b2460f1bcab806f46a25c321a8>@@$$QAPAVDisplayableObject@@@Z 0041c2d0 f i JigsawDemo.obj
 0001:0001b390       ??$move@AAH@std@@YA$$QAHAAH@Z 0041c390 f i JigsawDemo.obj
 0001:0001b3a0       ??$move@AAV<lambda_2870de01b601283699da779de20905fc>@@@std@@YA$$QAV<lambda_2870de01b601283699da779de20905fc>@@AAV1@@Z 0041c3a0 f i JigsawDemo.obj
 0001:0001b3b0       ??$move@AAV<lambda_341a6657abb2758c42a6873833e6116f>@@@std@@YA$$QAV<lambda_341a6657abb2758c42a6873833e6116f>@@AAV1@@Z 0041c3b0 f i JigsawDemo.obj
 0001:0001b3c0       ??$move@AAV<lambda_369f3aee610e50bbd15c3a78d9c8686f>@@@std@@YA$$QAV<lambda_369f3aee610e50bbd15c3a78d9c8686f>@@AAV1@@Z 0041c3c0 f i JigsawDemo.obj
 0001:0001b3d0       ??$move@AAV<lambda_4d3c514b9e5ad6cc29096aa3b57f98f2>@@@std@@YA$$QAV<lambda_4d3c514b9e5ad6cc29096aa3b57f98f2>@@AAV1@@Z 0041c3d0 f i JigsawDemo.obj
 0001:0001b3e0       ??$move@AAV<lambda_817584b2460f1bcab806f46a25c321a8>@@@std@@YA$$QAV<lambda_817584b2460f1bcab806f46a25c321a8>@@AAV1@@Z 0041c3e0 f i JigsawDemo.obj
 0001:0001b420       ??$move@AAV?$function@$$A6AXPAVDisplayableObject@@@Z@std@@@std@@YA$$QAV?$function@$$A6AXPAVDisplayableObject@@@Z@0@AAV10@@Z 0041c420 f i JigsawDemo.obj
 0001:0001b430       ??$swap@HX@std@@YAXAAH0@Z  0041c430 f i JigsawDemo.obj
 0001:0001b480       ??0<lambda_341a6657abb2758c42a6873833e6116f>@@QAE@QAVJigsawPiece@@@Z 0041c480 f i JigsawDemo.obj
 0001:0001b4a0       ??0<lambda_369f3aee610e50bbd15c3a78d9c8686f>@@QAE@QAVJigsawPiece@@@Z 0041c4a0 f i JigsawDemo.obj
 0001:0001b4c0       ??0<lambda_4d3c514b9e5ad6cc29096aa3b57f98f2>@@QAE@QAVJigsawPiece@@@Z 0041c4c0 f i JigsawDemo.obj
 0001:0001b4e0       ??0<lambda_817584b2460f1bcab806f46a25c321a8>@@QAE@QAVJigsawPiece@@@Z 0041c4e0 f i JigsawDemo.obj
 0001:0001b530       ??0?$_Func_base@XPAVDisplayableObject@@@std@@QAE@XZ 0041c530 f i JigsawDemo.obj
 0001:0001b550       ??0?$_Func_class@XPAVDisplayableObject@@@std@@QAE@XZ 0041c550 f i JigsawDemo.obj
 0001:0001b570       ??0?$_Vector_const_iterator@V?$_Vector_val@U?$_Simple_types@PAVDisplayableObject@@@std@@@std@@@std@@QAE@$$QAV01@@Z 0041c570 f i JigsawDemo.obj
 0001:0001b5b0       ??0?$_Vector_const_iterator@V?$_Vector_val@U?$_Simple_types@PAVDisplayableObject@@@std@@@std@@@std@@QAE@ABV01@@Z 0041c5b0 f i JigsawDemo.obj
 0001:0001b5f0       ??0?$_Vector_const_iterator@V?$_Vector_val@U?$_Simple_types@PAVDisplayableObject@@@std@@@std@@@std@@QAE@PAPAVDisplayableObject@@PBU_Container_base12@1@@Z 0041c5f0 f i JigsawDemo.obj
 0001:0001b630       ??0?$_Vector_iterator@V?$_Vector_val@U?$_Simple_types@PAVDisplayableObject@@@std@@@std@@@std@@QAE@$$QAV01@@Z 0041c630 f i JigsawDemo.obj
 0001:0001b660       ??0?$_Vector_iterator@V?$_Vector_val@U?$_Simple_types@PAVDisplayableObject@@@std@@@std@@@std@@QAE@PAPAVDisplayableObject@@PBU_Container_base12@1@@Z 0041c660 f i JigsawDemo.obj
 0001:0001b690       ??0?$function@$$A6AXPAVDisplayableObject@@@Z@std@@QAE@$$QAV01@@Z 0041c690 f i JigsawDemo.obj
 0001:0001b710       ??0?$function@$$A6AXPAVDisplayableObject@@@Z@std@@QAE@ABV01@@Z 0041c710 f i JigsawDemo.obj
 0001:0001b790       ??0CoordinateMapping@@QAE@XZ 0041c790 f i JigsawDemo.obj
 0001:0001b7b0       ??0JigsawPiece@@QAE@PAU_iobuf@@HHPAVJigsawDemo@@V?$basic_string@DU?$char_traits@D@std@@V?$allocator@D@2@@std@@HH@Z 0041c7b0 f i JigsawDemo.obj
 0001:0001bba0       ??1?$_Func_class@XPAVDisplayableObject@@@std@@QAE@XZ 0041cba0 f i JigsawDemo.obj
 0001:0001bbc0       ??1?$_Vector_const_iterator@V?$_Vector_val@U?$_Simple_types@PAVDisplayableObject@@@std@@@std@@@std@@QAE@XZ 0041cbc0 f i JigsawDemo.obj
 0001:0001bbe0       ??1?$_Vector_iterator@V?$_Vector_val@U?$_Simple_types@PAVDisplayableObject@@@std@@@std@@@std@@QAE@XZ 0041cbe0 f i JigsawDemo.obj
 0001:0001bc00       ??1?$function@$$A6AXPAVDisplayableObject@@@Z@std@@QAE@XZ 0041cc00 f i JigsawDemo.obj
 0001:0001bc20       ??1JigsawPiece@@UAE@XZ     0041cc20 f i JigsawDemo.obj
 0001:0001bc40       ??8?$_Vector_const_iterator@V?$_Vector_val@U?$_Simple_types@PAVDisplayableObject@@@std@@@std@@@std@@QBE_NABV01@@Z 0041cc40 f i JigsawDemo.obj
 0001:0001bc90       ??9?$_Vector_const_iterator@V?$_Vector_val@U?$_Simple_types@PAVDisplayableObject@@@std@@@std@@@std@@QBE_NABV01@@Z 0041cc90 f i JigsawDemo.obj
 0001:0001bce0       ??R<lambda_2870de01b601283699da779de20905fc>@@QBE@PAVDisplayableObject@@@Z 0041cce0 f i JigsawDemo.obj
 0001:0001bd10       ??R<lambda_341a6657abb2758c42a6873833e6116f>@@QBE@PAVDisplayableObject@@@Z 0041cd10 f i JigsawDemo.obj
 0001:0001bd40       ??R<lambda_369f3aee610e50bbd15c3a78d9c8686f>@@QBE@PAVDisplayableObject@@@Z 0041cd40 f i JigsawDemo.obj
 0001:0001bd70       ??R<lambda_4d3c514b9e5ad6cc29096aa3b57f98f2>@@QBE@PAVDisplayableObject@@@Z 0041cd70 f i JigsawDemo.obj
 0001:0001bda0       ??R<lambda_817584b2460f1bcab806f46a25c321a8>@@QBE@PAVDisplayableObject@@@Z 0041cda0 f i JigsawDemo.obj
 0001:0001be90       ??R?$_Func_class@XPAVDisplayableObject@@@std@@QBEXPAVDisplayableObject@@@Z 0041ce90 f i JigsawDemo.obj
 0001:0001bef0       ??_EJigsawPiece@@UAEPAXI@Z 0041cef0 f i JigsawDemo.obj
 0001:0001bef0       ??_GJigsawPiece@@UAEPAXI@Z 0041cef0 f i JigsawDemo.obj
 0001:0001bf30       ?_Clone@?$_Func_impl_no_alloc@V<lambda_2870de01b601283699da779de20905fc>@@XPAVDisplayableObject@@@std@@ABEPAV?$_Func_base@XPAVDisplayableObject@@@2@PAXU?$integral_constant@_N$0A@@2@@Z 0041cf30 f i JigsawDemo.obj
 0001:0001bf70       ?_Clone@?$_Func_impl_no_alloc@V<lambda_341a6657abb2758c42a6873833e6116f>@@XPAVDisplayableObject@@@std@@ABEPAV?$_Func_base@XPAVDisplayableObject@@@2@PAXU?$integral_constant@_N$0A@@2@@Z 0041cf70 f i JigsawDemo.obj
 0001:0001bfb0       ?_Clone@?$_Func_impl_no_alloc@V<lambda_369f3aee610e50bbd15c3a78d9c8686f>@@XPAVDisplayableObject@@@std@@ABEPAV?$_Func_base@XPAVDisplayableObject@@@2@PAXU?$integral_constant@_N$0A@@2@@Z 0041cfb0 f i JigsawDemo.obj
 0001:0001bff0       ?_Clone@?$_Func_impl_no_alloc@V<lambda_4d3c514b9e5ad6cc29096aa3b57f98f2>@@XPAVDisplayableObject@@@std@@ABEPAV?$_Func_base@XPAVDisplayableObject@@@2@PAXU?$integral_constant@_N$0A@@2@@Z 0041cff0 f i JigsawDemo.obj
 0001:0001c030       ?_Clone@?$_Func_impl_no_alloc@V<lambda_817584b2460f1bcab806f46a25c321a8>@@XPAVDisplayableObject@@@std@@ABEPAV?$_Func_base@XPAVDisplayableObject@@@2@PAXU?$integral_constant@_N$0A@@2@@Z 0041d030 f i JigsawDemo.obj
 0001:0001c130       ?_Compat@?$_Vector_const_iterator@V?$_Vector_val@U?$_Simple_types@PAVDisplayableObject@@@std@@@std@@@std@@QBEXABV12@@Z 0041d130 f i JigsawDemo.obj
 0001:0001c1d0       ?_Copy@?$_Func_impl_no_alloc@V<lambda_2870de01b601283699da779de20905fc>@@XPAVDisplayableObject@@@std@@EBEPAV?$_Func_base@XPAVDisplayableObject@@@2@PAX@Z 0041d1d0 f i JigsawDemo.obj
 0001:0001c200       ?_Copy@?$_Func_impl_no_alloc@V<lambda_341a6657abb2758c42a6873833e6116f>@@XPAVDisplayableObject@@@std@@EBEPAV?$_Func_base@XPAVDisplayableObject@@@2@PAX@Z 0041d200 f i JigsawDemo.obj
 0001:0001c230       ?_Copy@?$_Func_impl_no_alloc@V<lambda_369f3aee610e50bbd15c3a78d9c8686f>@@XPAVDisplayableObject@@@std@@EBEPAV?$_Func_base@XPAVDisplayableObject@@@2@PAX@Z 0041d230 f i JigsawDemo.obj
 0001:0001c260       ?_Copy@?$_Func_impl_no_alloc@V<lambda_4d3c514b9e5ad6cc29096aa3b57f98f2>@@XPAVDisplayableObject@@@std@@EBEPAV?$_Func_base@XPAVDisplayableObject@@@2@PAX@Z 0041d260 f i JigsawDemo.obj
 0001:0001c290       ?_Copy@?$_Func_impl_no_alloc@V<lambda_817584b2460f1bcab806f46a25c321a8>@@XPAVDisplayableObject@@@std@@EBEPAV?$_Func_base@XPAVDisplayableObject@@@2@PAX@Z 0041d290 f i JigsawDemo.obj
 0001:0001c350       ?_Delete_this@?$_Func_impl_no_alloc@V<lambda_2870de01b601283699da779de20905fc>@@XPAVDisplayableObject@@@std@@EAEX_N@Z 0041d350 f i JigsawDemo.obj
 0001:0001c3b0       ?_Delete_this@?$_Func_impl_no_alloc@V<lambda_341a6657abb2758c42a6873833e6116f>@@XPAVDisplayableObject@@@std@@EAEX_N@Z 0041d3b0 f i JigsawDemo.obj
 0001:0001c410       ?_Delete_this@?$_Func_impl_no_alloc@V<lambda_369f3aee610e50bbd15c3a78d9c8686f>@@XPAVDisplayableObject@@@std@@EAEX_N@Z 0041d410 f i JigsawDemo.obj
 0001:0001c470       ?_Delete_this@?$_Func_impl_no_alloc@V<lambda_4d3c514b9e5ad6cc29096aa3b57f98f2>@@XPAVDisplayableObject@@@std@@EAEX_N@Z 0041d470 f i JigsawDemo.obj
 0001:0001c4d0       ?_Delete_this@?$_Func_impl_no_alloc@V<lambda_817584b2460f1bcab806f46a25c321a8>@@XPAVDisplayableObject@@@std@@EAEX_N@Z 0041d4d0 f i JigsawDemo.obj
 0001:0001c650       ?_Do_call@?$_Func_impl_no_alloc@V<lambda_2870de01b601283699da779de20905fc>@@XPAVDisplayableObject@@@std@@EAEX$$QAPAVDisplayableObject@@@Z 0041d650 f i JigsawDemo.obj
 0001:0001c690       ?_Do_call@?$_Func_impl_no_alloc@V<lambda_341a6657abb2758c42a6873833e6116f>@@XPAVDisplayableObject@@@std@@EAEX$$QAPAVDisplayableObject@@@Z 0041d690 f i JigsawDemo.obj
 0001:0001c6d0       ?_Do_call@?$_Func_impl_no_alloc@V<lambda_369f3aee610e50bbd15c3a78d9c8686f>@@XPAVDisplayableObject@@@std@@EAEX$$QAPAVDisplayableObject@@@Z 0041d6d0 f i JigsawDemo.obj
 0001:0001c710       ?_Do_call@?$_Func_impl_no_alloc@V<lambda_4d3c514b9e5ad6cc29096aa3b57f98f2>@@XPAVDisplayableObject@@@std@@EAEX$$QAPAVDisplayableObject@@@Z 0041d710 f i JigsawDemo.obj
 0001:0001c750       ?_Do_call@?$_Func_impl_no_alloc@V<lambda_817584b2460f1bcab806f46a25c321a8>@@XPAVDisplayableObject@@@std@@EAEX$$QAPAVDisplayableObject@@@Z 0041d750 f i JigsawDemo.obj
 0001:0001c850       ?_Empty@?$_Func_class@XPAVDisplayableObject@@@std@@IBE_NXZ 0041d850 f i JigsawDemo.obj
 0001:0001c890       ?_Get@?$_Func_impl_no_alloc@V<lambda_2870de01b601283699da779de20905fc>@@XPAVDisplayableObject@@@std@@EBEPBXXZ 0041d890 f i JigsawDemo.obj
 0001:0001c8b0       ?_Get@?$_Func_impl_no_alloc@V<lambda_341a6657abb2758c42a6873833e6116f>@@XPAVDisplayableObject@@@std@@EBEPBXXZ 0041d8b0 f i JigsawDemo.obj
 0001:0001c8d0       ?_Get@?$_Func_impl_no_alloc@V<lambda_369f3aee610e50bbd15c3a78d9c8686f>@@XPAVDisplayableObject@@@std@@EBEPBXXZ 0041d8d0 f i JigsawDemo.obj
 0001:0001c8f0       ?_Get@?$_Func_impl_no_alloc@V<lambda_4d3c514b9e5ad6cc29096aa3b57f98f2>@@XPAVDisplayableObject@@@std@@EBEPBXXZ 0041d8f0 f i JigsawDemo.obj
 0001:0001c910       ?_Get@?$_Func_impl_no_alloc@V<lambda_817584b2460f1bcab806f46a25c321a8>@@XPAVDisplayableObject@@@std@@EBEPBXXZ 0041d910 f i JigsawDemo.obj
 0001:0001c990       ?_Getimpl@?$_Func_class@XPAVDisplayableObject@@@std@@ABEPAV?$_Func_base@XPAVDisplayableObject@@@2@XZ 0041d990 f i JigsawDemo.obj
 0001:0001c9b0       ?_Getspace@?$_Func_class@XPAVDisplayableObject@@@std@@AAEPAXXZ 0041d9b0 f i JigsawDemo.obj
 0001:0001c9d0       ?_Getspace@?$_Func_class@XPAVDisplayableObject@@@std@@ABEPBXXZ 0041d9d0 f i JigsawDemo.obj
 0001:0001c9f0       ?_Has_unused_capacity@?$vector@PAVDisplayableObject@@V?$allocator@PAVDisplayableObject@@@std@@@std@@ABE_NXZ 0041d9f0 f i JigsawDemo.obj
 0001:0001ca40       ?_Local@?$_Func_class@XPAVDisplayableObject@@@std@@ABE_NXZ 0041da40 f i JigsawDemo.obj
 0001:0001ca90       ?_Move@?$_Func_impl_no_alloc@V<lambda_2870de01b601283699da779de20905fc>@@XPAVDisplayableObject@@@std@@EAEPAV?$_Func_base@XPAVDisplayableObject@@@2@PAX@Z 0041da90 f i JigsawDemo.obj
 0001:0001cae0       ?_Move@?$_Func_impl_no_alloc@V<lambda_341a6657abb2758c42a6873833e6116f>@@XPAVDisplayableObject@@@std@@EAEPAV?$_Func_base@XPAVDisplayableObject@@@2@PAX@Z 0041dae0 f i JigsawDemo.obj
 0001:0001cb30       ?_Move@?$_Func_impl_no_alloc@V<lambda_369f3aee610e50bbd15c3a78d9c8686f>@@XPAVDisplayableObject@@@std@@EAEPAV?$_Func_base@XPAVDisplayableObject@@@2@PAX@Z 0041db30 f i JigsawDemo.obj
 0001:0001cb80       ?_Move@?$_Func_impl_no_alloc@V<lambda_4d3c514b9e5ad6cc29096aa3b57f98f2>@@XPAVDisplayableObject@@@std@@EAEPAV?$_Func_base@XPAVDisplayableObject@@@2@PAX@Z 0041db80 f i JigsawDemo.obj
 0001:0001cbd0       ?_Move@?$_Func_impl_no_alloc@V<lambda_817584b2460f1bcab806f46a25c321a8>@@XPAVDisplayableObject@@@std@@EAEPAV?$_Func_base@XPAVDisplayableObject@@@2@PAX@Z 0041dbd0 f i JigsawDemo.obj
 0001:0001cd10       ?_Reset_copy@?$_Func_class@XPAVDisplayableObject@@@std@@IAEXABV12@@Z 0041dd10 f i JigsawDemo.obj
 0001:0001cd70       ?_Reset_move@?$_Func_class@XPAVDisplayableObject@@@std@@IAEX$$QAV12@@Z 0041dd70 f i JigsawDemo.obj
 0001:0001ce10       ?_Seek_to@?$_Vector_const_iterator@V?$_Vector_val@U?$_Simple_types@PAVDisplayableObject@@@std@@@std@@@std@@QAEXPBQAVDisplayableObject@@@Z 0041de10 f i JigsawDemo.obj
 0001:0001ce40       ?_Set@?$_Func_class@XPAVDisplayableObject@@@std@@AAEXPAV?$_Func_base@XPAVDisplayableObject@@@2@@Z 0041de40 f i JigsawDemo.obj
 0001:0001ce70       ?_Target_type@?$_Func_impl_no_alloc@V<lambda_2870de01b601283699da779de20905fc>@@XPAVDisplayableObject@@@std@@EBEABVtype_info@@XZ 0041de70 f i JigsawDemo.obj
 0001:0001ce90       ?_Target_type@?$_Func_impl_no_alloc@V<lambda_341a6657abb2758c42a6873833e6116f>@@XPAVDisplayableObject@@@std@@EBEABVtype_info@@XZ 0041de90 f i JigsawDemo.obj
 0001:0001ceb0       ?_Target_type@?$_Func_impl_no_alloc@V<lambda_369f3aee610e50bbd15c3a78d9c8686f>@@XPAVDisplayableObject@@@std@@EBEABVtype_info@@XZ 0041deb0 f i JigsawDemo.obj
 0001:0001ced0       ?_Target_type@?$_Func_impl_no_alloc@V<lambda_4d3c514b9e5ad6cc29096aa3b57f98f2>@@XPAVDisplayableObject@@@std@@EBEABVtype_info@@XZ 0041ded0 f i JigsawDemo.obj
 0001:0001cef0       ?_Target_type@?$_Func_impl_no_alloc@V<lambda_817584b2460f1bcab806f46a25c321a8>@@XPAVDisplayableObject@@@std@@EBEABVtype_info@@XZ 0041def0 f i JigsawDemo.obj
 0001:0001cf70       ?_Tidy@?$_Func_class@XPAVDisplayableObject@@@std@@IAEXXZ 0041df70 f i JigsawDemo.obj
 0001:0001cff0       ?_Umove@?$vector@PAVDisplayableObject@@V?$allocator@PAVDisplayableObject@@@std@@@std@@AAEPAPAVDisplayableObject@@PAPAV3@00@Z 0041dff0 f i JigsawDemo.obj
 0001:0001d030       ?_Unwrapped@?$_Vector_const_iterator@V?$_Vector_val@U?$_Simple_types@PAVDisplayableObject@@@std@@@std@@@std@@QBEPBQAVDisplayableObject@@XZ 0041e030 f i JigsawDemo.obj
 0001:0001d050       ?_Unwrapped@?$_Vector_iterator@V?$_Vector_val@U?$_Simple_types@PAVDisplayableObject@@@std@@@std@@@std@@QBEPAPAVDisplayableObject@@XZ 0041e050 f i JigsawDemo.obj
 0001:0001d070       ?_Verify_range@std@@YAXABV?$_Vector_const_iterator@V?$_Vector_val@U?$_Simple_types@PAVDisplayableObject@@@std@@@std@@@1@0@Z 0041e070 f i JigsawDemo.obj
 0001:0001d170       ?applyToAll@DisplayableObjectContainer@@QBEXV?$function@$$A6AXPAVDisplayableObject@@@Z@std@@@Z 0041e170 f i JigsawDemo.obj
 0001:0001d250       ?begin@?$vector@PAVDisplayableObject@@V?$allocator@PAVDisplayableObject@@@std@@@std@@QAE?AV?$_Vector_iterator@V?$_Vector_val@U?$_Simple_types@PAVDisplayableObject@@@std@@@std@@@2@XZ 0041e250 f i JigsawDemo.obj
 0001:0001d2d0       ?begin@?$vector@PAVDisplayableObject@@V?$allocator@PAVDisplayableObject@@@std@@@std@@QBE?AV?$_Vector_const_iterator@V?$_Vector_val@U?$_Simple_types@PAVDisplayableObject@@@std@@@std@@@2@XZ 0041e2d0 f i JigsawDemo.obj
 0001:0001d350       ?changeOffset@FilterPointsTranslation@@QAEXHH@Z 0041e350 f i JigsawDemo.obj
 0001:0001d390       ?changePixelColour@CoordinateMapping@@UAE_NHHAAHPAVDrawingSurface@@@Z 0041e390 f i JigsawDemo.obj
 0001:0001d3b0       ?checkForLinksWithOthers@JigsawPiece@@QAEXXZ 0041e3b0 f i JigsawDemo.obj
 0001:0001d4d0       ?checkJoinBottom@JigsawPiece@@QAEXPAV1@@Z 0041e4d0 f i JigsawDemo.obj
 0001:0001d5a0       ?checkJoinLeft@JigsawPiece@@QAEXPAV1@@Z 0041e5a0 f i JigsawDemo.obj
 0001:0001d670       ?checkJoinRight@JigsawPiece@@QAEXPAV1@@Z 0041e670 f i JigsawDemo.obj
 0001:0001d740       ?checkJoinTop@JigsawPiece@@QAEXPAV1@@Z 0041e740 f i JigsawDemo.obj
 0001:0001d810       ?compress@FilterPointsScaling@@QAEXXZ 0041e810 f i JigsawDemo.obj
 0001:0001d840       ?compressX@FilterPointsScaling@@QAEXXZ 0041e840 f i JigsawDemo.obj
 0001:0001d890       ?compressY@FilterPointsScaling@@QAEXXZ 0041e890 f i JigsawDemo.obj
 0001:0001d8e0       ?convertClickedToVirtualPixelXPosition@BaseEngine@@QAEHH@Z 0041e8e0 f i JigsawDemo.obj
 0001:0001d910       ?convertClickedToVirtualPixelYPosition@BaseEngine@@QAEHH@Z 0041e910 f i JigsawDemo.obj
 0001:0001d940       ?doDragRedraw@JigsawPiece@@UAEXXZ 0041e940 f i JigsawDemo.obj
 0001:0001d960       ?end@?$vector@PAVDisplayableObject@@V?$allocator@PAVDisplayableObject@@@std@@@std@@QAE?AV?$_Vector_iterator@V?$_Vector_val@U?$_Simple_types@PAVDisplayableObject@@@std@@@std@@@2@XZ 0041e960 f i JigsawDemo.obj
 0001:0001d9e0       ?end@?$vector@PAVDisplayableObject@@V?$allocator@PAVDisplayableObject@@@std@@@std@@QBE?AV?$_Vector_const_iterator@V?$_Vector_val@U?$_Simple_types@PAVDisplayableObject@@@std@@@std@@@2@XZ 0041e9e0 f i JigsawDemo.obj
 0001:0001da60       ?erase@?$vector@PAVDisplayableObject@@V?$allocator@PAVDisplayableObject@@@std@@@std@@QAE?AV?$_Vector_iterator@V?$_Vector_val@U?$_Simple_types@PAVDisplayableObject@@@std@@@std@@@2@V?$_Vector_const_iterator@V?$_Vector_val@U?$_Simple_types@PAVDisplayableObject@@@std@@@std@@@2@@Z 0041ea60 f i JigsawDemo.obj
 0001:0001dc50       ?getMode@JigsawDemo@@QAE?AW4mode@1@XZ 0041ec50 f i JigsawDemo.obj
 0001:0001dc70       ?getXInImage@JigsawPiece@@QAEHXZ 0041ec70 f i JigsawDemo.obj
 0001:0001dc90       ?getYInImage@JigsawPiece@@QAEHXZ 0041ec90 f i JigsawDemo.obj
 0001:0001dcb0       ?joinBottom@JigsawPiece@@QAEXPAV1@@Z 0041ecb0 f i JigsawDemo.obj
 0001:0001dce0       ?joinLeft@JigsawPiece@@QAEXPAV1@@Z 0041ece0 f i JigsawDemo.obj
 0001:0001dd10       ?joinRight@JigsawPiece@@QAEXPAV1@@Z 0041ed10 f i JigsawDemo.obj
 0001:0001dd40       ?joinTop@JigsawPiece@@QAEXPAV1@@Z 0041ed40 f i JigsawDemo.obj
 0001:0001dd70       ?loadImage@ImageManager@@SA?AVSimpleImage@@V?$basic_string@DU?$char_traits@D@std@@V?$allocator@D@2@@std@@_N@Z 0041ed70 f i JigsawDemo.obj
 0001:0001de30       ?mapCoordinates@JigsawPiece@@UAE_NAAN0ABVSimpleImage@@@Z 0041ee30 f i JigsawDemo.obj
 0001:0001e000       ?moveToLast@DisplayableObjectContainer@@QAE_NPAVDisplayableObject@@@Z 0041f000 f i JigsawDemo.obj
 0001:0001e190       ?push_back@?$vector@PAVDisplayableObject@@V?$allocator@PAVDisplayableObject@@@std@@@std@@QAEXABQAVDisplayableObject@@@Z 0041f190 f i JigsawDemo.obj
 0001:0001e1b0       ?recursiveDrag@JigsawPiece@@UAEXHH@Z 0041f1b0 f i JigsawDemo.obj
 0001:0001e310       ?setFilter@JigsawPiece@@QAEXPAVPieceFilter@@@Z 0041f310 f i JigsawDemo.obj
 0001:0001e330       ?setOffset@FilterPointsTranslation@@QAEXHH@Z 0041f330 f i JigsawDemo.obj
 0001:0001e360       ?shouldDraw@PieceFilter@@QAE_NHH@Z 0041f360 f i JigsawDemo.obj
 0001:0001e3e0       ?stretch@FilterPointsScaling@@QAEXXZ 0041f3e0 f i JigsawDemo.obj
 0001:0001e410       ?stretchX@FilterPointsScaling@@QAEXXZ 0041f410 f i JigsawDemo.obj
 0001:0001e460       ?stretchY@FilterPointsScaling@@QAEXXZ 0041f460 f i JigsawDemo.obj
 0001:0001e4b0       ?virtDraw@JigsawPiece@@UAEXXZ 0041f4b0 f i JigsawDemo.obj
 0001:0001e560       ?virtMouseDown@JigsawPiece@@UAEXHHH@Z 0041f560 f i JigsawDemo.obj
 0001:0001e590       ?virtMouseMoved@JigsawPiece@@UAEXHH@Z 0041f590 f i JigsawDemo.obj
 0001:0001e670       ?virtMouseUp@JigsawPiece@@UAEXHHH@Z 0041f670 f i JigsawDemo.obj
 0001:0001e730       ?virtSingleItemMouseDown@JigsawPiece@@UAE_NHHH@Z 0041f730 f i JigsawDemo.obj
 0001:0001e8a0       ?write@JigsawPiece@@QAEXPAU_iobuf@@H@Z 0041f8a0 f i JigsawDemo.obj
 0001:0001e910       ?zoomIn@JigsawDemo@@QAEXXZ 0041f910 f i JigsawDemo.obj
 0001:0001e9e0       ?zoomOut@JigsawDemo@@QAEXXZ 0041f9e0 f i JigsawDemo.obj
 0001:0001eab0       _fprintf                   0041fab0 f i JigsawDemo.obj
 0001:0001eaf0       _SDL_main                  0041faf0 f   mainfunction.obj
 0001:0001eb50       ?doProgram@@YAHHQAPAD@Z    0041fb50 f   mainfunction.obj
 0001:0001ecc0       ??_GImageManager@@QAEPAXI@Z 0041fcc0 f i mainfunction.obj
 0001:0001ed60       ??0BaseEngine@@QAE@XZ      0041fd60 f   BaseEngine.obj
 0001:0001efa0       ??1BaseEngine@@UAE@XZ      0041ffa0 f   BaseEngine.obj
 0001:0001eff0       ?initialise@BaseEngine@@QAEHPBDHH0H@Z 0041fff0 f   BaseEngine.obj
 0001:0001f120       ?deinitialise@BaseEngine@@QAEXXZ 00420120 f   BaseEngine.obj
 0001:0001f150       ?mainLoop@BaseEngine@@QAEHXZ 00420150 f   BaseEngine.obj
 0001:0001f280       ?handleEvent@BaseEngine@@QAE_NPATSDL_Event@@@Z 00420280 f   BaseEngine.obj
 0001:0001f8c0       ?isKeyPressed@BaseEngine@@QBE_NH@Z 004208c0 f   BaseEngine.obj
 0001:0001f8f0       ?virtKeyUp@BaseEngine@@UAEXH@Z 004208f0 f   BaseEngine.obj
 0001:0001f900       ?virtKeyDown@BaseEngine@@UAEXH@Z 00420900 f   BaseEngine.obj
 0001:0001f910       ?virtMouseMoved@BaseEngine@@UAEXHH@Z 00420910 f   BaseEngine.obj
 0001:0001f920       ?virtMouseDown@BaseEngine@@UAEXHHH@Z 00420920 f   BaseEngine.obj
 0001:0001f930       ?virtMouseUp@BaseEngine@@UAEXHHH@Z 00420930 f   BaseEngine.obj
 0001:0001f940       ?virtInitialise@BaseEngine@@UAEHXZ 00420940 f   BaseEngine.obj
 0001:0001f990       ?virtCreateWindows@BaseEngine@@UAEXPBD@Z 00420990 f   BaseEngine.obj
 0001:0001fa20       ?virtCreateSurfaces@BaseEngine@@UAEXXZ 00420a20 f   BaseEngine.obj
 0001:0001fa70       ?virtCleanUp@BaseEngine@@UAEXXZ 00420a70 f   BaseEngine.obj
 0001:0001fa80       ?virtSetupBackgroundBuffer@BaseEngine@@UAEXXZ 00420a80 f   BaseEngine.obj
 0001:0001faa0       ?virtDrawStringsUnderneath@BaseEngine@@UAEXXZ 00420aa0 f   BaseEngine.obj
 0001:0001fab0       ?virtDrawStringsOnTop@BaseEngine@@UAEXXZ 00420ab0 f   BaseEngine.obj
 0001:0001fac0       ?virtCheckForUpdateTime@BaseEngine@@UAE_NXZ 00420ac0 f   BaseEngine.obj
 0001:0001fb10       ?virtRenderScreen@BaseEngine@@UAEXXZ 00420b10 f   BaseEngine.obj
 0001:0001fca0       ?getColour@BaseEngine@@QBEIH@Z 00420ca0 f   BaseEngine.obj
 0001:0001fee0       ?virtInitialiseObjects@BaseEngine@@UAEHXZ 00420ee0 f   BaseEngine.obj
 0001:0001ff10       ?drawAllObjects@BaseEngine@@UAEXXZ 00420f10 f   BaseEngine.obj
 0001:000200f0       ?updateAllObjects@BaseEngine@@UAEXH@Z 004210f0 f   BaseEngine.obj
 0001:000202d0       _mydebug                   004212d0 f   BaseEngine.obj
 0001:00020850       ??$?0ABV?$allocator@PAVDisplayableObject@@@std@@$$V@?$_Compressed_pair@V?$allocator@PAVDisplayableObject@@@std@@V?$_Vector_val@U?$_Simple_types@PAVDisplayableObject@@@std@@@2@$00@std@@QAE@U_One_then_variadic_args_t@1@ABV?$allocator@PAVDisplayableObject@@@1@@Z 00421850 f i BaseEngine.obj
 0001:00020880       ??$?0ABV?$allocator@PAVDisplayableObject@@@std@@X@?$_Vector_alloc@U?$_Vec_base_types@PAVDisplayableObject@@V?$allocator@PAVDisplayableObject@@@std@@@std@@@std@@QAE@ABV?$allocator@PAVDisplayableObject@@@1@@Z 00421880 f i BaseEngine.obj
 0001:000208d0       ??$?0PAVDisplayableObject@@@?$allocator@U_Container_proxy@std@@@std@@QAE@ABV?$allocator@PAVDisplayableObject@@@1@@Z 004218d0 f i BaseEngine.obj
 0001:00020d70       ??$forward@ABV?$allocator@PAVDisplayableObject@@@std@@@std@@YAABV?$allocator@PAVDisplayableObject@@@0@ABV10@@Z 00421d70 f i BaseEngine.obj
 0001:00020e40       ??0?$_Vector_iterator@V?$_Vector_val@U?$_Simple_types@PAVDisplayableObject@@@std@@@std@@@std@@QAE@ABV01@@Z 00421e40 f i BaseEngine.obj
 0001:00020e70       ??0?$_Vector_val@U?$_Simple_types@PAVDisplayableObject@@@std@@@std@@QAE@XZ 00421e70 f i BaseEngine.obj
 0001:00020ec0       ??0?$allocator@PAVDisplayableObject@@@std@@QAE@XZ 00421ec0 f i BaseEngine.obj
 0001:00020ee0       ??0?$vector@PAVDisplayableObject@@V?$allocator@PAVDisplayableObject@@@std@@@std@@QAE@IABV?$allocator@PAVDisplayableObject@@@1@@Z 00421ee0 f i BaseEngine.obj
 0001:00020fe0       ??0DisplayableObjectContainer@@QAE@H@Z 00421fe0 f i BaseEngine.obj
 0001:00021040       ??0FilterPoints@@QAE@XZ    00422040 f i BaseEngine.obj
 0001:00021060       ??1?$_Vector_alloc@U?$_Vec_base_types@PAVDisplayableObject@@V?$allocator@PAVDisplayableObject@@@std@@@std@@@std@@QAE@XZ 00422060 f i BaseEngine.obj
 0001:000210b0       ??1?$vector@PAVDisplayableObject@@V?$allocator@PAVDisplayableObject@@@std@@@std@@QAE@XZ 004220b0 f i BaseEngine.obj
 0001:00021110       ??1DisplayableObjectContainer@@UAE@XZ 00422110 f i BaseEngine.obj
 0001:00021180       ??D?$_Vector_const_iterator@V?$_Vector_val@U?$_Simple_types@PAVDisplayableObject@@@std@@@std@@@std@@QBEABQAVDisplayableObject@@XZ 00422180 f i BaseEngine.obj
 0001:00021290       ??D?$_Vector_iterator@V?$_Vector_val@U?$_Simple_types@PAVDisplayableObject@@@std@@@std@@@std@@QBEAAPAVDisplayableObject@@XZ 00422290 f i BaseEngine.obj
 0001:000212b0       ??E?$_Vector_const_iterator@V?$_Vector_val@U?$_Simple_types@PAVDisplayableObject@@@std@@@std@@@std@@QAEAAV01@XZ 004222b0 f i BaseEngine.obj
 0001:000213c0       ??E?$_Vector_iterator@V?$_Vector_val@U?$_Simple_types@PAVDisplayableObject@@@std@@@std@@@std@@QAE?AV01@H@Z 004223c0 f i BaseEngine.obj
 0001:00021470       ??E?$_Vector_iterator@V?$_Vector_val@U?$_Simple_types@PAVDisplayableObject@@@std@@@std@@@std@@QAEAAV01@XZ 00422470 f i BaseEngine.obj
 0001:00021600       ??_EBaseEngine@@UAEPAXI@Z  00422600 f i BaseEngine.obj
 0001:00021600       ??_GBaseEngine@@UAEPAXI@Z  00422600 f i BaseEngine.obj
 0001:00021640       ??_EDisplayableObjectContainer@@UAEPAXI@Z 00422640 f i BaseEngine.obj
 0001:00021640       ??_GDisplayableObjectContainer@@UAEPAXI@Z 00422640 f i BaseEngine.obj
 0001:00021680       ?_Alloc_proxy@?$_Vector_alloc@U?$_Vec_base_types@PAVDisplayableObject@@V?$allocator@PAVDisplayableObject@@@std@@@std@@@std@@QAEXXZ 00422680 f i BaseEngine.obj
 0001:00021720       ?_Buy@?$vector@PAVDisplayableObject@@V?$allocator@PAVDisplayableObject@@@std@@@std@@AAE_NI@Z 00422720 f i BaseEngine.obj
 0001:000217f0       ?_Free_proxy@?$_Vector_alloc@U?$_Vec_base_types@PAVDisplayableObject@@V?$allocator@PAVDisplayableObject@@@std@@@std@@@std@@QAEXXZ 004227f0 f i BaseEngine.obj
 0001:00021870       ?_Myproxy@?$_Vector_alloc@U?$_Vec_base_types@PAVDisplayableObject@@V?$allocator@PAVDisplayableObject@@@std@@@std@@@std@@QAEAAPAU_Container_proxy@2@XZ 00422870 f i BaseEngine.obj
 0001:00021890       ?_Tidy@?$vector@PAVDisplayableObject@@V?$allocator@PAVDisplayableObject@@@std@@@std@@AAEXXZ 00422890 f i BaseEngine.obj
 0001:00021940       ?getHasActed@DisplayableObject@@QBE_NXZ 00422940 f i BaseEngine.obj
 0001:00021960       ?isTimeToAct@BaseEngine@@QBE_NXZ 00422960 f i BaseEngine.obj
 0001:000219a0       ?mySDLUpdateTexture@DrawingSurface@@QAEXPAUSDL_Texture@@@Z 004229a0 f i BaseEngine.obj
 0001:000219e0       ?setHasActed@DisplayableObject@@QAEX_N@Z 004229e0 f i BaseEngine.obj
 0001:00021a00       ?setTimeToAct@BaseEngine@@QAEXH@Z 00422a00 f i BaseEngine.obj
 0001:00021a30       ?symbolToKeycode@BaseEngine@@SAHH@Z 00422a30 f i BaseEngine.obj
 0001:00021f20       ?virtMainLoopDoBeforeUpdate@BaseEngine@@UAEXXZ 00422f20 f i BaseEngine.obj
 0001:00021f30       ??0DisplayableObject@@QAE@PAVBaseEngine@@HH_N@Z 00422f30 f   DisplayableObject.obj
 0001:00021ff0       ??0DisplayableObject@@QAE@HHPAVBaseEngine@@HH_N@Z 00422ff0 f   DisplayableObject.obj
 0001:000220b0       ??1DisplayableObject@@UAE@XZ 004230b0 f   DisplayableObject.obj
 0001:000220d0       ?virtDraw@DisplayableObject@@UAEXXZ 004230d0 f   DisplayableObject.obj
 0001:00022170       ?virtDoUpdate@DisplayableObject@@UAEXH@Z 00423170 f   DisplayableObject.obj
 0001:00022180       ?redrawDisplay@DisplayableObject@@QAEXXZ 00423180 f   DisplayableObject.obj
 0001:000221a0       ?redrawRectangle@DisplayableObject@@QAEXXZ 004231a0 f   DisplayableObject.obj
 0001:000221e0       ?virtIsObjectInRedrawArea@DisplayableObject@@QAE_NXZ 004231e0 f   DisplayableObject.obj
 0001:00022280       ?fixPosition@DisplayableObject@@QAEXXZ 00423280 f   DisplayableObject.obj
 0001:00022450       ??_GDisplayableObject@@UAEPAXI@Z 00423450 f i DisplayableObject.obj
 0001:00022450       ??_EDisplayableObject@@UAEPAXI@Z 00423450 f i DisplayableObject.obj
 0001:00022490       ?convertVirtualPixelToClickedXPosition@BaseEngine@@QAEHH@Z 00423490 f i DisplayableObject.obj
 0001:000224c0       ?convertVirtualPixelToClickedYPosition@BaseEngine@@QAEHH@Z 004234c0 f i DisplayableObject.obj
 0001:000224f0       ?convertVirtualToRealXPosition@DrawingSurface@@QAEHH@Z 004234f0 f i DisplayableObject.obj
 0001:00022530       ?convertVirtualToRealYPosition@DrawingSurface@@QAEHH@Z 00423530 f i DisplayableObject.obj
 0001:00022570       ?redrawRectangle@BaseEngine@@QAEXHHHH@Z 00423570 f i DisplayableObject.obj
 0001:000226e0       ?setForegroundPixel@BaseEngine@@QAEXHHI@Z 004236e0 f i DisplayableObject.obj
 0001:00022710       ??0FontManager@@QAE@XZ     00423710 f   FontManager.obj
 0001:00022780       ??1FontManager@@QAE@XZ     00423780 f   FontManager.obj
 0001:00022800       ?getFont@FontManager@@QAEPAVFont@@PBDH@Z 00423800 f   FontManager.obj
 0001:000229a0       ?loadFonts@FontManager@@QAEXXZ 004239a0 f   FontManager.obj
 0001:00022ad0       ??$growArrayOfObjects@PAVFont@@@@YAPAPAVFont@@PAPAV0@AAHH@Z 00423ad0 f i FontManager.obj
 0001:00022b90       ??0Font@@QAE@PBDH@Z        00423b90 f i FontManager.obj
 0001:00022c10       ??1Font@@QAE@XZ            00423c10 f i FontManager.obj
 0001:00022c90       ??_GFont@@QAEPAXI@Z        00423c90 f i FontManager.obj
 0001:00022cd0       ?getName@Font@@QAEPBDXZ    00423cd0 f i FontManager.obj
 0001:00022cf0       ?getSize@Font@@QAEHXZ      00423cf0 f i FontManager.obj
 0001:00022d10       ?virtSetupBackgroundBuffer@ImageMappingDemo@@UAEXXZ 00423d10 f   ImageMappingDemo.obj
 0001:00022e10       ?virtInitialiseObjects@ImageMappingDemo@@UAEHXZ 00423e10 f   ImageMappingDemo.obj
 0001:00023180       ?virtKeyDown@ImageMappingDemo@@UAEXH@Z 00424180 f   ImageMappingDemo.obj
 0001:000231b0       ?virtMainLoopDoBeforeUpdate@ImageMappingDemo@@UAEXXZ 004241b0 f   ImageMappingDemo.obj
 0001:00023240       ?mapCoordinates@ImageMappingDemo@@UAE_NAAN0ABVSimpleImage@@@Z 00424240 f   ImageMappingDemo.obj
 0001:000236b0       ??0MappableImageObject@@QAE@PAVCoordinateMapping@@HHPAVBaseEngine@@V?$basic_string@DU?$char_traits@D@std@@V?$allocator@D@2@@std@@_N3@Z 004246b0 f i ImageMappingDemo.obj
 0001:00023770       ??1MappableImageObject@@UAE@XZ 00424770 f i ImageMappingDemo.obj
 0001:00023790       ??_EMappableImageObject@@UAEPAXI@Z 00424790 f i ImageMappingDemo.obj
 0001:00023790       ??_GMappableImageObject@@UAEPAXI@Z 00424790 f i ImageMappingDemo.obj
 0001:000237d0       ?getPixelColour@MappableImageObject@@QAEHHH@Z 004247d0 f i ImageMappingDemo.obj
 0001:00023800       ?getPixelColour@SimpleImage@@QBEHHH@Z 00424800 f i ImageMappingDemo.obj
 0001:00023830       ?getRawPixelColour@RawImageData@@QBEHHH@Z 00424830 f i ImageMappingDemo.obj
 0001:00023880       ?getTheData@SimpleImage@@QBEABV?$shared_ptr@VRawImageData@@@std@@XZ 00424880 f i ImageMappingDemo.obj
 0001:000238a0       ?setOpaque@RawImageData@@QAEXXZ 004248a0 f i ImageMappingDemo.obj
 0001:00023910       ?setRotation@CoordinateMappingRotate@@QAEXN@Z 00424910 f i ImageMappingDemo.obj
 0001:00023930       ?setTransparencyColour@MappableImageObject@@QAEXH@Z 00424930 f i ImageMappingDemo.obj
 0001:00023960       ?setTransparencyColour@SimpleImage@@QAEXH@Z 00424960 f i ImageMappingDemo.obj
 0001:000239d0       ?setTransparentColour@RawImageData@@QAEXI@Z 004249d0 f i ImageMappingDemo.obj
 0001:00023af0       ?setXShift@CoordinateMappingShiftXY@@QAEXN@Z 00424af0 f i ImageMappingDemo.obj
 0001:00023b10       ?setYShift@CoordinateMappingShiftXY@@QAEXN@Z 00424b10 f i ImageMappingDemo.obj
 0001:00023b30       ?virtDraw@MappableImageObject@@UAEXXZ 00424b30 f i ImageMappingDemo.obj
 0001:00023bc0       ??0SimpleImage@@QAE@XZ     00424bc0 f   SimpleImage.obj
 0001:00023bf0       ??0SimpleImage@@QAE@V?$shared_ptr@VRawImageData@@@std@@@Z 00424bf0 f   SimpleImage.obj
 0001:00023c30       ?exists@SimpleImage@@QBE_NXZ 00424c30 f   SimpleImage.obj
 0001:00023c50       ?renderImage@SimpleImage@@QBEXPAVDrawingSurface@@HHHHHH@Z 00424c50 f   SimpleImage.obj
 0001:00023d60       ?renderImageWithMask@SimpleImage@@QBEXPAVDrawingSurface@@HHHHHHH@Z 00424d60 f   SimpleImage.obj
 0001:00023ea0       ?renderImageWithMaskAndTransparency@SimpleImage@@QBEXPAVDrawingSurface@@HHHHHHHH@Z 00424ea0 f   SimpleImage.obj
 0001:00024070       ?adjustXYWidthHeight@SimpleImage@@SA_NPAVDrawingSurface@@AAH11111@Z 00425070 f   SimpleImage.obj
 0001:00024270       ?renderImageBlit@SimpleImage@@QAEXPAVBaseEngine@@PAVDrawingSurface@@HHHHHHHH@Z 00425270 f   SimpleImage.obj
 0001:00024520       ?renderImageApplyingMapping@SimpleImage@@QBEXPAVBaseEngine@@PAVDrawingSurface@@HHHHPAVCoordinateMapping@@@Z 00425520 f   SimpleImage.obj
 0001:00024b30       ??0CroppedCoordinateMapping@@QAE@XZ 00425b30 f i SimpleImage.obj
 0001:00024b60       ??BDrawingSurface@@QAEPAUSDL_Surface@@XZ 00425b60 f i SimpleImage.obj
 0001:00024b80       ?getSurface@RawImageData@@QAEPAUSDL_Surface@@XZ 00425b80 f i SimpleImage.obj
 0001:00024ba0       ?mapCoordinates@CroppedCoordinateMapping@@UAE_NAAN0ABVSimpleImage@@@Z 00425ba0 f i SimpleImage.obj
 0001:00024c40       ?rawGetPixel@DrawingSurface@@QBEIHH@Z 00425c40 f i SimpleImage.obj
 0001:00024cb0       ??0JasonsDemoA@@QAE@XZ     00425cb0 f   JasonsDemoA.obj
 0001:00024d20       ??1JasonsDemoA@@UAE@XZ     00425d20 f   JasonsDemoA.obj
 0001:00024d60       ?virtSetupBackgroundBuffer@JasonsDemoA@@UAEXXZ 00425d60 f   JasonsDemoA.obj
 0001:00024fa0       ?virtMouseDown@JasonsDemoA@@UAEXHHH@Z 00425fa0 f   JasonsDemoA.obj
 0001:000250c0       ?virtKeyDown@JasonsDemoA@@UAEXH@Z 004260c0 f   JasonsDemoA.obj
 0001:000250f0       ?virtInitialiseObjects@JasonsDemoA@@UAEHXZ 004260f0 f   JasonsDemoA.obj
 0001:000252e0       ??E?$_Vector_const_iterator@V?$_Vector_val@U?$_Simple_types@PAVDisplayableObject@@@std@@@std@@@std@@QAE?AV01@H@Z 004262e0 f i JasonsDemoA.obj
 0001:00025390       ??_EJasonsDemoA@@UAEPAXI@Z 00426390 f i JasonsDemoA.obj
 0001:00025390       ??_GJasonsDemoA@@UAEPAXI@Z 00426390 f i JasonsDemoA.obj
 0001:000253d0       ?drawBackgroundOval@BaseEngine@@QAEXHHHHI@Z 004263d0 f i JasonsDemoA.obj
 0001:00025410       ?getMapValue@TileManager@@QBEHHH@Z 00426410 f i JasonsDemoA.obj
 0001:00025440       ?getMapXForScreenX@TileManager@@QBEHH@Z 00426440 f i JasonsDemoA.obj
 0001:00025470       ?getMapYForScreenY@TileManager@@QBEHH@Z 00426470 f i JasonsDemoA.obj
 0001:000254a0       ?getTileHeight@TileManager@@QBEHXZ 004264a0 f i JasonsDemoA.obj
 0001:000254c0       ?getTileWidth@TileManager@@QBEHXZ 004264c0 f i JasonsDemoA.obj
 0001:000254e0       ?isValidTilePosition@TileManager@@QBE_NHH@Z 004264e0 f i JasonsDemoA.obj
 0001:00025570       ?setAllObjectsVisible@DisplayableObjectContainer@@QBEX_N@Z 00426570 f i JasonsDemoA.obj
 0001:00025680       ?setAndRedrawMapValueAt@TileManager@@QAEXHHHPAVBaseEngine@@PAVDrawingSurface@@@Z 00426680 f i JasonsDemoA.obj
 0001:00025720       ?setMapValue@TileManager@@QAEHHHH@Z 00426720 f i JasonsDemoA.obj
 0001:00025760       ?setTopLeftPositionOnScreen@TileManager@@QAEXHH@Z 00426760 f i JasonsDemoA.obj
 0001:00025790       ??0JasonsObjectA@@QAE@PAVBaseEngine@@@Z 00426790 f   JasonsObjectA.obj
 0001:000257d0       ??1JasonsObjectA@@UAE@XZ   004267d0 f   JasonsObjectA.obj
 0001:000257f0       ?virtDraw@JasonsObjectA@@UAEXXZ 004267f0 f   JasonsObjectA.obj
 0001:00025840       ?virtDoUpdate@JasonsObjectA@@UAEXH@Z 00426840 f   JasonsObjectA.obj
 0001:00025a20       ??_GJasonsObjectA@@UAEPAXI@Z 00426a20 f i JasonsObjectA.obj
 0001:00025a20       ??_EJasonsObjectA@@UAEPAXI@Z 00426a20 f i JasonsObjectA.obj
 0001:00025a60       ??0JasonsTileManager@@QAE@XZ 00426a60 f   JasonsTileManager.obj
 0001:00025a90       ??1JasonsTileManager@@UAE@XZ 00426a90 f   JasonsTileManager.obj
 0001:00025ab0       ?virtDrawTileAt@JasonsTileManager@@UBEXPAVBaseEngine@@PAVDrawingSurface@@HHHH@Z 00426ab0 f   JasonsTileManager.obj
 0001:00025b60       ??0TileManager@@QAE@HHHH@Z 00426b60 f i JasonsTileManager.obj
 0001:00025bf0       ??1TileManager@@UAE@XZ     00426bf0 f i JasonsTileManager.obj
 0001:00025c40       ??_GJasonsTileManager@@UAEPAXI@Z 00426c40 f i JasonsTileManager.obj
 0001:00025c40       ??_EJasonsTileManager@@UAEPAXI@Z 00426c40 f i JasonsTileManager.obj
 0001:00025c80       ??_ETileManager@@UAEPAXI@Z 00426c80 f i JasonsTileManager.obj
 0001:00025c80       ??_GTileManager@@UAEPAXI@Z 00426c80 f i JasonsTileManager.obj
 0001:00025cc0       ?setMapSize@TileManager@@QAEXHH@Z 00426cc0 f i JasonsTileManager.obj
 0001:00025d70       ?virtInitialise@PlayingCardsDemo@@UAEHXZ 00426d70 f   PlayingCardsDemo.obj
 0001:00025dc0       ?virtSetupBackgroundBuffer@PlayingCardsDemo@@UAEXXZ 00426dc0 f   PlayingCardsDemo.obj
 0001:00025de0       ?virtInitialiseObjects@PlayingCardsDemo@@UAEHXZ 00426de0 f   PlayingCardsDemo.obj
 0001:00026440       ?virtMouseDown@PlayingCardsDemo@@UAEXHHH@Z 00427440 f   PlayingCardsDemo.obj
 0001:00026460       ?virtKeyDown@PlayingCardsDemo@@UAEXH@Z 00427460 f   PlayingCardsDemo.obj
 0001:00026560       ?virtKeyUp@PlayingCardsDemo@@UAEXH@Z 00427560 f   PlayingCardsDemo.obj
 0001:00026580       ?virtMouseWheel@PlayingCardsDemo@@UAEXHHHH@Z 00427580 f   PlayingCardsDemo.obj
 0001:00026880       ??$?0ABV?$allocator@D@std@@$$V@?$_Compressed_pair@V?$allocator@D@std@@V?$_String_val@U?$_Simple_types@D@std@@@2@$00@std@@QAE@U_One_then_variadic_args_t@1@ABV?$allocator@D@1@@Z 00427880 f i PlayingCardsDemo.obj
 0001:000268b0       ??$?0ABV?$allocator@D@std@@X@?$_String_alloc@U?$_String_base_types@DV?$allocator@D@std@@@std@@@std@@QAE@ABV?$allocator@D@1@@Z 004278b0 f i PlayingCardsDemo.obj
 0001:00026940       ??$?0PADX@?$basic_string@DU?$char_traits@D@std@@V?$allocator@D@2@@std@@QAE@PAD0ABV?$allocator@D@1@@Z 00427940 f i PlayingCardsDemo.obj
 0001:00026a00       ??$?8VRawImageData@@@std@@YA_NABV?$shared_ptr@VRawImageData@@@0@$$T@Z 00427a00 f i PlayingCardsDemo.obj
 0001:00026a30       ??$_Adl_verify_range1@PADPAD@std@@YAXABQAD0U?$integral_constant@_N$00@0@@Z 00427a30 f i PlayingCardsDemo.obj
 0001:00026a50       ??$_Adl_verify_range@PADPAD@std@@YAXABQAD0@Z 00427a50 f i PlayingCardsDemo.obj
 0001:00026a80       ??$_Get_unwrapped@D@std@@YAPADQAD@Z 00427a80 f i PlayingCardsDemo.obj
 0001:00026a90       ??$_Integral_to_string@DH@std@@YA?AV?$basic_string@DU?$char_traits@D@std@@V?$allocator@D@2@@0@H@Z 00427a90 f i PlayingCardsDemo.obj
 0001:00026b60       ??$_Random_shuffle1@V?$_Vector_iterator@V?$_Vector_val@U?$_Simple_types@PAVDisplayableObject@@@std@@@std@@@std@@V?$_Rng_from_urng@HU_Rand_urng_from_func@std@@@2@@std@@YAXV?$_Vector_iterator@V?$_Vector_val@U?$_Simple_types@PAVDisplayableObject@@@std@@@std@@@0@0AAV?$_Rng_from_urng@HU_Rand_urng_from_func@std@@@0@@Z 00427b60 f i PlayingCardsDemo.obj
 0001:00026d30       ??$_UIntegral_to_buff@DI@std@@YAPADPADI@Z 00427d30 f i PlayingCardsDemo.obj
 0001:00026e20       ??$_Verify_range@D@std@@YAXQBD0@Z 00427e20 f i PlayingCardsDemo.obj
 0001:00026ea0       ??$end@D$0BF@@std@@YAPADAAY0BF@D@Z 00427ea0 f i PlayingCardsDemo.obj
 0001:00026eb0       ??$for_each@V?$_Vector_const_iterator@V?$_Vector_val@U?$_Simple_types@PAVDisplayableObject@@@std@@@std@@@std@@V<lambda_30e6a374895662ded208c9cbe5dce392>@@@std@@YA?AV<lambda_30e6a374895662ded208c9cbe5dce392>@@V?$_Vector_const_iterator@V?$_Vector_val@U?$_Simple_types@PAVDisplayableObject@@@std@@@std@@@0@0V1@@Z 00427eb0 f i PlayingCardsDemo.obj
 0001:00026fa0       ??$for_each@V?$_Vector_iterator@V?$_Vector_val@U?$_Simple_types@PAVDisplayableObject@@@std@@@std@@@std@@V<lambda_357b4ee994050758da51b6d8503d100a>@@@std@@YA?AV<lambda_357b4ee994050758da51b6d8503d100a>@@V?$_Vector_iterator@V?$_Vector_val@U?$_Simple_types@PAVDisplayableObject@@@std@@@std@@@0@0V1@@Z 00427fa0 f i PlayingCardsDemo.obj
 0001:00027090       ??$forward@ABV?$allocator@D@std@@@std@@YAABV?$allocator@D@0@ABV10@@Z 00428090 f i PlayingCardsDemo.obj
 0001:000270a0       ??$iter_swap@PAPAVDisplayableObject@@PAPAV1@@std@@YAXPAPAVDisplayableObject@@0@Z 004280a0 f i PlayingCardsDemo.obj
 0001:000270c0       ??$move@AAPAVDisplayableObject@@@std@@YA$$QAPAVDisplayableObject@@AAPAV1@@Z 004280c0 f i PlayingCardsDemo.obj
 0001:000270d0       ??$random_shuffle@V?$_Vector_iterator@V?$_Vector_val@U?$_Simple_types@PAVDisplayableObject@@@std@@@std@@@std@@@std@@YAXV?$_Vector_iterator@V?$_Vector_val@U?$_Simple_types@PAVDisplayableObject@@@std@@@std@@@0@0@Z 004280d0 f i PlayingCardsDemo.obj
 0001:00027180       ??$shuffle@V?$_Vector_iterator@V?$_Vector_val@U?$_Simple_types@PAVDisplayableObject@@@std@@@std@@@std@@AAU_Rand_urng_from_func@2@@std@@YAXV?$_Vector_iterator@V?$_Vector_val@U?$_Simple_types@PAVDisplayableObject@@@std@@@std@@@0@0AAU_Rand_urng_from_func@0@@Z 00428180 f i PlayingCardsDemo.obj
 0001:00027240       ??$swap@PAVDisplayableObject@@X@std@@YAXAAPAVDisplayableObject@@0@Z 00428240 f i PlayingCardsDemo.obj
 0001:00027290       ??0<lambda_30e6a374895662ded208c9cbe5dce392>@@QAE@ABH00@Z 00428290 f i PlayingCardsDemo.obj
 0001:000272d0       ??0<lambda_357b4ee994050758da51b6d8503d100a>@@QAE@ABH00@Z 004282d0 f i PlayingCardsDemo.obj
 0001:00027310       ??0?$_Rng_from_urng@HU_Rand_urng_from_func@std@@@std@@QAE@AAU_Rand_urng_from_func@1@@Z 00428310 f i PlayingCardsDemo.obj
 0001:00027390       ??0CardContainer@@QAE@PAVBaseEngine@@HHV?$basic_string@DU?$char_traits@D@std@@V?$allocator@D@2@@std@@@Z 00428390 f i PlayingCardsDemo.obj
 0001:00027490       ??0CardOrTile@@QAE@PAVBaseEngine@@HHV?$basic_string@DU?$char_traits@D@std@@V?$allocator@D@2@@std@@HHHH1HHHHHHH_N2@Z 00428490 f i PlayingCardsDemo.obj
 0001:00027680       ??0CardOrTile@@QAE@PAVBaseEngine@@HHV?$basic_string@DU?$char_traits@D@std@@V?$allocator@D@2@@std@@H_N2@Z 00428680 f i PlayingCardsDemo.obj
 0001:000278a0       ??0CoordinateMappingRotate@@QAE@N@Z 004288a0 f i PlayingCardsDemo.obj
 0001:000278e0       ??0CoordinateMappingRotateAndColour@@QAE@XZ 004288e0 f i PlayingCardsDemo.obj
 0001:000279a0       ??0DragableToken@@QAE@PAVBaseEngine@@HHH_N@Z 004289a0 f i PlayingCardsDemo.obj
 0001:00027a70       ??0DragableTokenContainer@@QAE@HHPAVBaseEngine@@HH_N1@Z 00428a70 f i PlayingCardsDemo.obj
 0001:00027b50       ??0TokenTray@@QAE@PAVBaseEngine@@HH@Z 00428b50 f i PlayingCardsDemo.obj
 0001:00027ba0       ??1CardContainer@@UAE@XZ   00428ba0 f i PlayingCardsDemo.obj
 0001:00027bf0       ??1CardOrTile@@UAE@XZ      00428bf0 f i PlayingCardsDemo.obj
 0001:00027c50       ??1CoordinateMappingRotateAndColour@@UAE@XZ 00428c50 f i PlayingCardsDemo.obj
 0001:00027c70       ??1DragableToken@@UAE@XZ   00428c70 f i PlayingCardsDemo.obj
 0001:00027c90       ??1DragableTokenContainer@@UAE@XZ 00428c90 f i PlayingCardsDemo.obj
 0001:00027cc0       ??1TokenTray@@UAE@XZ       00428cc0 f i PlayingCardsDemo.obj
 0001:00027cf0       ??A?$vector@PAVDisplayableObject@@V?$allocator@PAVDisplayableObject@@@std@@@std@@QBEABQAVDisplayableObject@@I@Z 00428cf0 f i PlayingCardsDemo.obj
 0001:00027d90       ??R<lambda_30e6a374895662ded208c9cbe5dce392>@@QBE@PAVDisplayableObject@@@Z 00428d90 f i PlayingCardsDemo.obj
 0001:00027de0       ??R<lambda_357b4ee994050758da51b6d8503d100a>@@QBE@PAVDisplayableObject@@@Z 00428de0 f i PlayingCardsDemo.obj
 0001:00027e30       ??R?$_Rng_from_urng@HU_Rand_urng_from_func@std@@@std@@QAEHH@Z 00428e30 f i PlayingCardsDemo.obj
 0001:00027f10       ??R_Rand_urng_from_func@std@@QAEIXZ 00428f10 f i PlayingCardsDemo.obj
 0001:00027f25       ??_ECardContainer@@WDM@AEPAXI@Z 00428f25 f i PlayingCardsDemo.obj
 0001:00027f2f       ??_ECardOrTile@@WDM@AEPAXI@Z 00428f2f f i PlayingCardsDemo.obj
 0001:00027f39       ??_EDragableTokenContainer@@WDM@AEPAXI@Z 00428f39 f i PlayingCardsDemo.obj
 0001:00027f43       ??_ETokenTray@@WDM@AEPAXI@Z 00428f43 f i PlayingCardsDemo.obj
 0001:00027f50       ??_GCardContainer@@UAEPAXI@Z 00428f50 f i PlayingCardsDemo.obj
 0001:00027f50       ??_ECardContainer@@UAEPAXI@Z 00428f50 f i PlayingCardsDemo.obj
 0001:00027f90       ??_GCardOrTile@@UAEPAXI@Z  00428f90 f i PlayingCardsDemo.obj
 0001:00027f90       ??_ECardOrTile@@UAEPAXI@Z  00428f90 f i PlayingCardsDemo.obj
 0001:00027fd0       ??_GCoordinateMappingRotateAndColour@@UAEPAXI@Z 00428fd0 f i PlayingCardsDemo.obj
 0001:00027fd0       ??_ECoordinateMappingRotateAndColour@@UAEPAXI@Z 00428fd0 f i PlayingCardsDemo.obj
 0001:00028010       ??_EDragableToken@@UAEPAXI@Z 00429010 f i PlayingCardsDemo.obj
 0001:00028010       ??_GDragableToken@@UAEPAXI@Z 00429010 f i PlayingCardsDemo.obj
 0001:00028050       ??_GDragableTokenContainer@@UAEPAXI@Z 00429050 f i PlayingCardsDemo.obj
 0001:00028050       ??_EDragableTokenContainer@@UAEPAXI@Z 00429050 f i PlayingCardsDemo.obj
 0001:00028090       ??_GTokenTray@@UAEPAXI@Z   00429090 f i PlayingCardsDemo.obj
 0001:00028090       ??_ETokenTray@@UAEPAXI@Z   00429090 f i PlayingCardsDemo.obj
 0001:000280d0       ?_Construct@?$basic_string@DU?$char_traits@D@std@@V?$allocator@D@2@@std@@QAEXQAD0Urandom_access_iterator_tag@2@@Z 004290d0 f i PlayingCardsDemo.obj
 0001:00028110       ?_Get_bits@?$_Rng_from_urng@HU_Rand_urng_from_func@std@@@std@@AAEIXZ 00429110 f i PlayingCardsDemo.obj
 0001:00028160       ?addCardToContainer@CardContainer@@QAE_NPAVCardOrTile@@_N@Z 00429160 f i PlayingCardsDemo.obj
 0001:000281b0       ?appendObjectToArray@DisplayableObjectContainer@@QAEXPAVDisplayableObject@@@Z 004291b0 f i PlayingCardsDemo.obj
 0001:000281f0       ?bringToFront@CardOrTile@@UAEXXZ 004291f0 f i PlayingCardsDemo.obj
 0001:00028230       ?bringToFront@DragableTokenContainer@@UAEXXZ 00429230 f i PlayingCardsDemo.obj
 0001:00028260       ?changePixelColour@CoordinateMappingRotateAndColour@@UAE_NHHAAHPAVDrawingSurface@@@Z 00429260 f i PlayingCardsDemo.obj
 0001:00028640       ?checkForAndHandleTokenClick@DragableTokenContainer@@QAE_NHH@Z 00429640 f i PlayingCardsDemo.obj
 0001:000286e0       ?clear@?$vector@PAVDisplayableObject@@V?$allocator@PAVDisplayableObject@@@std@@@std@@QAEXXZ 004296e0 f i PlayingCardsDemo.obj
 0001:00028770       ?createToken@TokenTray@@QAEXIHH@Z 00429770 f i PlayingCardsDemo.obj
 0001:00028850       ?destroyable@DragableToken@@UAE_NXZ 00429850 f i PlayingCardsDemo.obj
 0001:00028860       ?doDragRedraw@DragableTokenContainer@@UAEXXZ 00429860 f i PlayingCardsDemo.obj
 0001:00028880       ?drawForegroundLine@BaseEngine@@QAEXHHHHI@Z 00429880 f i PlayingCardsDemo.obj
 0001:000288f0       ?drawTokensOnItem@DragableTokenContainer@@QAEXXZ 004298f0 f i PlayingCardsDemo.obj
 0001:00028a10       ?getContentCount@DisplayableObjectContainer@@QBEHXZ 00429a10 f i PlayingCardsDemo.obj
 0001:00028a30       ?getContentItem@DisplayableObjectContainer@@QBEPAVDisplayableObject@@H@Z 00429a30 f i PlayingCardsDemo.obj
 0001:00028a60       ?getDrawingRegionBottom@DisplayableObject@@QBEHXZ 00429a60 f i PlayingCardsDemo.obj
 0001:00028a90       ?getDrawingRegionLeft@DisplayableObject@@QBEHXZ 00429a90 f i PlayingCardsDemo.obj
 0001:00028ab0       ?getDrawingRegionRight@DisplayableObject@@QBEHXZ 00429ab0 f i PlayingCardsDemo.obj
 0001:00028ae0       ?getDrawingRegionTop@DisplayableObject@@QBEHXZ 00429ae0 f i PlayingCardsDemo.obj
 0001:00028b00       ?getFont@BaseEngine@@QAEPAVFont@@PBDH@Z 00429b00 f i PlayingCardsDemo.obj
 0001:00028b30       ?getPixel@DrawingSurface@@QAEIHH@Z 00429b30 f i PlayingCardsDemo.obj
 0001:00028ba0       ?getRawImageData@SimpleImage@@QAE?AV?$shared_ptr@VRawImageData@@@std@@XZ 00429ba0 f i PlayingCardsDemo.obj
 0001:00028be0       ?getTopCardFromContainer@CardContainer@@QAEPAVDisplayableObject@@_N@Z 00429be0 f i PlayingCardsDemo.obj
 0001:00028cb0       ?getTopObjectForNotifyValue@DisplayableObjectContainer@@QBEPAVDisplayableObject@@HHHH@Z 00429cb0 f i PlayingCardsDemo.obj
 0001:00028d70       ?getXCentre@DisplayableObject@@QBEHXZ 00429d70 f i PlayingCardsDemo.obj
 0001:00028da0       ?getYCentre@DisplayableObject@@QBEHXZ 00429da0 f i PlayingCardsDemo.obj
 0001:00028dd0       ?handleTokenWasClicked@DragableToken@@QAEXXZ 00429dd0 f i PlayingCardsDemo.obj
 0001:00028e50       ?mapCoordinates@CoordinateMappingRotate@@UAE_NAAN0ABVSimpleImage@@@Z 00429e50 f i PlayingCardsDemo.obj
 0001:00029140       ?mapCoordinates@CoordinateMappingRotateAndColour@@UAE_NAAN0ABVSimpleImage@@@Z 0042a140 f i PlayingCardsDemo.obj
 0001:00029460       ?max@_Rand_urng_from_func@std@@SAIXZ 0042a460 f i PlayingCardsDemo.obj
 0001:00029470       ?min@_Rand_urng_from_func@std@@SAIXZ 0042a470 f i PlayingCardsDemo.obj
 0001:00029480       ?notifyAllObjects@DisplayableObjectContainer@@QBEXHHH@Z 0042a480 f i PlayingCardsDemo.obj
 0001:00029510       ?notifyTopObjectAboutMouseClick@BaseEngine@@QAEX_N@Z 0042a510 f i PlayingCardsDemo.obj
 0001:00029530       ?readyBackImage@CardOrTile@@QAEXXZ 0042a530 f i PlayingCardsDemo.obj
 0001:00029810       ?readyFrontImage@CardOrTile@@QAEXXZ 0042a810 f i PlayingCardsDemo.obj
 0001:00029ad0       ?removeDisplayableObject@DisplayableObjectContainer@@QAE_NPAVDisplayableObject@@@Z 0042aad0 f i PlayingCardsDemo.obj
 0001:00029c40       ?removeTopCardFromContainer@CardContainer@@QAEPAVDisplayableObject@@_N@Z 0042ac40 f i PlayingCardsDemo.obj
 0001:00029cc0       ?setDefaultColour@DisplayableObject@@QAEXH@Z 0042acc0 f i PlayingCardsDemo.obj
 0001:00029ce0       ?setPosition@DragableTokenContainer@@UAEXHH@Z 0042ace0 f i PlayingCardsDemo.obj
 0001:00029d40       ?setSize@DisplayableObject@@QAEXHH@Z 0042ad40 f i PlayingCardsDemo.obj
 0001:00029d70       ?setTransparencyColour@CoordinateMappingRotateAndColour@@QAEXH@Z 0042ad70 f i PlayingCardsDemo.obj
 0001:00029d90       ?setTransparencyPixel@CardOrTile@@QAEXHH@Z 0042ad90 f i PlayingCardsDemo.obj
 0001:00029dd0       ?showCorrectImage@CardOrTile@@QAEXXZ 0042add0 f i PlayingCardsDemo.obj
 0001:00029e10       ?shuffle@DisplayableObjectContainer@@QAEXXZ 0042ae10 f i PlayingCardsDemo.obj
 0001:00029e60       ?to_string@std@@YA?AV?$basic_string@DU?$char_traits@D@std@@V?$allocator@D@2@@1@H@Z 0042ae60 f i PlayingCardsDemo.obj
 0001:00029ea0       ?updateTransparency@CardOrTile@@QAEXXZ 0042aea0 f i PlayingCardsDemo.obj
 0001:0002a160       ?virtDraw@CardContainer@@UAEXXZ 0042b160 f i PlayingCardsDemo.obj
 0001:0002a850       ?virtDraw@CardOrTile@@UAEXXZ 0042b850 f i PlayingCardsDemo.obj
 0001:0002ab40       ?virtDraw@DragableToken@@UAEXXZ 0042bb40 f i PlayingCardsDemo.obj
 0001:0002aea0       ?virtDraw@DragableTokenContainer@@UAEXXZ 0042bea0 f i PlayingCardsDemo.obj
 0001:0002b090       ?virtDraw@TokenTray@@UAEXXZ 0042c090 f i PlayingCardsDemo.obj
 0001:0002b600       ?virtMouseDown@DragableToken@@UAEXHHH@Z 0042c600 f i PlayingCardsDemo.obj
 0001:0002b610       ?virtMouseDown@DragableTokenContainer@@UAEXHHH@Z 0042c610 f i PlayingCardsDemo.obj
 0001:0002b6c0       ?virtMouseMoved@DragableToken@@UAEXHH@Z 0042c6c0 f i PlayingCardsDemo.obj
 0001:0002b730       ?virtMouseMoved@DragableTokenContainer@@UAEXHH@Z 0042c730 f i PlayingCardsDemo.obj
 0001:0002b7b0       ?virtMouseUp@CardContainer@@UAEXHHH@Z 0042c7b0 f i PlayingCardsDemo.obj
 0001:0002b800       ?virtMouseUp@CardOrTile@@UAEXHHH@Z 0042c800 f i PlayingCardsDemo.obj
 0001:0002b8f0       ?virtMouseUp@DragableToken@@UAEXHHH@Z 0042c8f0 f i PlayingCardsDemo.obj
 0001:0002baf0       ?virtMouseUp@DragableTokenContainer@@UAEXHHH@Z 0042caf0 f i PlayingCardsDemo.obj
 0001:0002bb90       ?virtNotify@CardContainer@@UAEJHHH@Z 0042cb90 f i PlayingCardsDemo.obj
 0001:0002bc10       ?virtNotify@DragableToken@@UAEJHHH@Z 0042cc10 f i PlayingCardsDemo.obj
 0001:0002bd10       ?virtNotify@DragableTokenContainer@@UAEJHHH@Z 0042cd10 f i PlayingCardsDemo.obj
 0001:0002bd70       ?virtSingleItemMouseDown@CardContainer@@UAE_NHHH@Z 0042cd70 f i PlayingCardsDemo.obj
 0001:0002bf90       ?virtSingleItemMouseDown@CardOrTile@@UAE_NHHH@Z 0042cf90 f i PlayingCardsDemo.obj
 0001:0002c130       ?virtSingleItemMouseDown@DragableToken@@UAE_NHHH@Z 0042d130 f i PlayingCardsDemo.obj
 0001:0002c1e0       ?virtSingleItemMouseDown@DragableTokenContainer@@UAE_NHHH@Z 0042d1e0 f i PlayingCardsDemo.obj
 0001:0002c270       ?virtSingleItemMouseDown@TokenTray@@UAE_NHHH@Z 0042d270 f i PlayingCardsDemo.obj
 0001:0002c5c0       ??0RawImageData@@QAE@ABV?$shared_ptr@VRawImageData@@@std@@H@Z 0042d5c0 f   RawImage.obj
 0001:0002c700       ??0RawImageData@@QAE@HHABV?$shared_ptr@VRawImageData@@@std@@@Z 0042d700 f   RawImage.obj
 0001:0002c910       ??0?$basic_string@DU?$char_traits@D@std@@V?$allocator@D@2@@std@@QAE@XZ 0042d910 f i RawImage.obj
 0001:0002c970       ?virtSetupBackgroundBuffer@SimpleDemo@@UAEXXZ 0042d970 f   SimpleDemo.obj
 0001:0002cab0       ?virtInitialiseObjects@SimpleDemo@@UAEHXZ 0042dab0 f   SimpleDemo.obj
 0001:0002cb60       ?virtDrawStringsUnderneath@SimpleDemo@@UAEXXZ 0042db60 f   SimpleDemo.obj
 0001:0002cc10       ?virtDrawStringsOnTop@SimpleDemo@@UAEXXZ 0042dc10 f   SimpleDemo.obj
 0001:0002cc90       ?virtMouseDown@SimpleDemo@@UAEXHHH@Z 0042dc90 f   SimpleDemo.obj
 0001:0002ccb0       ?virtKeyDown@SimpleDemo@@UAEXH@Z 0042dcb0 f   SimpleDemo.obj
 0001:0002cdf0       ??0StarfieldDemo@@QAE@XZ   0042ddf0 f   StarfieldDemo.obj
 0001:0002ce30       ??1StarfieldDemo@@UAE@XZ   0042de30 f   StarfieldDemo.obj
 0001:0002ce60       ?virtSetupBackgroundBuffer@StarfieldDemo@@UAEXXZ 0042de60 f   StarfieldDemo.obj
 0001:0002cfa0       ?virtMainLoopDoBeforeUpdate@StarfieldDemo@@UAEXXZ 0042dfa0 f   StarfieldDemo.obj
 0001:0002cfe0       ?copyAllBackgroundBuffer@StarfieldDemo@@UAEXXZ 0042dfe0 f   StarfieldDemo.obj
 0001:0002d120       ??_EStarfieldDemo@@UAEPAXI@Z 0042e120 f i StarfieldDemo.obj
 0001:0002d120       ??_GStarfieldDemo@@UAEPAXI@Z 0042e120 f i StarfieldDemo.obj
 0001:0002d160       ?drawAllTiles@TileManager@@QBEXPAVBaseEngine@@PAVDrawingSurface@@@Z 0042e160 f   TileManager.obj
 0001:0002d200       ?drawSomeTiles@TileManager@@QBEXPAVBaseEngine@@PAVDrawingSurface@@HHHH@Z 0042e200 f   TileManager.obj
 0001:0002d2a0       ?virtDrawTileAt@TileManager@@UBEXPAVBaseEngine@@PAVDrawingSurface@@HHHH@Z 0042e2a0 f   TileManager.obj
 0001:0002d390       ??0BouncingBall@@QAE@PAVBouncingBallMain@@HHHHPBDHH@Z 0042e390 f   BouncingBall.obj
 0001:0002d460       ??1BouncingBall@@UAE@XZ    0042e460 f   BouncingBall.obj
 0001:0002d480       ?virtDraw@BouncingBall@@UAEXXZ 0042e480 f   BouncingBall.obj
 0001:0002d750       ?virtDoUpdate@BouncingBall@@UAEXH@Z 0042e750 f   BouncingBall.obj
 0001:0002d770       ??0BouncingBall1@@QAE@PAVBouncingBallMain@@HHHHPBDHHPAVTileManager@@@Z 0042e770 f   BouncingBall.obj
 0001:0002d810       ?setMovement@BouncingBall1@@QAEXHHHHHHH@Z 0042e810 f   BouncingBall.obj
 0001:0002d880       ?virtDoUpdate@BouncingBall1@@UAEXH@Z 0042e880 f   BouncingBall.obj
 0001:0002d9f0       ??0BouncingBall2@@QAE@PAVBouncingBallMain@@HHHHPBDHH@Z 0042e9f0 f   BouncingBall.obj
 0001:0002da70       ?setPosition@BouncingBall2@@QAEXNN@Z 0042ea70 f   BouncingBall.obj
 0001:0002daa0       ?setSpeed@BouncingBall2@@QAEXNN@Z 0042eaa0 f   BouncingBall.obj
 0001:0002dad0       ?virtDoUpdate@BouncingBall2@@UAEXH@Z 0042ead0 f   BouncingBall.obj
 0001:0002e0c0       ??0MovementPosition@@QAE@XZ 0042f0c0 f i BouncingBall.obj
 0001:0002e140       ??1BouncingBall1@@UAE@XZ   0042f140 f i BouncingBall.obj
 0001:0002e160       ??1BouncingBall2@@UAE@XZ   0042f160 f i BouncingBall.obj
 0001:0002e180       ??_EBouncingBall1@@UAEPAXI@Z 0042f180 f i BouncingBall.obj
 0001:0002e180       ??_GBouncingBall1@@UAEPAXI@Z 0042f180 f i BouncingBall.obj
 0001:0002e1c0       ??_GBouncingBall2@@UAEPAXI@Z 0042f1c0 f i BouncingBall.obj
 0001:0002e1c0       ??_EBouncingBall2@@UAEPAXI@Z 0042f1c0 f i BouncingBall.obj
 0001:0002e200       ??_GBouncingBall@@UAEPAXI@Z 0042f200 f i BouncingBall.obj
 0001:0002e200       ??_EBouncingBall@@UAEPAXI@Z 0042f200 f i BouncingBall.obj
 0001:0002e240       ?calculate@MovementPosition@@QAEXH@Z 0042f240 f i BouncingBall.obj
 0001:0002e330       ?getX@MovementPosition@@QBEHXZ 0042f330 f i BouncingBall.obj
 0001:0002e350       ?getY@MovementPosition@@QBEHXZ 0042f350 f i BouncingBall.obj
 0001:0002e370       ?hasMovementFinished@MovementPosition@@QBE_NH@Z 0042f370 f i BouncingBall.obj
 0001:0002e3b0       ?reverse@MovementPosition@@QAEXXZ 0042f3b0 f i BouncingBall.obj
 0001:0002e440       ?setup@MovementPosition@@QAEXHHHHHH@Z 0042f440 f i BouncingBall.obj
 0001:0002e4b0       ?virtMouseDown@BouncingBall@@UAEXHHH@Z 0042f4b0 f i BouncingBall.obj
 0001:0002e4f0       ?virtSetupBackgroundBuffer@BouncingBallMain@@UAEXXZ 0042f4f0 f   BouncingBallMain.obj
 0001:0002eee0       ?virtInitialiseObjects@BouncingBallMain@@UAEHXZ 0042fee0 f   BouncingBallMain.obj
 0001:0002f1b0       ?virtDrawStringsUnderneath@BouncingBallMain@@UAEXXZ 004301b0 f   BouncingBallMain.obj
 0001:0002f1f0       ?virtMouseDown@BouncingBallMain@@UAEXHHH@Z 004301f0 f   BouncingBallMain.obj
 0001:0002f230       ?virtKeyDown@BouncingBallMain@@UAEXH@Z 00430230 f   BouncingBallMain.obj
 0001:0002f5b0       ??$?HDU?$char_traits@D@std@@V?$allocator@D@1@@std@@YA?AV?$basic_string@DU?$char_traits@D@std@@V?$allocator@D@2@@0@$$QAV10@0@Z 004305b0 f i BouncingBallMain.obj
 0001:0002f690       ??$?HDU?$char_traits@D@std@@V?$allocator@D@1@@std@@YA?AV?$basic_string@DU?$char_traits@D@std@@V?$allocator@D@2@@0@$$QAV10@ABV10@@Z 00430690 f i BouncingBallMain.obj
 0001:0002f6e0       ??$?HDU?$char_traits@D@std@@V?$allocator@D@1@@std@@YA?AV?$basic_string@DU?$char_traits@D@std@@V?$allocator@D@2@@0@$$QAV10@QBD@Z 004306e0 f i BouncingBallMain.obj
 0001:0002f730       ??$?HDU?$char_traits@D@std@@V?$allocator@D@1@@std@@YA?AV?$basic_string@DU?$char_traits@D@std@@V?$allocator@D@2@@0@QBD$$QAV10@@Z 00430730 f i BouncingBallMain.obj
 0001:0002f780       ??$_Reallocate_grow_by@V<lambda_4d79bb85f269e6e8002a4599002d832c>@@IPBDI@?$basic_string@DU?$char_traits@D@std@@V?$allocator@D@2@@std@@QAEAAV01@IV<lambda_4d79bb85f269e6e8002a4599002d832c>@@IPBDI@Z 00430780 f i BouncingBallMain.obj
 0001:0002f910       ??$_Reallocate_grow_by@V<lambda_ab246b20b9526e2ef7792587e4298a77>@@PBDI@?$basic_string@DU?$char_traits@D@std@@V?$allocator@D@2@@std@@QAEAAV01@IV<lambda_ab246b20b9526e2ef7792587e4298a77>@@PBDI@Z 00430910 f i BouncingBallMain.obj
 0001:0002fa90       ??0SimpleImage@@QAE@ABV0@@Z 00430a90 f i BouncingBallMain.obj
 0001:0002fae0       ??R<lambda_4d79bb85f269e6e8002a4599002d832c>@@QBE@QADQBDII1I@Z 00430ae0 f i BouncingBallMain.obj
 0001:0002fb60       ??R<lambda_ab246b20b9526e2ef7792587e4298a77>@@QBE@QADQBDI1I@Z 00430b60 f i BouncingBallMain.obj
 0001:0002fbd0       ?_Check_offset@?$_String_val@U?$_Simple_types@D@std@@@std@@QBEXI@Z 00430bd0 f i BouncingBallMain.obj
 0001:0002fc00       ?_Xran@?$_String_val@U?$_Simple_types@D@std@@@std@@SAXXZ 00430c00 f i BouncingBallMain.obj
 0001:0002fc20       ?append@?$basic_string@DU?$char_traits@D@std@@V?$allocator@D@2@@std@@QAEAAV12@ABV12@@Z 00430c20 f i BouncingBallMain.obj
 0001:0002fc60       ?append@?$basic_string@DU?$char_traits@D@std@@V?$allocator@D@2@@std@@QAEAAV12@QBD@Z 00430c60 f i BouncingBallMain.obj
 0001:0002fca0       ?append@?$basic_string@DU?$char_traits@D@std@@V?$allocator@D@2@@std@@QAEAAV12@QBDI@Z 00430ca0 f i BouncingBallMain.obj
 0001:0002fd70       ?capacity@?$basic_string@DU?$char_traits@D@std@@V?$allocator@D@2@@std@@QBEIXZ 00430d70 f i BouncingBallMain.obj
 0001:0002fd90       ?drawBackgroundLine@BaseEngine@@QAEXHHHHI@Z 00430d90 f i BouncingBallMain.obj
 0001:0002fe00       ?drawBackgroundPolygon@BaseEngine@@QAEXNNNNNNNNI@Z 00430e00 f i BouncingBallMain.obj
 0001:0002fec0       ?drawBackgroundPolygon@BaseEngine@@QAEXNNNNNNNNNNI@Z 00430ec0 f i BouncingBallMain.obj
 0001:0002ff90       ?drawBackgroundPolygon@BaseEngine@@QAEXNNNNNNNNNNNNI@Z 00430f90 f i BouncingBallMain.obj
 0001:00030080       ?drawBackgroundPolygon@BaseEngine@@QAEXNNNNNNNNNNNNNNI@Z 00431080 f i BouncingBallMain.obj
 0001:00030180       ?drawBackgroundPolygon@BaseEngine@@QAEXNNNNNNNNNNNNNNNNI@Z 00431180 f i BouncingBallMain.obj
 0001:000302c0       ?drawBackgroundTriangle@BaseEngine@@QAEXHHHHHHI@Z 004312c0 f i BouncingBallMain.obj
 0001:00030350       ?drawBackgroundVerticalSidedRegion@BaseEngine@@QAEXNNNNNNI@Z 00431350 f i BouncingBallMain.obj
 0001:000303e0       ?getImageURL@RawImageData@@QAEABV?$basic_string@DU?$char_traits@D@std@@V?$allocator@D@2@@std@@XZ 004313e0 f i BouncingBallMain.obj
 0001:00030400       ?getImageURL@SimpleImage@@QAE?BV?$basic_string@DU?$char_traits@D@std@@V?$allocator@D@2@@std@@XZ 00431400 f i BouncingBallMain.obj
 0001:00030490       ?insert@?$basic_string@DU?$char_traits@D@std@@V?$allocator@D@2@@std@@QAEAAV12@IABV12@@Z 00431490 f i BouncingBallMain.obj
 0001:000304e0       ?insert@?$basic_string@DU?$char_traits@D@std@@V?$allocator@D@2@@std@@QAEAAV12@IQBD@Z 004314e0 f i BouncingBallMain.obj
 0001:00030520       ?insert@?$basic_string@DU?$char_traits@D@std@@V?$allocator@D@2@@std@@QAEAAV12@IQBDI@Z 00431520 f i BouncingBallMain.obj
 0001:00030680       ?resizeTo@ImageManager@@QAE?AVSimpleImage@@V2@HH@Z 00431680 f i BouncingBallMain.obj
 0001:00030bc0       ?shrinkBy@ImageManager@@QAE?AVSimpleImage@@V2@H@Z 00431bc0 f i BouncingBallMain.obj
 0001:00031010       ?virtInitialise@ZoomingDemo@@UAEHXZ 00432010 f   ZoomingDemo.obj
 0001:00031060       ?virtSetupBackgroundBuffer@ZoomingDemo@@UAEXXZ 00432060 f   ZoomingDemo.obj
 0001:00031080       ?virtInitialiseObjects@ZoomingDemo@@UAEHXZ 00432080 f   ZoomingDemo.obj
 0001:00031240       ?virtDrawStringsUnderneath@ZoomingDemo@@UAEXXZ 00432240 f   ZoomingDemo.obj
 0001:000312f0       ?virtDrawStringsOnTop@ZoomingDemo@@UAEXXZ 004322f0 f   ZoomingDemo.obj
 0001:00031370       ?virtMouseDown@ZoomingDemo@@UAEXHHH@Z 00432370 f   ZoomingDemo.obj
 0001:000313c0       ?virtKeyDown@ZoomingDemo@@UAEXH@Z 004323c0 f   ZoomingDemo.obj
 0001:000314c0       ?virtMouseWheel@ZoomingDemo@@UAEXHHHH@Z 004324c0 f   ZoomingDemo.obj
 0001:000316c0       ??0SimpleFlashingDragableImageObject@@QAE@HHPAVBaseEngine@@V?$basic_string@DU?$char_traits@D@std@@V?$allocator@D@2@@std@@1_N2@Z 004326c0 f i ZoomingDemo.obj
 0001:000318c0       ??1SimpleFlashingDragableImageObject@@UAE@XZ 004328c0 f i ZoomingDemo.obj
 0001:00031900       ??_GSimpleFlashingDragableImageObject@@UAEPAXI@Z 00432900 f i ZoomingDemo.obj
 0001:00031900       ??_ESimpleFlashingDragableImageObject@@UAEPAXI@Z 00432900 f i ZoomingDemo.obj
 0001:00031940       ?virtDoUpdate@SimpleFlashingDragableImageObject@@UAEXH@Z 00432940 f i ZoomingDemo.obj
 0001:000319a0       ?virtDraw@SimpleFlashingDragableImageObject@@UAEXXZ 004329a0 f i ZoomingDemo.obj
 0001:00031a90       ?virtMouseDown@SimpleFlashingDragableImageObject@@UAEXHHH@Z 00432a90 f i ZoomingDemo.obj
 0001:00031b00       ?virtMouseMoved@SimpleFlashingDragableImageObject@@UAEXHH@Z 00432b00 f i ZoomingDemo.obj
 0001:00031b60       ?virtMouseUp@SimpleFlashingDragableImageObject@@UAEXHHH@Z 00432b60 f i ZoomingDemo.obj
 0001:00031b80       ??0MazeDemoMain@@QAE@XZ    00432b80 f   MazeDemoMain.obj
 0001:00031c00       ??1MazeDemoMain@@UAE@XZ    00432c00 f   MazeDemoMain.obj
 0001:00031c40       ?virtSetupBackgroundBuffer@MazeDemoMain@@UAEXXZ 00432c40 f   MazeDemoMain.obj
 0001:00031e30       ?virtInitialiseObjects@MazeDemoMain@@UAEHXZ 00432e30 f   MazeDemoMain.obj
 0001:00032030       ?virtDrawStringsUnderneath@MazeDemoMain@@UAEXXZ 00433030 f   MazeDemoMain.obj
 0001:000320c0       ?virtMouseDown@MazeDemoMain@@UAEXHHH@Z 004330c0 f   MazeDemoMain.obj
 0001:000320d0       ?virtKeyDown@MazeDemoMain@@UAEXH@Z 004330d0 f   MazeDemoMain.obj
 0001:00032320       ??0MazeDemoTileManager@@QAE@XZ 00433320 f i MazeDemoMain.obj
 0001:00032350       ??0TileManager@@QAE@HH@Z   00433350 f i MazeDemoMain.obj
 0001:000323d0       ??1MazeDemoTileManager@@UAE@XZ 004333d0 f i MazeDemoMain.obj
 0001:00032400       ??_GMazeDemoMain@@UAEPAXI@Z 00433400 f i MazeDemoMain.obj
 0001:00032400       ??_EMazeDemoMain@@UAEPAXI@Z 00433400 f i MazeDemoMain.obj
 0001:00032440       ??_EMazeDemoTileManager@@UAEPAXI@Z 00433440 f i MazeDemoMain.obj
 0001:00032440       ??_GMazeDemoTileManager@@UAEPAXI@Z 00433440 f i MazeDemoMain.obj
 0001:00032480       ??0MazeDemoObject@@QAE@PAVMazeDemoMain@@HH@Z 00433480 f   MazeDemoObject.obj
 0001:00032560       ??1MazeDemoObject@@UAE@XZ  00433560 f   MazeDemoObject.obj
 0001:00032580       ?virtDraw@MazeDemoObject@@UAEXXZ 00433580 f   MazeDemoObject.obj
 0001:00032630       ?virtDoUpdate@MazeDemoObject@@UAEXH@Z 00433630 f   MazeDemoObject.obj
 0001:00032ca0       ??_GMazeDemoObject@@UAEPAXI@Z 00433ca0 f i MazeDemoObject.obj
 0001:00032ca0       ??_EMazeDemoObject@@UAEPAXI@Z 00433ca0 f i MazeDemoObject.obj
 0001:00032ce0       ?GetTileManager@MazeDemoMain@@QAEAAVMazeDemoTileManager@@XZ 00433ce0 f i MazeDemoObject.obj
 0001:00032d00       ?checkCircles@CollisionDetection@@SA_NHHHHH@Z 00433d00 f i MazeDemoObject.obj
 0001:00032d60       ?drawForegroundOval@BaseEngine@@QAEXHHHHI@Z 00433d60 f i MazeDemoObject.obj
 0001:00032da0       ?getDisplayableObject@DisplayableObjectContainer@@QBEPAVDisplayableObject@@H@Z 00433da0 f i MazeDemoObject.obj
 0001:00032de0       ?getXDiffForDirection@MazeDemoObject@@QAEHH@Z 00433de0 f i MazeDemoObject.obj
 0001:00032e50       ?getYDiffForDirection@MazeDemoObject@@QAEHH@Z 00433e50 f i MazeDemoObject.obj
 0001:00032ec0       ?virtDrawTileAt@MazeDemoTileManager@@UBEXPAVBaseEngine@@PAVDrawingSurface@@HHHH@Z 00433ec0 f   MazeDemoTileManager.obj
 0001:00033097       _SDL_CreateRGBSurface      00434097 f   SDL2:SDL2.dll
 0001:0003309d       _SDL_FreeSurface           0043409d f   SDL2:SDL2.dll
 0001:000330a3       _SDL_UpperBlit             004340a3 f   SDL2:SDL2.dll
 0001:000330a9       _SDL_LockSurface           004340a9 f   SDL2:SDL2.dll
 0001:000330af       _SDL_UnlockSurface         004340af f   SDL2:SDL2.dll
 0001:000330b5       _SDL_FillRect              004340b5 f   SDL2:SDL2.dll
 0001:000330bb       _SDL_GetError              004340bb f   SDL2:SDL2.dll
 0001:000330c1       _SDL_CreateWindow          004340c1 f   SDL2:SDL2.dll
 0001:000330c7       _SDL_PollEvent             004340c7 f   SDL2:SDL2.dll
 0001:000330cd       _SDL_WaitEvent             004340cd f   SDL2:SDL2.dll
 0001:000330d3       _SDL_CreateRenderer        004340d3 f   SDL2:SDL2.dll
 0001:000330d9       _SDL_CreateTexture         004340d9 f   SDL2:SDL2.dll
 0001:000330df       _SDL_UpdateTexture         004340df f   SDL2:SDL2.dll
 0001:000330e5       _SDL_RenderCopy            004340e5 f   SDL2:SDL2.dll
 0001:000330eb       _SDL_RenderPresent         004340eb f   SDL2:SDL2.dll
 0001:000330f1       _SDL_GetTicks              004340f1 f   SDL2:SDL2.dll
 0001:000330f7       _SDL_Init                  004340f7 f   SDL2:SDL2.dll
 0001:000330fd       _SDL_Quit                  004340fd f   SDL2:SDL2.dll
 0001:00033103       _SDL_SetClipRect           00434103 f   SDL2:SDL2.dll
 0001:00033109       _SDL_UpperBlitScaled       00434109 f   SDL2:SDL2.dll
 0001:0003310f       _IMG_Load                  0043410f f   SDL2_image:SDL2_image.dll
 0001:00033115       _TTF_RenderText_Solid      00434115 f   SDL2_ttf:SDL2_ttf.dll
 0001:0003311b       _TTF_Init                  0043411b f   SDL2_ttf:SDL2_ttf.dll
 0001:00033121       _TTF_Quit                  00434121 f   SDL2_ttf:SDL2_ttf.dll
 0001:00033127       _TTF_OpenFont              00434127 f   SDL2_ttf:SDL2_ttf.dll
 0001:0003312d       _TTF_CloseFont             0043412d f   SDL2_ttf:SDL2_ttf.dll
 0001:00033133       ??0_Lockit@std@@QAE@H@Z    00434133 f   msvcprtd:MSVCP140D.dll
 0001:00033139       ??1_Lockit@std@@QAE@XZ     00434139 f   msvcprtd:MSVCP140D.dll
 0001:0003313f       ?uncaught_exception@std@@YA_NXZ 0043413f f   msvcprtd:MSVCP140D.dll
 0001:00033145       ?_Xlength_error@std@@YAXPBD@Z 00434145 f   msvcprtd:MSVCP140D.dll
 0001:0003314b       ?good@ios_base@std@@QBE_NXZ 0043414b f   msvcprtd:MSVCP140D.dll
 0001:00033151       ?flags@ios_base@std@@QBEHXZ 00434151 f   msvcprtd:MSVCP140D.dll
 0001:00033157       ?width@ios_base@std@@QBE_JXZ 00434157 f   msvcprtd:MSVCP140D.dll
 0001:0003315d       ?width@ios_base@std@@QAE_J_J@Z 0043415d f   msvcprtd:MSVCP140D.dll
 0001:00033163       ?sputc@?$basic_streambuf@DU?$char_traits@D@std@@@std@@QAEHD@Z 00434163 f   msvcprtd:MSVCP140D.dll
 0001:00033169       ?sputn@?$basic_streambuf@DU?$char_traits@D@std@@@std@@QAE_JPBD_J@Z 00434169 f   msvcprtd:MSVCP140D.dll
 0001:0003316f       ?setstate@?$basic_ios@DU?$char_traits@D@std@@@std@@QAEXH_N@Z 0043416f f   msvcprtd:MSVCP140D.dll
 0001:00033175       ?tie@?$basic_ios@DU?$char_traits@D@std@@@std@@QBEPAV?$basic_ostream@DU?$char_traits@D@std@@@2@XZ 00434175 f   msvcprtd:MSVCP140D.dll
 0001:0003317b       ?rdbuf@?$basic_ios@DU?$char_traits@D@std@@@std@@QBEPAV?$basic_streambuf@DU?$char_traits@D@std@@@2@XZ 0043417b f   msvcprtd:MSVCP140D.dll
 0001:00033181       ?fill@?$basic_ios@DU?$char_traits@D@std@@@std@@QBEDXZ 00434181 f   msvcprtd:MSVCP140D.dll
 0001:00033187       ?widen@?$basic_ios@DU?$char_traits@D@std@@@std@@QBEDD@Z 00434187 f   msvcprtd:MSVCP140D.dll
 0001:0003318d       ?_Osfx@?$basic_ostream@DU?$char_traits@D@std@@@std@@QAEXXZ 0043418d f   msvcprtd:MSVCP140D.dll
 0001:00033193       ??6?$basic_ostream@DU?$char_traits@D@std@@@std@@QAEAAV01@P6AAAV01@AAV01@@Z@Z 00434193 f   msvcprtd:MSVCP140D.dll
 0001:00033199       ?put@?$basic_ostream@DU?$char_traits@D@std@@@std@@QAEAAV12@D@Z 00434199 f   msvcprtd:MSVCP140D.dll
 0001:0003319f       ?flush@?$basic_ostream@DU?$char_traits@D@std@@@std@@QAEAAV12@XZ 0043419f f   msvcprtd:MSVCP140D.dll
 0001:000331a5       ?_Xbad_function_call@std@@YAXXZ 004341a5 f   msvcprtd:MSVCP140D.dll
 0001:000331ab       ?_Xout_of_range@std@@YAXPBD@Z 004341ab f   msvcprtd:MSVCP140D.dll
 0001:000331b1       ??6?$basic_ostream@DU?$char_traits@D@std@@@std@@QAEAAV01@H@Z 004341b1 f   msvcprtd:MSVCP140D.dll
 0001:00033590       ?configure_argv@__scrt_narrow_argv_policy@@SAHXZ 00434590 f i MSVCRTD:exe_main.obj
 0001:000335b0       ?initialize_environment@__scrt_narrow_environment_policy@@SAHXZ 004345b0 f i MSVCRTD:exe_main.obj
 0001:000335f0       ?set_app_type@__scrt_main_policy@@SAXXZ 004345f0 f i MSVCRTD:exe_main.obj
 0001:00033610       ?set_commode@__scrt_file_policy@@SAXXZ 00434610 f i MSVCRTD:exe_main.obj
 0001:00033630       ?set_fmode@__scrt_file_policy@@SAXXZ 00434630 f i MSVCRTD:exe_main.obj
 0001:00033650       _mainCRTStartup            00434650 f   MSVCRTD:exe_main.obj
 0001:00033660       ??2@YAPAXI@Z               00434660 f   MSVCRTD:new_scalar.obj
 0001:000336c0       ??3@YAXPAXI@Z              004346c0 f   MSVCRTD:delete_scalar_size.obj
 0001:000336e0       @__security_check_cookie@4 004346e0 f   MSVCRTD:secchk.obj
 0001:00033700       ??1type_info@@UAE@XZ       00434700 f   MSVCRTD:std_type_info_static.obj
 0001:00033720       ??_Etype_info@@UAEPAXI@Z   00434720 f i MSVCRTD:std_type_info_static.obj
 0001:00033720       ??_Gtype_info@@UAEPAXI@Z   00434720 f i MSVCRTD:std_type_info_static.obj
 0001:00033760       ??_U@YAPAXI@Z              00434760 f   MSVCRTD:new_array.obj
 0001:00033780       ??_V@YAXPAX@Z              00434780 f   MSVCRTD:delete_array.obj
 0001:000337a0       ??$__crt_fast_decode_pointer@PAP6AXXZ@@YAPAP6AXXZQAP6AXXZ@Z 004347a0 f i MSVCRTD:utility.obj
 0001:000337d0       ??$__crt_fast_encode_pointer@PAP6AXXZ@@YAPAP6AXXZQAP6AXXZ@Z 004347d0 f i MSVCRTD:utility.obj
 0001:00033810       ?__crt_rotate_pointer_value@@YAIIH@Z 00434810 f i MSVCRTD:utility.obj
 0001:00033960       _NtCurrentTeb              00434960 f i MSVCRTD:utility.obj
 0001:00033970       ___scrt_acquire_startup_lock 00434970 f   MSVCRTD:utility.obj
 0001:000339d0       ___scrt_dllmain_after_initialize_c 004349d0 f   MSVCRTD:utility.obj
 0001:00033a10       ___scrt_dllmain_before_initialize_c 00434a10 f   MSVCRTD:utility.obj
 0001:00033a40       ___scrt_dllmain_crt_thread_attach 00434a40 f   MSVCRTD:utility.obj
 0001:00033a80       ___scrt_dllmain_crt_thread_detach 00434a80 f   MSVCRTD:utility.obj
 0001:00033aa0       ___scrt_dllmain_exception_filter 00434aa0 f   MSVCRTD:utility.obj
 0001:00033b00       ___scrt_dllmain_uninitialize_c 00434b00 f   MSVCRTD:utility.obj
 0001:00033b40       ___scrt_dllmain_uninitialize_critical 00434b40 f   MSVCRTD:utility.obj
 0001:00033b60       ___scrt_initialize_crt     00434b60 f   MSVCRTD:utility.obj
 0001:00033bc0       ___scrt_initialize_onexit_tables 00434bc0 f   MSVCRTD:utility.obj
 0001:00033ce0       ___scrt_is_nonwritable_in_current_image 00434ce0 f   MSVCRTD:utility.obj
 0001:00033e60       ___scrt_release_startup_lock 00434e60 f   MSVCRTD:utility.obj
 0001:00033e90       ___scrt_uninitialize_crt   00434e90 f   MSVCRTD:utility.obj
 0001:00033ee0       __onexit                   00434ee0 f   MSVCRTD:utility.obj
 0001:00033f70       _at_quick_exit             00434f70 f   MSVCRTD:utility.obj
 0001:00033fd0       _atexit                    00434fd0 f   MSVCRTD:utility.obj
 0001:000340a0       ___security_init_cookie    004350a0 f   MSVCRTD:gs_support.obj
 0001:00034140       __matherr                  00435140 f   MSVCRTD:matherr.obj
 0001:00034150       __get_startup_argv_mode    00435150 f   MSVCRTD:argv_mode.obj
 0001:00034160       __get_startup_commit_mode  00435160 f   MSVCRTD:commit_mode.obj
 0001:00034170       __get_startup_file_mode    00435170 f   MSVCRTD:file_mode.obj
 0001:00034180       __get_startup_new_mode     00435180 f   MSVCRTD:new_mode.obj
 0001:00034190       __get_startup_thread_locale_mode 00435190 f   MSVCRTD:thread_locale.obj
 0001:000341a0       ?__scrt_initialize_type_info@@YAXXZ 004351a0 f   MSVCRTD:tncleanup.obj
 0001:000341c0       ?__scrt_uninitialize_type_info@@YAXXZ 004351c0 f   MSVCRTD:tncleanup.obj
 0001:000341e0       __should_initialize_environment 004351e0 f   MSVCRTD:env_mode.obj
 0001:000341f0       __initialize_default_precision 004351f0 f   MSVCRTD:default_precision.obj
 0001:00034220       __initialize_invalid_parameter_handler 00435220 f   MSVCRTD:invalid_parameter_handler.obj
 0001:00034230       __initialize_denormal_control 00435230 f   MSVCRTD:denormal_control.obj
 0001:00034240       ___local_stdio_scanf_options 00435240 f i MSVCRTD:default_local_stdio_options.obj
 0001:00034250       ___scrt_initialize_default_local_stdio_options 00435250 f   MSVCRTD:default_local_stdio_options.obj
 0001:000342a0       ___scrt_is_user_matherr_present 004352a0 f   MSVCRTD:matherr_detection.obj
 0001:000342d0       ___scrt_get_dyn_tls_init_callback 004352d0 f   MSVCRTD:dyn_tls_init.obj
 0001:000342e0       ___scrt_get_dyn_tls_dtor_callback 004352e0 f   MSVCRTD:dyn_tls_dtor.obj
 0001:000342f0       ___scrt_fastfail           004352f0 f   MSVCRTD:utility_desktop.obj
 0001:00034480       ___scrt_get_show_window_mode 00435480 f   MSVCRTD:utility_desktop.obj
 0001:000344d0       ___scrt_initialize_mta     004354d0 f   MSVCRTD:utility_desktop.obj
 0001:000344e0       ___scrt_initialize_winrt   004354e0 f   MSVCRTD:utility_desktop.obj
 0001:000344f0       ___scrt_is_managed_app     004354f0 f   MSVCRTD:utility_desktop.obj
 0001:000345a0       ___scrt_set_unhandled_exception_filter 004355a0 f   MSVCRTD:utility_desktop.obj
 0001:000345c0       ___scrt_stub_for_initialize_mta 004355c0 f   MSVCRTD:utility_desktop.obj
 0001:000345c0       ___scrt_exe_initialize_mta 004355c0 f   MSVCRTD:utility_desktop.obj
 0001:000345d0       ___scrt_unhandled_exception_filter@4 004355d0 f   MSVCRTD:utility_desktop.obj
 0001:00034650       __crt_debugger_hook        00435650 f   MSVCRTD:utility_desktop.obj
 0001:00034670       __RTC_Initialize           00435670 f   MSVCRTD:initsect.obj
 0001:000346b0       __RTC_Terminate            004356b0 f   MSVCRTD:initsect.obj
 0001:000346f0       __except_handler4          004356f0 f   MSVCRTD:chandler4gs.obj
 0001:00034720       @_guard_check_icall_nop@4  00435720 f i MSVCRTD:guard_support.obj
 0001:00034730       _ReadNoFence               00435730 f i MSVCRTD:guard_support.obj
 0001:00034750       _ReadPointerNoFence        00435750 f i MSVCRTD:guard_support.obj
 0001:00034770       __guard_icall_checks_enforced 00435770 f i MSVCRTD:guard_support.obj
 0001:000347b0       ??0bad_alloc@std@@AAE@QBD@Z 004357b0 f i MSVCRTD:throw_bad_alloc.obj
 0001:000347e0       ??0bad_alloc@std@@QAE@ABV01@@Z 004357e0 f i MSVCRTD:throw_bad_alloc.obj
 0001:00034810       ??0bad_alloc@std@@QAE@XZ   00435810 f i MSVCRTD:throw_bad_alloc.obj
 0001:00034840       ??0bad_array_new_length@std@@QAE@ABV01@@Z 00435840 f i MSVCRTD:throw_bad_alloc.obj
 0001:00034870       ??0bad_array_new_length@std@@QAE@XZ 00435870 f i MSVCRTD:throw_bad_alloc.obj
 0001:000348a0       ??0exception@std@@QAE@ABV01@@Z 004358a0 f i MSVCRTD:throw_bad_alloc.obj
 0001:000348f0       ??0exception@std@@QAE@QBDH@Z 004358f0 f i MSVCRTD:throw_bad_alloc.obj
 0001:00034930       ??1bad_alloc@std@@UAE@XZ   00435930 f i MSVCRTD:throw_bad_alloc.obj
 0001:00034950       ??1bad_array_new_length@std@@UAE@XZ 00435950 f i MSVCRTD:throw_bad_alloc.obj
 0001:00034970       ??1exception@std@@UAE@XZ   00435970 f i MSVCRTD:throw_bad_alloc.obj
 0001:000349a0       ??_Gbad_alloc@std@@UAEPAXI@Z 004359a0 f i MSVCRTD:throw_bad_alloc.obj
 0001:000349a0       ??_Ebad_alloc@std@@UAEPAXI@Z 004359a0 f i MSVCRTD:throw_bad_alloc.obj
 0001:000349e0       ??_Ebad_array_new_length@std@@UAEPAXI@Z 004359e0 f i MSVCRTD:throw_bad_alloc.obj
 0001:000349e0       ??_Gbad_array_new_length@std@@UAEPAXI@Z 004359e0 f i MSVCRTD:throw_bad_alloc.obj
 0001:00034a20       ??_Gexception@std@@UAEPAXI@Z 00435a20 f i MSVCRTD:throw_bad_alloc.obj
 0001:00034a20       ??_Eexception@std@@UAEPAXI@Z 00435a20 f i MSVCRTD:throw_bad_alloc.obj
 0001:00034a60       ?__scrt_throw_std_bad_alloc@@YAXXZ 00435a60 f   MSVCRTD:throw_bad_alloc.obj
 0001:00034a90       ?__scrt_throw_std_bad_array_new_length@@YAXXZ 00435a90 f   MSVCRTD:throw_bad_alloc.obj
 0001:00034ac0       ?what@exception@std@@UBEPBDXZ 00435ac0 f i MSVCRTD:throw_bad_alloc.obj
 0001:00034b00       ??3@YAXPAX@Z               00435b00 f   MSVCRTD:delete_scalar.obj
 0001:00034b20       ___raise_securityfailure   00435b20 f   MSVCRTD:gs_report.obj
 0001:00034b60       ___report_gsfailure        00435b60 f   MSVCRTD:gs_report.obj
 0001:00034cb0       ___report_rangecheckfailure 00435cb0 f   MSVCRTD:gs_report.obj
 0001:00034cc0       ___report_securityfailure  00435cc0 f   MSVCRTD:gs_report.obj
 0001:00034dd0       ___report_securityfailureEx 00435dd0 f   MSVCRTD:gs_report.obj
 0001:00034f40       ___isa_available_init      00435f40 f   MSVCRTD:cpu_disp.obj
 0001:000352d0       ___scrt_is_ucrt_dll_in_use 004362d0 f   MSVCRTD:ucrt_detection.obj
 0001:000352fd       _memcmp                    004362fd f   vcruntimed:VCRUNTIME140D.dll
 0001:00035303       _memcpy                    00436303 f   vcruntimed:VCRUNTIME140D.dll
 0001:00035309       _memmove                   00436309 f   vcruntimed:VCRUNTIME140D.dll
 0001:0003530f       _memset                    0043630f f   vcruntimed:VCRUNTIME140D.dll
 0001:00035315       __CxxThrowException@8      00436315 f   vcruntimed:VCRUNTIME140D.dll
 0001:0003531b       ___CxxFrameHandler3        0043631b f   vcruntimed:VCRUNTIME140D.dll
 0001:00035321       __purecall                 00436321 f   vcruntimed:VCRUNTIME140D.dll
 0001:00035327       ___RTDynamicCast           00436327 f   vcruntimed:VCRUNTIME140D.dll
 0001:0003532d       ___std_type_info_destroy_list 0043632d f   vcruntimed:VCRUNTIME140D.dll
 0001:00035333       __except_handler4_common   00436333 f   vcruntimed:VCRUNTIME140D.dll
 0001:00035339       ___std_exception_copy      00436339 f   vcruntimed:VCRUNTIME140D.dll
 0001:0003533f       ___std_exception_destroy   0043633f f   vcruntimed:VCRUNTIME140D.dll
 0001:00035345       __invalid_parameter        00436345 f   ucrtd:ucrtbased.dll
 0001:0003534b       __CrtDbgReport             0043634b f   ucrtd:ucrtbased.dll
 0001:00035351       _rand                      00436351 f   ucrtd:ucrtbased.dll
 0001:00035357       ___acrt_iob_func           00436357 f   ucrtd:ucrtbased.dll
 0001:0003535d       ___stdio_common_vfprintf   0043635d f   ucrtd:ucrtbased.dll
 0001:00035363       _strlen                    00436363 f   ucrtd:ucrtbased.dll
 0001:00035369       _atan                      00436369 f   ucrtd:ucrtbased.dll
 0001:0003536f       _cos                       0043636f f   ucrtd:ucrtbased.dll
 0001:00035375       _sin                       00436375 f   ucrtd:ucrtbased.dll
 0001:0003537b       ___stdio_common_vsprintf   0043637b f   ucrtd:ucrtbased.dll
 0001:00035381       _atoi                      00436381 f   ucrtd:ucrtbased.dll
 0001:00035387       _fclose                    00436387 f   ucrtd:ucrtbased.dll
 0001:0003538d       _fgets                     0043638d f   ucrtd:ucrtbased.dll
 0001:00035393       _fopen                     00436393 f   ucrtd:ucrtbased.dll
 0001:00035399       __CrtDumpMemoryLeaks       00436399 f   ucrtd:ucrtbased.dll
 0001:0003539f       _srand                     0043639f f   ucrtd:ucrtbased.dll
 0001:000353a5       __time64                   004363a5 f   ucrtd:ucrtbased.dll
 0001:000353ab       _puts                      004363ab f   ucrtd:ucrtbased.dll
 0001:000353b1       _strcmp                    004363b1 f   ucrtd:ucrtbased.dll
 0001:000353b7       _strcpy                    004363b7 f   ucrtd:ucrtbased.dll
 0001:000353bd       _sqrt                      004363bd f   ucrtd:ucrtbased.dll
 0001:000353c3       __seh_filter_exe           004363c3 f   ucrtd:ucrtbased.dll
 0001:000353c9       __set_app_type             004363c9 f   ucrtd:ucrtbased.dll
 0001:000353cf       ___setusermatherr          004363cf f   ucrtd:ucrtbased.dll
 0001:000353d5       __configure_narrow_argv    004363d5 f   ucrtd:ucrtbased.dll
 0001:000353db       __initialize_narrow_environment 004363db f   ucrtd:ucrtbased.dll
 0001:000353e1       __get_initial_narrow_environment 004363e1 f   ucrtd:ucrtbased.dll
 0001:000353e7       __initterm                 004363e7 f   ucrtd:ucrtbased.dll
 0001:000353ed       __initterm_e               004363ed f   ucrtd:ucrtbased.dll
 0001:000353f3       _exit                      004363f3 f   ucrtd:ucrtbased.dll
 0001:000353f9       __exit                     004363f9 f   ucrtd:ucrtbased.dll
 0001:000353ff       __set_fmode                004363ff f   ucrtd:ucrtbased.dll
 0001:00035405       ___p___argc                00436405 f   ucrtd:ucrtbased.dll
 0001:0003540b       ___p___argv                0043640b f   ucrtd:ucrtbased.dll
 0001:00035411       __cexit                    00436411 f   ucrtd:ucrtbased.dll
 0001:00035417       __c_exit                   00436417 f   ucrtd:ucrtbased.dll
 0001:0003541d       __register_thread_local_exe_atexit_callback 0043641d f   ucrtd:ucrtbased.dll
 0001:00035423       __configthreadlocale       00436423 f   ucrtd:ucrtbased.dll
 0001:00035429       __set_new_mode             00436429 f   ucrtd:ucrtbased.dll
 0001:0003542f       ___p__commode              0043642f f   ucrtd:ucrtbased.dll
 0001:00035435       __callnewh                 00436435 f   ucrtd:ucrtbased.dll
 0001:0003543b       _malloc                    0043643b f   ucrtd:ucrtbased.dll
 0001:00035441       __seh_filter_dll           00436441 f   ucrtd:ucrtbased.dll
 0001:00035447       __initialize_onexit_table  00436447 f   ucrtd:ucrtbased.dll
 0001:0003544d       __register_onexit_function 0043644d f   ucrtd:ucrtbased.dll
 0001:00035453       __execute_onexit_table     00436453 f   ucrtd:ucrtbased.dll
 0001:00035459       __crt_atexit               00436459 f   ucrtd:ucrtbased.dll
 0001:0003545f       __crt_at_quick_exit        0043645f f   ucrtd:ucrtbased.dll
 0001:00035465       __controlfp_s              00436465 f   ucrtd:ucrtbased.dll
 0001:0003546b       _terminate                 0043646b f   ucrtd:ucrtbased.dll
 0001:00035471       __free_dbg                 00436471 f   ucrtd:ucrtbased.dll
 0001:000355c0       _WinMain@16                004365c0 f   SDL2main:SDL_windows_main.obj
 0001:000355d0       _main                      004365d0 f   SDL2main:SDL_windows_main.obj
 0001:00035720       _wmain                     00436720 f   SDL2main:SDL_windows_main.obj
 0001:00035725       _QueryPerformanceCounter@4 00436725 f   kernel32:KERNEL32.dll
 0001:0003572b       _GetCurrentProcessId@0     0043672b f   kernel32:KERNEL32.dll
 0001:00035731       _GetCurrentThreadId@0      00436731 f   kernel32:KERNEL32.dll
 0001:00035737       _GetSystemTimeAsFileTime@4 00436737 f   kernel32:KERNEL32.dll
 0001:0003573d       _InitializeSListHead@4     0043673d f   kernel32:KERNEL32.dll
 0001:00035743       _IsDebuggerPresent@0       00436743 f   kernel32:KERNEL32.dll
 0001:00035749       _UnhandledExceptionFilter@4 00436749 f   kernel32:KERNEL32.dll
 0001:0003574f       _SetUnhandledExceptionFilter@4 0043674f f   kernel32:KERNEL32.dll
 0001:00035755       _GetStartupInfoW@4         00436755 f   kernel32:KERNEL32.dll
 0001:0003575b       _IsProcessorFeaturePresent@4 0043675b f   kernel32:KERNEL32.dll
 0001:00035761       _GetModuleHandleW@4        00436761 f   kernel32:KERNEL32.dll
 0001:00035767       _GetCurrentProcess@0       00436767 f   kernel32:KERNEL32.dll
 0001:0003576d       _TerminateProcess@8        0043676d f   kernel32:KERNEL32.dll
 0001:00035773       _GetCommandLineW@0         00436773 f   kernel32:KERNEL32.dll
 0001:00035779       _VirtualAlloc@16           00436779 f   kernel32:KERNEL32.dll
 0001:0003577f       _VirtualFree@12            0043677f f   kernel32:KERNEL32.dll
 0001:00035785       _WideCharToMultiByte@32    00436785 f   kernel32:KERNEL32.dll
 0001:0003578b       _SDL_SetMainReady          0043678b f   SDL2:SDL2.dll
 0001:00035791       _SDL_ShowSimpleMessageBox  00436791 f   SDL2:SDL2.dll
 0001:000357a0       ___scrt_stub_for_acrt_initialize 004367a0 f   MSVCRTD:ucrt_stubs.obj
 0001:000357a0       ___acrt_initialize         004367a0 f   MSVCRTD:ucrt_stubs.obj
 0001:000357a0       ___vcrt_initialize         004367a0 f   MSVCRTD:ucrt_stubs.obj
 0001:000357b0       ___scrt_stub_for_acrt_thread_attach 004367b0 f   MSVCRTD:ucrt_stubs.obj
 0001:000357b0       ___vcrt_thread_attach      004367b0 f   MSVCRTD:ucrt_stubs.obj
 0001:000357b0       ___acrt_thread_attach      004367b0 f   MSVCRTD:ucrt_stubs.obj
 0001:000357c0       ___acrt_thread_detach      004367c0 f   MSVCRTD:ucrt_stubs.obj
 0001:000357c0       ___scrt_stub_for_acrt_thread_detach 004367c0 f   MSVCRTD:ucrt_stubs.obj
 0001:000357c0       ___vcrt_thread_detach      004367c0 f   MSVCRTD:ucrt_stubs.obj
 0001:000357d0       ___scrt_stub_for_acrt_uninitialize 004367d0 f   MSVCRTD:ucrt_stubs.obj
 0001:000357d0       ___vcrt_uninitialize       004367d0 f   MSVCRTD:ucrt_stubs.obj
 0001:000357d0       ___acrt_uninitialize       004367d0 f   MSVCRTD:ucrt_stubs.obj
 0001:000357e0       ___acrt_uninitialize_critical 004367e0 f   MSVCRTD:ucrt_stubs.obj
 0001:000357e0       ___vcrt_uninitialize_critical 004367e0 f   MSVCRTD:ucrt_stubs.obj
 0001:000357e0       ___scrt_stub_for_acrt_uninitialize_critical 004367e0 f   MSVCRTD:ucrt_stubs.obj
 0001:000357f0       __is_c_termination_complete 004367f0 f   MSVCRTD:ucrt_stubs.obj
 0001:000357f0       ___scrt_stub_for_is_c_termination_complete 004367f0 f   MSVCRTD:ucrt_stubs.obj
 0002:00000000       ___xc_a                    0043d000     MSVCRTD:initializers.obj
 0002:0000030c       ___xc_z                    0043d30c     MSVCRTD:initializers.obj
 0002:00000410       ___xi_a                    0043d410     MSVCRTD:initializers.obj
 0002:0000071c       ___xi_z                    0043d71c     MSVCRTD:initializers.obj
 0002:00000820       ___xp_a                    0043d820     MSVCRTD:initializers.obj
 0002:00000924       ___xp_z                    0043d924     MSVCRTD:initializers.obj
 0002:00000a28       ___xt_a                    0043da28     MSVCRTD:initializers.obj
 0002:00000b2c       ___xt_z                    0043db2c     MSVCRTD:initializers.obj
 0002:00000c4c       ??_C@_0BB@FCMFBGOM@invalid?5argument@ 0043dc4c     DraggingDemo.obj
 0002:00000c60       ??_C@_02DKCKIIND@?$CFs@    0043dc60     DraggingDemo.obj
 0002:00000c64       ??_C@_1CG@JNLFBNGN@?$AA?$CC?$AAi?$AAn?$AAv?$AAa?$AAl?$AAi?$AAd?$AA?5?$AAa?$AAr?$AAg?$AAu?$AAm?$AAe@ 0043dc64     DraggingDemo.obj
 0002:00000c94       ??_C@_0BJ@LFDBABJJ@ITERATOR?5LIST?5CORRUPTED?$CB@ 0043dc94     DraggingDemo.obj
 0002:00000cb8       ??_C@_0GJ@EJIMBHLG@c?3?2program?5files?5?$CIx86?$CJ?2microsof@ 0043dcb8     DraggingDemo.obj
 0002:00000d38       ??_C@_1NC@FANNPLN@?$AAc?$AA?3?$AA?2?$AAp?$AAr?$AAo?$AAg?$AAr?$AAa?$AAm?$AA?5?$AAf?$AAi?$AAl?$AAe@ 0043dd38     DraggingDemo.obj
 0002:00000e38       ??_C@_1EE@KLDMFDFL@?$AAs?$AAt?$AAd?$AA?3?$AA?3?$AA_?$AAI?$AAt?$AAe?$AAr?$AAa?$AAt?$AAo?$AAr?$AA_@ 0043de38     DraggingDemo.obj
 0002:00000e8c       ??_C@_1DG@PLBPCAEM@?$AA?$CC?$AAI?$AAT?$AAE?$AAR?$AAA?$AAT?$AAO?$AAR?$AA?5?$AAL?$AAI?$AAS?$AAT?$AA?5@ 0043de8c     DraggingDemo.obj
 0002:00000ed0       ??_C@_0GJ@FFDBCFBF@c?3?2program?5files?5?$CIx86?$CJ?2microsof@ 0043ded0     DraggingDemo.obj
 0002:00000f50       ??_C@_1NC@PIOGAKBO@?$AAc?$AA?3?$AA?2?$AAp?$AAr?$AAo?$AAg?$AAr?$AAa?$AAm?$AA?5?$AAf?$AAi?$AAl?$AAe@ 0043df50     DraggingDemo.obj
 0002:00001050       ??_C@_1EK@NIFDJFDG@?$AAs?$AAt?$AAd?$AA?3?$AA?3?$AA_?$AAA?$AAd?$AAj?$AAu?$AAs?$AAt?$AA_?$AAm?$AAa@ 0043e050     DraggingDemo.obj
 0002:000010a8       ??_C@_0CN@GHCLOPHF@Error?5in?5setting?5pixel?9?5should?5@ 0043e0a8     DraggingDemo.obj
 0002:000010e0       ??_C@_0JM@GIEKPEHN@WARNING?3?5Attempted?5write?5to?5sur@ 0043e0e0     DraggingDemo.obj
 0002:0000119c       ??_C@_0DC@BNOGMHFL@Error?5creating?5surface?5in?5RawIm@ 0043e19c     DraggingDemo.obj
 0002:000011d8       ??_C@_0BD@IFIGDDIC@?7?7?$CL?$CL?$CL?5Load?5image?3?5@ 0043e1d8     DraggingDemo.obj
 0002:000011f0       ??_C@_0DJ@OJEPJEDH@ImageManager?3?3getImagePtrbyURL?$CI@ 0043e1f0     DraggingDemo.obj
 0002:00001234       ??_C@_0BJ@LOCNEGOL@Failed?5to?5load?5image?5?$CFs?6@ 0043e234     DraggingDemo.obj
 0002:00001258       ??_7DragableBaseClassObject@@6B@ 0043e258     DraggingDemo.obj
 0002:000012b0       ??_7DragableObject@@6B@    0043e2b0     DraggingDemo.obj
 0002:00001308       ??_7ImageObject@@6B@       0043e308     DraggingDemo.obj
 0002:0000134c       ??_7DragableImageObject@@6B@ 0043e34c     DraggingDemo.obj
 0002:000013a0       ??_C@_0GH@FKAHJGEE@c?3?2program?5files?5?$CIx86?$CJ?2microsof@ 0043e3a0     DraggingDemo.obj
 0002:00001420       ??_C@_1MO@OJBMIJHH@?$AAc?$AA?3?$AA?2?$AAp?$AAr?$AAo?$AAg?$AAr?$AAa?$AAm?$AA?5?$AAf?$AAi?$AAl?$AAe@ 0043e420     DraggingDemo.obj
 0002:00001518       ??_C@_0BO@PFKOHNJC@vector?5subscript?5out?5of?5range@ 0043e518     DraggingDemo.obj
 0002:00001540       ??_C@_1MK@PODALHBD@?$AAs?$AAt?$AAd?$AA?3?$AA?3?$AAv?$AAe?$AAc?$AAt?$AAo?$AAr?$AA?$DM?$AAc?$AAl?$AAa@ 0043e540     DraggingDemo.obj
 0002:00001638       ??_C@_1EA@LEKOKFNB@?$AA?$CC?$AAv?$AAe?$AAc?$AAt?$AAo?$AAr?$AA?5?$AAs?$AAu?$AAb?$AAs?$AAc?$AAr?$AAi@ 0043e638     DraggingDemo.obj
 0002:00001684       ??_C@_0BP@OLDKBHLM@map?1set?5iterators?5incompatible@ 0043e684     DraggingDemo.obj
 0002:000016b0       ??_C@_0GG@NEGGIBJL@c?3?2program?5files?5?$CIx86?$CJ?2microsof@ 0043e6b0     DraggingDemo.obj
 0002:00001730       ??_C@_1MM@GNDNJPBP@?$AAc?$AA?3?$AA?2?$AAp?$AAr?$AAo?$AAg?$AAr?$AAa?$AAm?$AA?5?$AAf?$AAi?$AAl?$AAe@ 0043e730     DraggingDemo.obj
 0002:00001828       ??_C@_1BPK@GJANFNGE@?$AAs?$AAt?$AAd?$AA?3?$AA?3?$AA_?$AAT?$AAr?$AAe?$AAe?$AA_?$AAc?$AAo?$AAn?$AAs@ 0043e828     DraggingDemo.obj
 0002:00001a88       ??_C@_1EC@JLIDLCDH@?$AA?$CC?$AAm?$AAa?$AAp?$AA?1?$AAs?$AAe?$AAt?$AA?5?$AAi?$AAt?$AAe?$AAr?$AAa?$AAt@ 0043ea88     DraggingDemo.obj
 0002:00001ad8       ??_C@_1BPG@KHABJGCD@?$AAs?$AAt?$AAd?$AA?3?$AA?3?$AA_?$AAT?$AAr?$AAe?$AAe?$AA_?$AAc?$AAo?$AAn?$AAs@ 0043ead8     DraggingDemo.obj
 0002:00001d34       ??_C@_0DG@LCFNIIPB@cannot?5dereference?5value?9initia@ 0043ed34     DraggingDemo.obj
 0002:00001d78       ??_C@_1BPE@BBFPAJEC@?$AAs?$AAt?$AAd?$AA?3?$AA?3?$AA_?$AAT?$AAr?$AAe?$AAe?$AA_?$AAc?$AAo?$AAn?$AAs@ 0043ed78     DraggingDemo.obj
 0002:00001fd0       ??_C@_1HA@ILGCNILF@?$AA?$CC?$AAc?$AAa?$AAn?$AAn?$AAo?$AAt?$AA?5?$AAd?$AAe?$AAr?$AAe?$AAf?$AAe?$AAr@ 0043efd0     DraggingDemo.obj
 0002:00002058       ??_C@_0CI@OKFEHCEB@cannot?5dereference?5end?5map?1set?5@ 0043f058     DraggingDemo.obj
 0002:00002088       ??_C@_1FE@NKHAAGMB@?$AA?$CC?$AAc?$AAa?$AAn?$AAn?$AAo?$AAt?$AA?5?$AAd?$AAe?$AAr?$AAe?$AAf?$AAe?$AAr@ 0043f088     DraggingDemo.obj
 0002:000020ec       ??_C@_0BD@OLBABOEK@vector?$DMT?$DO?5too?5long@ 0043f0ec     DraggingDemo.obj
 0002:00002104       ??_C@_0CF@JILFNJOL@map?1set?5erase?5iterator?5outside?5@ 0043f104     DraggingDemo.obj
 0002:00002130       ??_C@_1DJO@DBMLLDIM@?$AAs?$AAt?$AAd?$AA?3?$AA?3?$AA_?$AAT?$AAr?$AAe?$AAe?$AA?$DM?$AAc?$AAl?$AAa?$AAs@ 0043f130     DraggingDemo.obj
 0002:00002588       ??_C@_1EO@CEDAEPC@?$AA?$CC?$AAm?$AAa?$AAp?$AA?1?$AAs?$AAe?$AAt?$AA?5?$AAe?$AAr?$AAa?$AAs?$AAe?$AA?5@ 0043f588     DraggingDemo.obj
 0002:000025e8       ??_C@_1DJG@KIJFPGMB@?$AAs?$AAt?$AAd?$AA?3?$AA?3?$AA_?$AAT?$AAr?$AAe?$AAe?$AA?$DM?$AAc?$AAl?$AAa?$AAs@ 0043f5e8     DraggingDemo.obj
 0002:00002a38       ??_C@_0DE@DMNPKCGM@cannot?5increment?5value?9initiali@ 0043fa38     DraggingDemo.obj
 0002:00002a78       ??_C@_1BPK@MJPALEKB@?$AAs?$AAt?$AAd?$AA?3?$AA?3?$AA_?$AAT?$AAr?$AAe?$AAe?$AA_?$AAc?$AAo?$AAn?$AAs@ 0043fa78     DraggingDemo.obj
 0002:00002cd8       ??_C@_1GM@BJMCGEGI@?$AA?$CC?$AAc?$AAa?$AAn?$AAn?$AAo?$AAt?$AA?5?$AAi?$AAn?$AAc?$AAr?$AAe?$AAm?$AAe@ 0043fcd8     DraggingDemo.obj
 0002:00002d5c       ??_C@_0CG@NLEHEOHN@cannot?5increment?5end?5map?1set?5it@ 0043fd5c     DraggingDemo.obj
 0002:00002d90       ??_C@_1FA@KLFCDGNE@?$AA?$CC?$AAc?$AAa?$AAn?$AAn?$AAo?$AAt?$AA?5?$AAi?$AAn?$AAc?$AAr?$AAe?$AAm?$AAe@ 0043fd90     DraggingDemo.obj
 0002:00002df0       ??_C@_1BLA@PHDMBNNC@?$AAs?$AAt?$AAd?$AA?3?$AA?3?$AA_?$AAT?$AAr?$AAe?$AAe?$AA_?$AAv?$AAa?$AAl?$AA?$DM@ 0043fdf0     DraggingDemo.obj
 0002:00002ff8       ??_C@_1BPG@HPMHPOG@?$AAs?$AAt?$AAd?$AA?3?$AA?3?$AA_?$AAT?$AAr?$AAe?$AAe?$AA_?$AAc?$AAo?$AAn?$AAs@ 0043fff8     DraggingDemo.obj
 0002:00003258       ??_C@_1BKM@FMCHJHNP@?$AAs?$AAt?$AAd?$AA?3?$AA?3?$AA_?$AAT?$AAr?$AAe?$AAe?$AA_?$AAv?$AAa?$AAl?$AA?$DM@ 00440258     DraggingDemo.obj
 0002:0000345c       ??_C@_0BD@FEEMDEPI@invalid?5comparator@ 0044045c     DraggingDemo.obj
 0002:00003474       ??_C@_1CI@JONCLBEJ@?$AAs?$AAt?$AAd?$AA?3?$AA?3?$AA_?$AAD?$AAe?$AAb?$AAu?$AAg?$AA_?$AAl?$AAt?$AA_@ 00440474     DraggingDemo.obj
 0002:000034a4       ??_C@_1CK@NDNHPKPI@?$AA?$CC?$AAi?$AAn?$AAv?$AAa?$AAl?$AAi?$AAd?$AA?5?$AAc?$AAo?$AAm?$AAp?$AAa?$AAr@ 004404a4     DraggingDemo.obj
 0002:000034d8       ??_C@_0BA@JFNIOLAK@string?5too?5long@ 004404d8     DraggingDemo.obj
 0002:000034f0       ??_7?$_Ref_count@VRawImageData@@@std@@6B@ 004404f0     DraggingDemo.obj
 0002:00003508       ??_C@_1EO@GFNCMDLA@?$AAs?$AAt?$AAd?$AA?3?$AA?3?$AA_?$AAA?$AAl?$AAl?$AAo?$AAc?$AAa?$AAt?$AAe?$AA_@ 00440508     DraggingDemo.obj
 0002:00003568       ??_C@_0DE@JECMPNID@cannot?5decrement?5value?9initiali@ 00440568     DraggingDemo.obj
 0002:000035a8       ??_C@_1BPK@DKMCAIGA@?$AAs?$AAt?$AAd?$AA?3?$AA?3?$AA_?$AAT?$AAr?$AAe?$AAe?$AA_?$AAc?$AAo?$AAn?$AAs@ 004405a8     DraggingDemo.obj
 0002:00003808       ??_C@_1GM@ECOECPCJ@?$AA?$CC?$AAc?$AAa?$AAn?$AAn?$AAo?$AAt?$AA?5?$AAd?$AAe?$AAc?$AAr?$AAe?$AAm?$AAe@ 00440808     DraggingDemo.obj
 0002:0000388c       ??_C@_0CI@FJCIBNID@cannot?5decrement?5begin?5map?1set?5@ 0044088c     DraggingDemo.obj
 0002:000038c0       ??_C@_1FE@HAEBNAIH@?$AA?$CC?$AAc?$AAa?$AAn?$AAn?$AAo?$AAt?$AA?5?$AAd?$AAe?$AAc?$AAr?$AAe?$AAm?$AAe@ 004408c0     DraggingDemo.obj
 0002:00003928       ??_C@_1BPG@PEMOMDCH@?$AAs?$AAt?$AAd?$AA?3?$AA?3?$AA_?$AAT?$AAr?$AAe?$AAe?$AA_?$AAc?$AAo?$AAn?$AAs@ 00440928     DraggingDemo.obj
 0002:00003b84       ??_C@_0BE@JONHPENG@map?1set?$DMT?$DO?5too?5long@ 00440b84     DraggingDemo.obj
 0002:00003ba0       ?MY_PI@DrawingSurface@@2NB 00440ba0     DrawingSurface.obj
 0002:00003bb0       ??_C@_0LN@HOLHFHJI@WARNING?3?5Attempted?5blit?5to?5lock@ 00440bb0     DrawingSurface.obj
 0002:00003c98       __real@3fe0000000000000    00440c98     DrawingSurface.obj
 0002:00003ca8       __real@3fe0c152382d7365    00440ca8     DrawingSurface.obj
 0002:00003cb8       __real@3ff0000000000000    00440cb8     DrawingSurface.obj
 0002:00003cc8       __real@3ff8000000000000    00440cc8     DrawingSurface.obj
 0002:00003cd8       __real@3ff921fb54442d18    00440cd8     DrawingSurface.obj
 0002:00003ce8       __real@4000000000000000    00440ce8     DrawingSurface.obj
 0002:00003cf8       __real@4008000000000000    00440cf8     DrawingSurface.obj
 0002:00003d08       __real@400921fb54442d18    00440d08     DrawingSurface.obj
 0002:00003d18       __real@400f6a7a2955385e    00440d18     DrawingSurface.obj
 0002:00003d28       __real@4010000000000000    00440d28     DrawingSurface.obj
 0002:00003d38       __real@401921fb54442d18    00440d38     DrawingSurface.obj
 0002:00003d48       ??_7FlashingDemo@@6BDisplayableObjectContainer@@@ 00440d48     FlashingDemo.obj
 0002:00003df4       ??_7FlashingDemo@@6BFilterPoints@@@ 00440df4     FlashingDemo.obj
 0002:00003ea8       ??_7BouncingObject@@6B@    00440ea8     ImageObjectDemo.obj
 0002:00003eec       ??_7BouncingImageObject@@6B@ 00440eec     ImageObjectDemo.obj
 0002:00003f30       __real@0000000000000000    00440f30     ImageObjectDemo.obj
 0002:00003f40       __real@3f747ae147ae147b    00440f40     ImageObjectDemo.obj
 0002:00003f50       __real@4004000000000000    00440f50     ImageObjectDemo.obj
 0002:00003f60       __xmm@80000000000000008000000000000000 00440f60     ImageObjectDemo.obj
 0002:00003ff4       ??_7CoordinateMapping@@6B@ 00440ff4     JigsawDemo.obj
 0002:00004004       ??_7JigsawPiece@@6BDragableImageObject@@@ 00441004     JigsawDemo.obj
 0002:00004060       ??_7JigsawPiece@@6BCoordinateMapping@@@ 00441060     JigsawDemo.obj
 0002:0000406c       ??_C@_0CA@ONKMLLKE@?$CF05dx?$CF07dy?$CF07dr?$CF02dc?$CF07dr?$CF07d?$AN?6@ 0044106c     JigsawDemo.obj
 0002:00004094       ??_C@_0BI@OPENOKOK@checkJoinBottom?5success@ 00441094     JigsawDemo.obj
 0002:000040b0       ??_C@_0BF@IKBLDNLD@checkJoinTop?5success@ 004410b0     JigsawDemo.obj
 0002:000040cc       ??_C@_0BH@OIGOFELM@checkJoinRight?5success@ 004410cc     JigsawDemo.obj
 0002:000040e8       ??_C@_0BG@NHPDEGHB@checkJoinLeft?5success@ 004410e8     JigsawDemo.obj
 0002:00004104       ??_C@_0CE@EAMOGAIE@vector?5erase?5iterator?5outside?5r@ 00441104     JigsawDemo.obj
 0002:00004130       ??_C@_1LO@PHHLNKEP@?$AAs?$AAt?$AAd?$AA?3?$AA?3?$AAv?$AAe?$AAc?$AAt?$AAo?$AAr?$AA?$DM?$AAc?$AAl?$AAa@ 00441130     JigsawDemo.obj
 0002:00004218       ??_C@_1EM@BEMPOGMM@?$AA?$CC?$AAv?$AAe?$AAc?$AAt?$AAo?$AAr?$AA?5?$AAe?$AAr?$AAa?$AAs?$AAe?$AA?5?$AAi@ 00441218     JigsawDemo.obj
 0002:00004274       ??_C@_0BO@CAOBBIOC@vector?5iterators?5incompatible@ 00441274     JigsawDemo.obj
 0002:00004298       ??_C@_1OK@EOCJDFAL@?$AAs?$AAt?$AAd?$AA?3?$AA?3?$AA_?$AAV?$AAe?$AAc?$AAt?$AAo?$AAr?$AA_?$AAc?$AAo@ 00441298     JigsawDemo.obj
 0002:000043b0       ??_C@_1EA@DJDGNIII@?$AA?$CC?$AAv?$AAe?$AAc?$AAt?$AAo?$AAr?$AA?5?$AAi?$AAt?$AAe?$AAr?$AAa?$AAt?$AAo@ 004413b0     JigsawDemo.obj
 0002:00004400       ??_7?$_Func_impl_no_alloc@V<lambda_2870de01b601283699da779de20905fc>@@XPAVDisplayableObject@@@std@@6B@ 00441400     JigsawDemo.obj
 0002:00004424       ??_7?$_Func_impl_no_alloc@V<lambda_4d3c514b9e5ad6cc29096aa3b57f98f2>@@XPAVDisplayableObject@@@std@@6B@ 00441424     JigsawDemo.obj
 0002:00004448       ??_7?$_Func_impl_no_alloc@V<lambda_369f3aee610e50bbd15c3a78d9c8686f>@@XPAVDisplayableObject@@@std@@6B@ 00441448     JigsawDemo.obj
 0002:0000446c       ??_7?$_Func_impl_no_alloc@V<lambda_817584b2460f1bcab806f46a25c321a8>@@XPAVDisplayableObject@@@std@@6B@ 0044146c     JigsawDemo.obj
 0002:00004490       ??_7?$_Func_impl_no_alloc@V<lambda_341a6657abb2758c42a6873833e6116f>@@XPAVDisplayableObject@@@std@@6B@ 00441490     JigsawDemo.obj
 0002:0000451c       ??_C@_1CG@LJCPDKEJ@?$AAs?$AAt?$AAd?$AA?3?$AA?3?$AA_?$AAV?$AAe?$AAr?$AAi?$AAf?$AAy?$AA_?$AAr?$AAa@ 0044151c     JigsawDemo.obj
 0002:0000454c       ??_C@_0DI@PBEELKIF@vector?5iterators?5in?5range?5are?5f@ 0044154c     JigsawDemo.obj
 0002:00004590       ??_C@_1HE@KBMFDAFB@?$AA?$CC?$AAv?$AAe?$AAc?$AAt?$AAo?$AAr?$AA?5?$AAi?$AAt?$AAe?$AAr?$AAa?$AAt?$AAo@ 00441590     JigsawDemo.obj
 0002:0000461c       ??_C@_0CB@LIAHLBAO@vector?5iterator?5range?5transpose@ 0044161c     JigsawDemo.obj
 0002:00004648       ??_C@_1EG@ODKBEHFN@?$AA?$CC?$AAv?$AAe?$AAc?$AAt?$AAo?$AAr?$AA?5?$AAi?$AAt?$AAe?$AAr?$AAa?$AAt?$AAo@ 00441648     JigsawDemo.obj
 0002:000046a0       __real@4051800000000000    004416a0     JigsawDemo.obj
 0002:00004760       ??_7FilterPoints@@6B@      00441760     BaseEngine.obj
 0002:0000477c       ??_7DisplayableObjectContainer@@6B@ 0044177c     BaseEngine.obj
 0002:0000478c       ??_7BaseEngine@@6BDisplayableObjectContainer@@@ 0044178c     BaseEngine.obj
 0002:00004838       ??_7BaseEngine@@6BFilterPoints@@@ 00441838     BaseEngine.obj
 0002:00004850       ??_C@_0DE@CHADHGFF@can?8t?5dereference?5value?9initial@ 00441850     BaseEngine.obj
 0002:00004890       ??_C@_1PA@DMJFJEGO@?$AAs?$AAt?$AAd?$AA?3?$AA?3?$AA_?$AAV?$AAe?$AAc?$AAt?$AAo?$AAr?$AA_?$AAc?$AAo@ 00441890     BaseEngine.obj
 0002:000049b0       ??_C@_1GM@FNBFNBEL@?$AA?$CC?$AAc?$AAa?$AAn?$AA?8?$AAt?$AA?5?$AAd?$AAe?$AAr?$AAe?$AAf?$AAe?$AAr?$AAe@ 004419b0     BaseEngine.obj
 0002:00004a34       ??_C@_0CP@MDHADBHN@can?8t?5dereference?5out?5of?5range?5@ 00441a34     BaseEngine.obj
 0002:00004a70       ??_C@_1GC@JDCKOLAC@?$AA?$CC?$AAc?$AAa?$AAn?$AA?8?$AAt?$AA?5?$AAd?$AAe?$AAr?$AAe?$AAf?$AAe?$AAr?$AAe@ 00441a70     BaseEngine.obj
 0002:00004ae8       ??_C@_0DC@KEKNBAEB@can?8t?5increment?5value?9initializ@ 00441ae8     BaseEngine.obj
 0002:00004b28       ??_C@_1PC@LAHDNGHL@?$AAs?$AAt?$AAd?$AA?3?$AA?3?$AA_?$AAV?$AAe?$AAc?$AAt?$AAo?$AAr?$AA_?$AAc?$AAo@ 00441b28     BaseEngine.obj
 0002:00004c50       ??_C@_1GI@EDCILPL@?$AA?$CC?$AAc?$AAa?$AAn?$AA?8?$AAt?$AA?5?$AAi?$AAn?$AAc?$AAr?$AAe?$AAm?$AAe?$AAn@ 00441c50     BaseEngine.obj
 0002:00004ccc       ??_C@_0CJ@OAAAAGPM@can?8t?5increment?5vector?5iterator@ 00441ccc     BaseEngine.obj
 0002:00004d00       ??_C@_1FG@LDPPKMGP@?$AA?$CC?$AAc?$AAa?$AAn?$AA?8?$AAt?$AA?5?$AAi?$AAn?$AAc?$AAr?$AAe?$AAm?$AAe?$AAn@ 00441d00     BaseEngine.obj
 0002:00004d6c       ??_7DisplayableObject@@6B@ 00441d6c     DisplayableObject.obj
 0002:00004de8       ??_C@_0BI@GMOFELCF@Free?5font?3?5?$CFd?5point?5?$CFs?6@ 00441de8     FontManager.obj
 0002:00004e4c       ??_7MappableImageObject@@6B@ 00441e4c     ImageMappingDemo.obj
 0002:00004ea0       __real@3f1a36e2eb1c432d    00441ea0     ImageMappingDemo.obj
 0002:00004eb0       __real@4059000000000000    00441eb0     ImageMappingDemo.obj
 0002:00004ec0       __real@c059000000000000    00441ec0     ImageMappingDemo.obj
 0002:00004ed0       ??_7CroppedCoordinateMapping@@6B@ 00441ed0     SimpleImage.obj
 0002:00004f0c       ??_7JasonsDemoA@@6BDisplayableObjectContainer@@@ 00441f0c     JasonsDemoA.obj
 0002:00004fb8       ??_7JasonsDemoA@@6BFilterPoints@@@ 00441fb8     JasonsDemoA.obj
 0002:00004fd4       ??_7JasonsObjectA@@6B@     00441fd4     JasonsObjectA.obj
 0002:00005018       ??_7TileManager@@6B@       00442018     JasonsTileManager.obj
 0002:00005028       ??_7JasonsTileManager@@6B@ 00442028     JasonsTileManager.obj
 0002:000050a8       ??_7DragableTokenContainer@@6BDragableBaseClassObject@@@ 004420a8     PlayingCardsDemo.obj
 0002:00005104       ??_7DragableTokenContainer@@6BDisplayableObjectContainer@@@ 00442104     PlayingCardsDemo.obj
 0002:00005110       ??_C@_0BI@NHFDFHOB@Cornerstone?5Regular?4ttf@ 00442110     PlayingCardsDemo.obj
 0002:0000512c       ??_C@_05JLAFMLMB@Token@    0044212c     PlayingCardsDemo.obj
 0002:00005134       ??_C@_05FKOOCFCH@Cntnr@    00442134     PlayingCardsDemo.obj
 0002:00005140       ??_7DragableToken@@6B@     00442140     PlayingCardsDemo.obj
 0002:00005188       ??_7TokenTray@@6BDragableBaseClassObject@@@ 00442188     PlayingCardsDemo.obj
 0002:000051e4       ??_7TokenTray@@6BDisplayableObjectContainer@@@ 004421e4     PlayingCardsDemo.obj
 0002:000051f0       ??_C@_06OIOKNNNI@Tokens@   004421f0     PlayingCardsDemo.obj
 0002:000051fc       ??_7CardContainer@@6BDragableBaseClassObject@@@ 004421fc     PlayingCardsDemo.obj
 0002:00005258       ??_7CardContainer@@6BDisplayableObjectContainer@@@ 00442258     PlayingCardsDemo.obj
 0002:00005264       ??_C@_07PDLKMNNH@Shuffle@  00442264     PlayingCardsDemo.obj
 0002:00005270       ??_C@_04HMPDNAFK@Draw@     00442270     PlayingCardsDemo.obj
 0002:00005278       ??_C@_07KLFFMLGM@DISCARD@  00442278     PlayingCardsDemo.obj
 0002:00005284       ??_C@_04FJDFPLDD@DECK@     00442284     PlayingCardsDemo.obj
 0002:00005290       ??_7CoordinateMappingRotate@@6B@ 00442290     PlayingCardsDemo.obj
 0002:000052a0       ??_7CoordinateMappingRotateAndColour@@6B@ 004422a0     PlayingCardsDemo.obj
 0002:000052b4       ??_7CardOrTile@@6BDragableBaseClassObject@@@ 004422b4     PlayingCardsDemo.obj
 0002:00005310       ??_7CardOrTile@@6BDisplayableObjectContainer@@@ 00442310     PlayingCardsDemo.obj
 0002:0000531c       ??_C@_04IPBPFFEL@Load@     0044231c     PlayingCardsDemo.obj
 0002:00005324       ??_C@_06CMLPEGNC@Failed@   00442324     PlayingCardsDemo.obj
 0002:0000532c       ??_C@_0BJ@HAJGEHKO@transposed?5pointer?5range@ 0044232c     PlayingCardsDemo.obj
 0002:0000534c       ??_C@_1DG@FJIKMGFD@?$AA?$CC?$AAt?$AAr?$AAa?$AAn?$AAs?$AAp?$AAo?$AAs?$AAe?$AAd?$AA?5?$AAp?$AAo?$AAi@ 0044234c     PlayingCardsDemo.obj
 0002:0000538c       ??_C@_0BK@EIGCDBID@random?5value?5out?5of?5range@ 0044238c     PlayingCardsDemo.obj
 0002:000053b0       ??_C@_0GK@JMBMHIBC@c?3?2program?5files?5?$CIx86?$CJ?2microsof@ 004423b0     PlayingCardsDemo.obj
 0002:00005430       ??_C@_1NE@FKBPBJEB@?$AAc?$AA?3?$AA?2?$AAp?$AAr?$AAo?$AAg?$AAr?$AAa?$AAm?$AA?5?$AAf?$AAi?$AAl?$AAe@ 00442430     PlayingCardsDemo.obj
 0002:00005530       ??_C@_1CM@KDDDLLBE@?$AAs?$AAt?$AAd?$AA?3?$AA?3?$AA_?$AAR?$AAa?$AAn?$AAd?$AAo?$AAm?$AA_?$AAs?$AAh@ 00442530     PlayingCardsDemo.obj
 0002:00005564       ??_C@_1DI@PGFAEKLK@?$AA?$CC?$AAr?$AAa?$AAn?$AAd?$AAo?$AAm?$AA?5?$AAv?$AAa?$AAl?$AAu?$AAe?$AA?5?$AAo@ 00442564     PlayingCardsDemo.obj
 0002:000055a8       __real@406fe00000000000    004425a8     PlayingCardsDemo.obj
 0002:00005628       ??_7StarfieldDemo@@6BDisplayableObjectContainer@@@ 00442628     StarfieldDemo.obj
 0002:000056d4       ??_7StarfieldDemo@@6BFilterPoints@@@ 004426d4     StarfieldDemo.obj
 0002:000056f0       ??_7BouncingBall@@6B@      004426f0     BouncingBall.obj
 0002:00005734       ??_7BouncingBall1@@6B@     00442734     BouncingBall.obj
 0002:00005778       ??_7BouncingBall2@@6B@     00442778     BouncingBall.obj
 0002:000057b8       __real@3f847ae147ae147b    004427b8     BouncingBall.obj
 0002:0000580d       ??_C@_00CNPNBAHC@@         0044280d     BouncingBallMain.obj
 0002:00005810       ??_C@_01IPJKGB@?$CD@       00442810     BouncingBallMain.obj
 0002:00005814       ??_C@_02KLCDNAMD@?$CDS@    00442814     BouncingBallMain.obj
 0002:00005818       ??_C@_02LCDIOBIC@?$CDR@    00442818     BouncingBallMain.obj
 0002:0000581c       ??_C@_0BI@CFPLBAOH@invalid?5string?5position@ 0044281c     BouncingBallMain.obj
 0002:00005838       __real@3fe999999999999a    00442838     BouncingBallMain.obj
 0002:00005848       __real@3ff199999999999a    00442848     BouncingBallMain.obj
 0002:00005858       __real@3ff3333333333333    00442858     BouncingBallMain.obj
 0002:00005868       __real@4049000000000000    00442868     BouncingBallMain.obj
 0002:00005878       __real@4062c00000000000    00442878     BouncingBallMain.obj
 0002:00005888       __real@4066800000000000    00442888     BouncingBallMain.obj
 0002:00005898       __real@4069000000000000    00442898     BouncingBallMain.obj
 0002:000058a8       __real@406f400000000000    004428a8     BouncingBallMain.obj
 0002:000058b8       __real@4071300000000000    004428b8     BouncingBallMain.obj
 0002:000058c8       __real@4072c00000000000    004428c8     BouncingBallMain.obj
 0002:000058d8       __real@4074500000000000    004428d8     BouncingBallMain.obj
 0002:000058e8       __real@4075e00000000000    004428e8     BouncingBallMain.obj
 0002:000058f8       __real@4077700000000000    004428f8     BouncingBallMain.obj
 0002:00005908       __real@4079000000000000    00442908     BouncingBallMain.obj
 0002:00005918       __real@4079a00000000000    00442918     BouncingBallMain.obj
 0002:00005928       __real@407c200000000000    00442928     BouncingBallMain.obj
 0002:00005938       __real@407f400000000000    00442938     BouncingBallMain.obj
 0002:00005948       __real@4081300000000000    00442948     BouncingBallMain.obj
 0002:00005958       __real@4082c00000000000    00442958     BouncingBallMain.obj
 0002:00005968       __real@4084500000000000    00442968     BouncingBallMain.obj
 0002:00005978       __real@4087700000000000    00442978     BouncingBallMain.obj
 0002:00005a24       ??_7SimpleFlashingDragableImageObject@@6B@ 00442a24     ZoomingDemo.obj
 0002:00005b98       ??_7MazeDemoTileManager@@6B@ 00442b98     MazeDemoMain.obj
 0002:00005ba8       ??_7MazeDemoMain@@6BDisplayableObjectContainer@@@ 00442ba8     MazeDemoMain.obj
 0002:00005c54       ??_7MazeDemoMain@@6BFilterPoints@@@ 00442c54     MazeDemoMain.obj
 0002:00005c70       ??_7MazeDemoObject@@6B@    00442c70     MazeDemoObject.obj
 0002:00005cb4       ??_7type_info@@6B@         00442cb4     MSVCRTD:std_type_info_static.obj
 0002:00005cc0       ??_7exception@std@@6B@     00442cc0     MSVCRTD:throw_bad_alloc.obj
 0002:00005ccc       ??_C@_0BC@EOODALEL@Unknown?5exception@ 00442ccc     MSVCRTD:throw_bad_alloc.obj
 0002:00005ce8       ??_7bad_alloc@std@@6B@     00442ce8     MSVCRTD:throw_bad_alloc.obj
 0002:00005cf4       ??_C@_0P@GHFPNOJB@bad?5allocation@ 00442cf4     MSVCRTD:throw_bad_alloc.obj
 0002:00005d0c       ??_7bad_array_new_length@std@@6B@ 00442d0c     MSVCRTD:throw_bad_alloc.obj
 0002:00005d18       ??_C@_0BF@KINCDENJ@bad?5array?5new?5length@ 00442d18     MSVCRTD:throw_bad_alloc.obj
 0002:00005d40       ??_C@_0BJ@HFNMHALN@Out?5of?5memory?5?9?5aborting@ 00442d40     SDL2main:SDL_windows_main.obj
 0002:00005d60       ??_C@_0M@HFFOIJBL@Fatal?5Error@ 00442d60     SDL2main:SDL_windows_main.obj
 0002:00005da8       __load_config_used         00442da8     MSVCRTD:loadcfg.obj
 0002:00006050       ??_R3_Ref_count_base@std@@8 00443050     DraggingDemo.obj
 0002:00006064       ??_R2_Ref_count_base@std@@8 00443064     DraggingDemo.obj
 0002:0000606c       ??_R1A@?0A@EA@_Ref_count_base@std@@8 0044306c     DraggingDemo.obj
 0002:00006090       ??_R4DragableBaseClassObject@@6B@ 00443090     DraggingDemo.obj
 0002:000060a8       ??_R3DragableBaseClassObject@@8 004430a8     DraggingDemo.obj
 0002:000060bc       ??_R2DragableBaseClassObject@@8 004430bc     DraggingDemo.obj
 0002:000060c8       ??_R1A@?0A@EA@DragableBaseClassObject@@8 004430c8     DraggingDemo.obj
 0002:000060ec       ??_R1A@?0A@EA@DisplayableObject@@8 004430ec     DraggingDemo.obj
 0002:00006110       ??_R3DisplayableObject@@8  00443110     DraggingDemo.obj
 0002:00006124       ??_R2DisplayableObject@@8  00443124     DraggingDemo.obj
 0002:0000612c       ??_R4DragableObject@@6B@   0044312c     DraggingDemo.obj
 0002:00006144       ??_R3DragableObject@@8     00443144     DraggingDemo.obj
 0002:00006158       ??_R2DragableObject@@8     00443158     DraggingDemo.obj
 0002:00006168       ??_R1A@?0A@EA@DragableObject@@8 00443168     DraggingDemo.obj
 0002:0000618c       ??_R4ImageObject@@6B@      0044318c     DraggingDemo.obj
 0002:000061a4       ??_R3ImageObject@@8        004431a4     DraggingDemo.obj
 0002:000061b8       ??_R2ImageObject@@8        004431b8     DraggingDemo.obj
 0002:000061c4       ??_R1A@?0A@EA@ImageObject@@8 004431c4     DraggingDemo.obj
 0002:000061e8       ??_R4DragableImageObject@@6B@ 004431e8     DraggingDemo.obj
 0002:00006200       ??_R3DragableImageObject@@8 00443200     DraggingDemo.obj
 0002:00006214       ??_R2DragableImageObject@@8 00443214     DraggingDemo.obj
 0002:00006224       ??_R1A@?0A@EA@DragableImageObject@@8 00443224     DraggingDemo.obj
 0002:00006248       ??_R4?$_Ref_count@VRawImageData@@@std@@6B@ 00443248     DraggingDemo.obj
 0002:00006260       ??_R3?$_Ref_count@VRawImageData@@@std@@8 00443260     DraggingDemo.obj
 0002:00006274       ??_R2?$_Ref_count@VRawImageData@@@std@@8 00443274     DraggingDemo.obj
 0002:00006280       ??_R1A@?0A@EA@?$_Ref_count@VRawImageData@@@std@@8 00443280     DraggingDemo.obj
 0002:000062a4       ??_R3DisplayableObjectContainer@@8 004432a4     FlashingDemo.obj
 0002:000062b8       ??_R2DisplayableObjectContainer@@8 004432b8     FlashingDemo.obj
 0002:000062c0       ??_R1A@?0A@EA@DisplayableObjectContainer@@8 004432c0     FlashingDemo.obj
 0002:000062e4       ??_R4FlashingDemo@@6BDisplayableObjectContainer@@@ 004432e4     FlashingDemo.obj
 0002:000062fc       ??_R3FlashingDemo@@8       004432fc     FlashingDemo.obj
 0002:00006310       ??_R2FlashingDemo@@8       00443310     FlashingDemo.obj
 0002:00006324       ??_R1A@?0A@EA@FlashingDemo@@8 00443324     FlashingDemo.obj
 0002:00006348       ??_R1A@?0A@EA@BaseEngine@@8 00443348     FlashingDemo.obj
 0002:0000636c       ??_R3BaseEngine@@8         0044336c     FlashingDemo.obj
 0002:00006380       ??_R2BaseEngine@@8         00443380     FlashingDemo.obj
 0002:00006390       ??_R1BM@?0A@EA@FilterPoints@@8 00443390     FlashingDemo.obj
 0002:000063b4       ??_R3FilterPoints@@8       004433b4     FlashingDemo.obj
 0002:000063c8       ??_R2FilterPoints@@8       004433c8     FlashingDemo.obj
 0002:000063d0       ??_R1A@?0A@EA@FilterPoints@@8 004433d0     FlashingDemo.obj
 0002:000063f4       ??_R4FlashingDemo@@6BFilterPoints@@@ 004433f4     FlashingDemo.obj
 0002:0000640c       ??_R4BouncingObject@@6B@   0044340c     ImageObjectDemo.obj
 0002:00006424       ??_R3BouncingObject@@8     00443424     ImageObjectDemo.obj
 0002:00006438       ??_R2BouncingObject@@8     00443438     ImageObjectDemo.obj
 0002:00006444       ??_R1A@?0A@EA@BouncingObject@@8 00443444     ImageObjectDemo.obj
 0002:00006468       ??_R4BouncingImageObject@@6B@ 00443468     ImageObjectDemo.obj
 0002:00006480       ??_R3BouncingImageObject@@8 00443480     ImageObjectDemo.obj
 0002:00006494       ??_R2BouncingImageObject@@8 00443494     ImageObjectDemo.obj
 0002:000064a4       ??_R1A@?0A@EA@BouncingImageObject@@8 004434a4     ImageObjectDemo.obj
 0002:000064c8       ??_R3?$_Func_base@XPAVDisplayableObject@@@std@@8 004434c8     JigsawDemo.obj
 0002:000064dc       ??_R2?$_Func_base@XPAVDisplayableObject@@@std@@8 004434dc     JigsawDemo.obj
 0002:000064e4       ??_R1A@?0A@EA@?$_Func_base@XPAVDisplayableObject@@@std@@8 004434e4     JigsawDemo.obj
 0002:00006508       ??_R4CoordinateMapping@@6B@ 00443508     JigsawDemo.obj
 0002:00006520       ??_R3CoordinateMapping@@8  00443520     JigsawDemo.obj
 0002:00006534       ??_R2CoordinateMapping@@8  00443534     JigsawDemo.obj
 0002:0000653c       ??_R1A@?0A@EA@CoordinateMapping@@8 0044353c     JigsawDemo.obj
 0002:00006560       ??_R4JigsawPiece@@6BDragableImageObject@@@ 00443560     JigsawDemo.obj
 0002:00006578       ??_R3JigsawPiece@@8        00443578     JigsawDemo.obj
 0002:0000658c       ??_R2JigsawPiece@@8        0044358c     JigsawDemo.obj
 0002:000065a8       ??_R1A@?0A@EA@JigsawPiece@@8 004435a8     JigsawDemo.obj
 0002:000065cc       ??_R1EM@?0A@EA@CoordinateMapping@@8 004435cc     JigsawDemo.obj
 0002:000065f0       ??_R4JigsawPiece@@6BCoordinateMapping@@@ 004435f0     JigsawDemo.obj
 0002:00006608       ??_R4?$_Func_impl_no_alloc@V<lambda_2870de01b601283699da779de20905fc>@@XPAVDisplayableObject@@@std@@6B@ 00443608     JigsawDemo.obj
 0002:00006620       ??_R3?$_Func_impl_no_alloc@V<lambda_2870de01b601283699da779de20905fc>@@XPAVDisplayableObject@@@std@@8 00443620     JigsawDemo.obj
 0002:00006634       ??_R2?$_Func_impl_no_alloc@V<lambda_2870de01b601283699da779de20905fc>@@XPAVDisplayableObject@@@std@@8 00443634     JigsawDemo.obj
 0002:00006640       ??_R1A@?0A@EA@?$_Func_impl_no_alloc@V<lambda_2870de01b601283699da779de20905fc>@@XPAVDisplayableObject@@@std@@8 00443640     JigsawDemo.obj
 0002:00006664       ??_R4?$_Func_impl_no_alloc@V<lambda_4d3c514b9e5ad6cc29096aa3b57f98f2>@@XPAVDisplayableObject@@@std@@6B@ 00443664     JigsawDemo.obj
 0002:0000667c       ??_R3?$_Func_impl_no_alloc@V<lambda_4d3c514b9e5ad6cc29096aa3b57f98f2>@@XPAVDisplayableObject@@@std@@8 0044367c     JigsawDemo.obj
 0002:00006690       ??_R2?$_Func_impl_no_alloc@V<lambda_4d3c514b9e5ad6cc29096aa3b57f98f2>@@XPAVDisplayableObject@@@std@@8 00443690     JigsawDemo.obj
 0002:0000669c       ??_R1A@?0A@EA@?$_Func_impl_no_alloc@V<lambda_4d3c514b9e5ad6cc29096aa3b57f98f2>@@XPAVDisplayableObject@@@std@@8 0044369c     JigsawDemo.obj
 0002:000066c0       ??_R4?$_Func_impl_no_alloc@V<lambda_369f3aee610e50bbd15c3a78d9c8686f>@@XPAVDisplayableObject@@@std@@6B@ 004436c0     JigsawDemo.obj
 0002:000066d8       ??_R3?$_Func_impl_no_alloc@V<lambda_369f3aee610e50bbd15c3a78d9c8686f>@@XPAVDisplayableObject@@@std@@8 004436d8     JigsawDemo.obj
 0002:000066ec       ??_R2?$_Func_impl_no_alloc@V<lambda_369f3aee610e50bbd15c3a78d9c8686f>@@XPAVDisplayableObject@@@std@@8 004436ec     JigsawDemo.obj
 0002:000066f8       ??_R1A@?0A@EA@?$_Func_impl_no_alloc@V<lambda_369f3aee610e50bbd15c3a78d9c8686f>@@XPAVDisplayableObject@@@std@@8 004436f8     JigsawDemo.obj
 0002:0000671c       ??_R4?$_Func_impl_no_alloc@V<lambda_817584b2460f1bcab806f46a25c321a8>@@XPAVDisplayableObject@@@std@@6B@ 0044371c     JigsawDemo.obj
 0002:00006734       ??_R3?$_Func_impl_no_alloc@V<lambda_817584b2460f1bcab806f46a25c321a8>@@XPAVDisplayableObject@@@std@@8 00443734     JigsawDemo.obj
 0002:00006748       ??_R2?$_Func_impl_no_alloc@V<lambda_817584b2460f1bcab806f46a25c321a8>@@XPAVDisplayableObject@@@std@@8 00443748     JigsawDemo.obj
 0002:00006754       ??_R1A@?0A@EA@?$_Func_impl_no_alloc@V<lambda_817584b2460f1bcab806f46a25c321a8>@@XPAVDisplayableObject@@@std@@8 00443754     JigsawDemo.obj
 0002:00006778       ??_R4?$_Func_impl_no_alloc@V<lambda_341a6657abb2758c42a6873833e6116f>@@XPAVDisplayableObject@@@std@@6B@ 00443778     JigsawDemo.obj
 0002:00006790       ??_R3?$_Func_impl_no_alloc@V<lambda_341a6657abb2758c42a6873833e6116f>@@XPAVDisplayableObject@@@std@@8 00443790     JigsawDemo.obj
 0002:000067a4       ??_R2?$_Func_impl_no_alloc@V<lambda_341a6657abb2758c42a6873833e6116f>@@XPAVDisplayableObject@@@std@@8 004437a4     JigsawDemo.obj
 0002:000067b0       ??_R1A@?0A@EA@?$_Func_impl_no_alloc@V<lambda_341a6657abb2758c42a6873833e6116f>@@XPAVDisplayableObject@@@std@@8 004437b0     JigsawDemo.obj
 0002:000068e8       ??_R4BaseEngine@@6BDisplayableObjectContainer@@@ 004438e8     BaseEngine.obj
 0002:00006900       ??_R4BaseEngine@@6BFilterPoints@@@ 00443900     BaseEngine.obj
 0002:00006918       ??_R4FilterPoints@@6B@     00443918     BaseEngine.obj
 0002:00006930       ??_R4DisplayableObjectContainer@@6B@ 00443930     BaseEngine.obj
 0002:00006948       ??_R4DisplayableObject@@6B@ 00443948     DisplayableObject.obj
 0002:00006960       ??_R4MappableImageObject@@6B@ 00443960     ImageMappingDemo.obj
 0002:00006978       ??_R3MappableImageObject@@8 00443978     ImageMappingDemo.obj
 0002:0000698c       ??_R2MappableImageObject@@8 0044398c     ImageMappingDemo.obj
 0002:000069a0       ??_R1A@?0A@EA@MappableImageObject@@8 004439a0     ImageMappingDemo.obj
 0002:000069c4       ??_R4CroppedCoordinateMapping@@6B@ 004439c4     SimpleImage.obj
 0002:000069dc       ??_R3CroppedCoordinateMapping@@8 004439dc     SimpleImage.obj
 0002:000069f0       ??_R2CroppedCoordinateMapping@@8 004439f0     SimpleImage.obj
 0002:000069fc       ??_R1A@?0A@EA@CroppedCoordinateMapping@@8 004439fc     SimpleImage.obj
 0002:00006a20       ??_R4JasonsDemoA@@6BDisplayableObjectContainer@@@ 00443a20     JasonsDemoA.obj
 0002:00006a38       ??_R3JasonsDemoA@@8        00443a38     JasonsDemoA.obj
 0002:00006a4c       ??_R2JasonsDemoA@@8        00443a4c     JasonsDemoA.obj
 0002:00006a60       ??_R1A@?0A@EA@JasonsDemoA@@8 00443a60     JasonsDemoA.obj
 0002:00006a84       ??_R4JasonsDemoA@@6BFilterPoints@@@ 00443a84     JasonsDemoA.obj
 0002:00006a9c       ??_R4JasonsObjectA@@6B@    00443a9c     JasonsObjectA.obj
 0002:00006ab4       ??_R3JasonsObjectA@@8      00443ab4     JasonsObjectA.obj
 0002:00006ac8       ??_R2JasonsObjectA@@8      00443ac8     JasonsObjectA.obj
 0002:00006ad4       ??_R1A@?0A@EA@JasonsObjectA@@8 00443ad4     JasonsObjectA.obj
 0002:00006af8       ??_R4TileManager@@6B@      00443af8     JasonsTileManager.obj
 0002:00006b10       ??_R3TileManager@@8        00443b10     JasonsTileManager.obj
 0002:00006b24       ??_R2TileManager@@8        00443b24     JasonsTileManager.obj
 0002:00006b2c       ??_R1A@?0A@EA@TileManager@@8 00443b2c     JasonsTileManager.obj
 0002:00006b50       ??_R4JasonsTileManager@@6B@ 00443b50     JasonsTileManager.obj
 0002:00006b68       ??_R3JasonsTileManager@@8  00443b68     JasonsTileManager.obj
 0002:00006b7c       ??_R2JasonsTileManager@@8  00443b7c     JasonsTileManager.obj
 0002:00006b88       ??_R1A@?0A@EA@JasonsTileManager@@8 00443b88     JasonsTileManager.obj
 0002:00006bac       ??_R4DragableTokenContainer@@6BDragableBaseClassObject@@@ 00443bac     PlayingCardsDemo.obj
 0002:00006bc4       ??_R3DragableTokenContainer@@8 00443bc4     PlayingCardsDemo.obj
 0002:00006bd8       ??_R2DragableTokenContainer@@8 00443bd8     PlayingCardsDemo.obj
 0002:00006bec       ??_R1A@?0A@EA@DragableTokenContainer@@8 00443bec     PlayingCardsDemo.obj
 0002:00006c10       ??_R1DM@?0A@EA@DisplayableObjectContainer@@8 00443c10     PlayingCardsDemo.obj
 0002:00006c34       ??_R4DragableTokenContainer@@6BDisplayableObjectContainer@@@ 00443c34     PlayingCardsDemo.obj
 0002:00006c4c       ??_R4DragableToken@@6B@    00443c4c     PlayingCardsDemo.obj
 0002:00006c64       ??_R3DragableToken@@8      00443c64     PlayingCardsDemo.obj
 0002:00006c78       ??_R2DragableToken@@8      00443c78     PlayingCardsDemo.obj
 0002:00006c84       ??_R1A@?0A@EA@DragableToken@@8 00443c84     PlayingCardsDemo.obj
 0002:00006ca8       ??_R4TokenTray@@6BDragableBaseClassObject@@@ 00443ca8     PlayingCardsDemo.obj
 0002:00006cc0       ??_R3TokenTray@@8          00443cc0     PlayingCardsDemo.obj
 0002:00006cd4       ??_R2TokenTray@@8          00443cd4     PlayingCardsDemo.obj
 0002:00006cf0       ??_R1A@?0A@EA@TokenTray@@8 00443cf0     PlayingCardsDemo.obj
 0002:00006d14       ??_R4TokenTray@@6BDisplayableObjectContainer@@@ 00443d14     PlayingCardsDemo.obj
 0002:00006d2c       ??_R4CardOrTile@@6BDragableBaseClassObject@@@ 00443d2c     PlayingCardsDemo.obj
 0002:00006d44       ??_R3CardOrTile@@8         00443d44     PlayingCardsDemo.obj
 0002:00006d58       ??_R2CardOrTile@@8         00443d58     PlayingCardsDemo.obj
 0002:00006d74       ??_R1A@?0A@EA@CardOrTile@@8 00443d74     PlayingCardsDemo.obj
 0002:00006d98       ??_R4CardOrTile@@6BDisplayableObjectContainer@@@ 00443d98     PlayingCardsDemo.obj
 0002:00006db0       ??_R4CardContainer@@6BDragableBaseClassObject@@@ 00443db0     PlayingCardsDemo.obj
 0002:00006dc8       ??_R3CardContainer@@8      00443dc8     PlayingCardsDemo.obj
 0002:00006ddc       ??_R2CardContainer@@8      00443ddc     PlayingCardsDemo.obj
 0002:00006df8       ??_R1A@?0A@EA@CardContainer@@8 00443df8     PlayingCardsDemo.obj
 0002:00006e1c       ??_R4CardContainer@@6BDisplayableObjectContainer@@@ 00443e1c     PlayingCardsDemo.obj
 0002:00006e34       ??_R4CoordinateMappingRotate@@6B@ 00443e34     PlayingCardsDemo.obj
 0002:00006e4c       ??_R3CoordinateMappingRotate@@8 00443e4c     PlayingCardsDemo.obj
 0002:00006e60       ??_R2CoordinateMappingRotate@@8 00443e60     PlayingCardsDemo.obj
 0002:00006e6c       ??_R1A@?0A@EA@CoordinateMappingRotate@@8 00443e6c     PlayingCardsDemo.obj
 0002:00006e90       ??_R4CoordinateMappingRotateAndColour@@6B@ 00443e90     PlayingCardsDemo.obj
 0002:00006ea8       ??_R3CoordinateMappingRotateAndColour@@8 00443ea8     PlayingCardsDemo.obj
 0002:00006ebc       ??_R2CoordinateMappingRotateAndColour@@8 00443ebc     PlayingCardsDemo.obj
 0002:00006ecc       ??_R1A@?0A@EA@CoordinateMappingRotateAndColour@@8 00443ecc     PlayingCardsDemo.obj
 0002:00006ef0       ??_R4StarfieldDemo@@6BDisplayableObjectContainer@@@ 00443ef0     StarfieldDemo.obj
 0002:00006f08       ??_R3StarfieldDemo@@8      00443f08     StarfieldDemo.obj
 0002:00006f1c       ??_R2StarfieldDemo@@8      00443f1c     StarfieldDemo.obj
 0002:00006f30       ??_R1A@?0A@EA@StarfieldDemo@@8 00443f30     StarfieldDemo.obj
 0002:00006f54       ??_R4StarfieldDemo@@6BFilterPoints@@@ 00443f54     StarfieldDemo.obj
 0002:00006f6c       ??_R4BouncingBall@@6B@     00443f6c     BouncingBall.obj
 0002:00006f84       ??_R3BouncingBall@@8       00443f84     BouncingBall.obj
 0002:00006f98       ??_R2BouncingBall@@8       00443f98     BouncingBall.obj
 0002:00006fa4       ??_R1A@?0A@EA@BouncingBall@@8 00443fa4     BouncingBall.obj
 0002:00006fc8       ??_R4BouncingBall1@@6B@    00443fc8     BouncingBall.obj
 0002:00006fe0       ??_R3BouncingBall1@@8      00443fe0     BouncingBall.obj
 0002:00006ff4       ??_R2BouncingBall1@@8      00443ff4     BouncingBall.obj
 0002:00007004       ??_R1A@?0A@EA@BouncingBall1@@8 00444004     BouncingBall.obj
 0002:00007028       ??_R4BouncingBall2@@6B@    00444028     BouncingBall.obj
 0002:00007040       ??_R3BouncingBall2@@8      00444040     BouncingBall.obj
 0002:00007054       ??_R2BouncingBall2@@8      00444054     BouncingBall.obj
 0002:00007064       ??_R1A@?0A@EA@BouncingBall2@@8 00444064     BouncingBall.obj
 0002:00007088       ??_R4SimpleFlashingDragableImageObject@@6B@ 00444088     ZoomingDemo.obj
 0002:000070a0       ??_R3SimpleFlashingDragableImageObject@@8 004440a0     ZoomingDemo.obj
 0002:000070b4       ??_R2SimpleFlashingDragableImageObject@@8 004440b4     ZoomingDemo.obj
 0002:000070c0       ??_R1A@?0A@EA@SimpleFlashingDragableImageObject@@8 004440c0     ZoomingDemo.obj
 0002:000070e4       ??_R4MazeDemoMain@@6BDisplayableObjectContainer@@@ 004440e4     MazeDemoMain.obj
 0002:000070fc       ??_R3MazeDemoMain@@8       004440fc     MazeDemoMain.obj
 0002:00007110       ??_R2MazeDemoMain@@8       00444110     MazeDemoMain.obj
 0002:00007124       ??_R1A@?0A@EA@MazeDemoMain@@8 00444124     MazeDemoMain.obj
 0002:00007148       ??_R4MazeDemoMain@@6BFilterPoints@@@ 00444148     MazeDemoMain.obj
 0002:00007160       ??_R4MazeDemoTileManager@@6B@ 00444160     MazeDemoMain.obj
 0002:00007178       ??_R3MazeDemoTileManager@@8 00444178     MazeDemoMain.obj
 0002:0000718c       ??_R2MazeDemoTileManager@@8 0044418c     MazeDemoMain.obj
 0002:00007198       ??_R1A@?0A@EA@MazeDemoTileManager@@8 00444198     MazeDemoMain.obj
 0002:000071bc       ??_R4MazeDemoObject@@6B@   004441bc     MazeDemoObject.obj
 0002:000071d4       ??_R3MazeDemoObject@@8     004441d4     MazeDemoObject.obj
 0002:000071e8       ??_R2MazeDemoObject@@8     004441e8     MazeDemoObject.obj
 0002:000071f4       ??_R1A@?0A@EA@MazeDemoObject@@8 004441f4     MazeDemoObject.obj
 0002:00007218       ??_R4type_info@@6B@        00444218     MSVCRTD:std_type_info_static.obj
 0002:00007230       ??_R3type_info@@8          00444230     MSVCRTD:std_type_info_static.obj
 0002:00007244       ??_R2type_info@@8          00444244     MSVCRTD:std_type_info_static.obj
 0002:0000724c       ??_R1A@?0A@EA@type_info@@8 0044424c     MSVCRTD:std_type_info_static.obj
 0002:00007270       ??_R4exception@std@@6B@    00444270     MSVCRTD:throw_bad_alloc.obj
 0002:00007288       ??_R3exception@std@@8      00444288     MSVCRTD:throw_bad_alloc.obj
 0002:0000729c       ??_R2exception@std@@8      0044429c     MSVCRTD:throw_bad_alloc.obj
 0002:000072a4       ??_R1A@?0A@EA@exception@std@@8 004442a4     MSVCRTD:throw_bad_alloc.obj
 0002:000072c8       ??_R4bad_alloc@std@@6B@    004442c8     MSVCRTD:throw_bad_alloc.obj
 0002:000072e0       ??_R3bad_alloc@std@@8      004442e0     MSVCRTD:throw_bad_alloc.obj
 0002:000072f4       ??_R2bad_alloc@std@@8      004442f4     MSVCRTD:throw_bad_alloc.obj
 0002:00007300       ??_R1A@?0A@EA@bad_alloc@std@@8 00444300     MSVCRTD:throw_bad_alloc.obj
 0002:00007324       ??_R4bad_array_new_length@std@@6B@ 00444324     MSVCRTD:throw_bad_alloc.obj
 0002:0000733c       ??_R3bad_array_new_length@std@@8 0044433c     MSVCRTD:throw_bad_alloc.obj
 0002:00007350       ??_R2bad_array_new_length@std@@8 00444350     MSVCRTD:throw_bad_alloc.obj
 0002:00007360       ??_R1A@?0A@EA@bad_array_new_length@std@@8 00444360     MSVCRTD:throw_bad_alloc.obj
 0002:00007500       ___safe_se_handler_table   00444500     <linker-defined>
 0002:00007aec       ___rtc_iaa                 00444aec     MSVCRTD:initsect.obj
 0002:00007bf0       ___rtc_izz                 00444bf0     MSVCRTD:initsect.obj
 0002:00007cf4       ___rtc_taa                 00444cf4     MSVCRTD:initsect.obj
 0002:00007df8       ___rtc_tzz                 00444df8     MSVCRTD:initsect.obj
 0002:0000a800       __TI2?AVbad_alloc@std@@    00447800     MSVCRTD:throw_bad_alloc.obj
 0002:0000a814       __CTA2?AVbad_alloc@std@@   00447814     MSVCRTD:throw_bad_alloc.obj
 0002:0000a824       __CT??_R0?AVbad_alloc@std@@@8??0bad_alloc@std@@QAE@ABV01@@Z12 00447824     MSVCRTD:throw_bad_alloc.obj
 0002:0000a844       __CT??_R0?AVexception@std@@@8??0exception@std@@QAE@ABV01@@Z12 00447844     MSVCRTD:throw_bad_alloc.obj
 0002:0000a864       __TI3?AVbad_array_new_length@std@@ 00447864     MSVCRTD:throw_bad_alloc.obj
 0002:0000a878       __CTA3?AVbad_array_new_length@std@@ 00447878     MSVCRTD:throw_bad_alloc.obj
 0002:0000a88c       __CT??_R0?AVbad_array_new_length@std@@@8??0bad_array_new_length@std@@QAE@ABV01@@Z12 0044788c     MSVCRTD:throw_bad_alloc.obj
 0003:00000004       ___security_cookie_complement 00448004     MSVCRTD:gs_cookie.obj
 0003:00000008       ___security_cookie         00448008     MSVCRTD:gs_cookie.obj
 0003:00000010       __fltused                  00448010     MSVCRTD:fltused.obj
 0003:00000014       ___scrt_native_dllmain_reason 00448014     MSVCRTD:utility.obj
 0003:00000018       ___scrt_default_matherr    00448018     MSVCRTD:matherr.obj
 0003:0000001c       ___isa_enabled             0044801c     MSVCRTD:cpu_disp.obj
 0003:00000020       ___scrt_ucrt_dll_is_in_use 00448020     MSVCRTD:ucrt_stubs.obj
 0003:00000130       ??_R0?AV_Ref_count_base@std@@@8 00448130     DraggingDemo.obj
 0003:00000158       ??_R0?AVDragableBaseClassObject@@@8 00448158     DraggingDemo.obj
 0003:00000188       ??_R0?AVDisplayableObject@@@8 00448188     DraggingDemo.obj
 0003:000001b0       ??_R0?AVDragableObject@@@8 004481b0     DraggingDemo.obj
 0003:000001d4       ??_R0?AVImageObject@@@8    004481d4     DraggingDemo.obj
 0003:000001f4       ??_R0?AVDragableImageObject@@@8 004481f4     DraggingDemo.obj
 0003:0000021c       ??_R0?AV?$_Ref_count@VRawImageData@@@std@@@8 0044821c     DraggingDemo.obj
 0003:00000254       ??_R0?AVDisplayableObjectContainer@@@8 00448254     FlashingDemo.obj
 0003:00000288       ??_R0?AVFlashingDemo@@@8   00448288     FlashingDemo.obj
 0003:000002a8       ??_R0?AVBaseEngine@@@8     004482a8     FlashingDemo.obj
 0003:000002c8       ??_R0?AVFilterPoints@@@8   004482c8     FlashingDemo.obj
 0003:000002e8       ??_R0?AVBouncingObject@@@8 004482e8     ImageObjectDemo.obj
 0003:0000030c       ??_R0?AVBouncingImageObject@@@8 0044830c     ImageObjectDemo.obj
 0003:00000400       ??_R0?AV<lambda_341a6657abb2758c42a6873833e6116f>@@@8 00448400     JigsawDemo.obj
 0003:00000444       ??_R0?AV<lambda_817584b2460f1bcab806f46a25c321a8>@@@8 00448444     JigsawDemo.obj
 0003:00000488       ??_R0?AV<lambda_369f3aee610e50bbd15c3a78d9c8686f>@@@8 00448488     JigsawDemo.obj
 0003:000004cc       ??_R0?AV<lambda_4d3c514b9e5ad6cc29096aa3b57f98f2>@@@8 004484cc     JigsawDemo.obj
 0003:00000510       ??_R0?AV<lambda_2870de01b601283699da779de20905fc>@@@8 00448510     JigsawDemo.obj
 0003:00000554       ??_R0?AV?$_Func_base@XPAVDisplayableObject@@@std@@@8 00448554     JigsawDemo.obj
 0003:00000598       ??_R0?AVCoordinateMapping@@@8 00448598     JigsawDemo.obj
 0003:000005c0       ??_R0?AVJigsawPiece@@@8    004485c0     JigsawDemo.obj
 0003:000005e0       ??_R0?AV?$_Func_impl_no_alloc@V<lambda_2870de01b601283699da779de20905fc>@@XPAVDisplayableObject@@@std@@@8 004485e0     JigsawDemo.obj
 0003:00000668       ??_R0?AV?$_Func_impl_no_alloc@V<lambda_4d3c514b9e5ad6cc29096aa3b57f98f2>@@XPAVDisplayableObject@@@std@@@8 00448668     JigsawDemo.obj
 0003:000006f0       ??_R0?AV?$_Func_impl_no_alloc@V<lambda_369f3aee610e50bbd15c3a78d9c8686f>@@XPAVDisplayableObject@@@std@@@8 004486f0     JigsawDemo.obj
 0003:00000778       ??_R0?AV?$_Func_impl_no_alloc@V<lambda_817584b2460f1bcab806f46a25c321a8>@@XPAVDisplayableObject@@@std@@@8 00448778     JigsawDemo.obj
 0003:00000800       ??_R0?AV?$_Func_impl_no_alloc@V<lambda_341a6657abb2758c42a6873833e6116f>@@XPAVDisplayableObject@@@std@@@8 00448800     JigsawDemo.obj
 0003:00000a1c       ??_R0?AVMappableImageObject@@@8 00448a1c     ImageMappingDemo.obj
 0003:00000a44       ??_R0?AVCroppedCoordinateMapping@@@8 00448a44     SimpleImage.obj
 0003:00000a74       ??_R0?AVJasonsDemoA@@@8    00448a74     JasonsDemoA.obj
 0003:00000a94       ??_R0?AVJasonsObjectA@@@8  00448a94     JasonsObjectA.obj
 0003:00000ab8       ??_R0?AVTileManager@@@8    00448ab8     JasonsTileManager.obj
 0003:00000ad8       ??_R0?AVJasonsTileManager@@@8 00448ad8     JasonsTileManager.obj
 0003:00000b00       ??_R0?AVDragableTokenContainer@@@8 00448b00     PlayingCardsDemo.obj
 0003:00000b2c       ??_R0?AVCardContainer@@@8  00448b2c     PlayingCardsDemo.obj
 0003:00000b50       ??_R0?AVDragableToken@@@8  00448b50     PlayingCardsDemo.obj
 0003:00000b74       ??_R0?AVTokenTray@@@8      00448b74     PlayingCardsDemo.obj
 0003:00000b90       ??_R0?AVCardOrTile@@@8     00448b90     PlayingCardsDemo.obj
 0003:00000bb0       ??_R0?AVCoordinateMappingRotate@@@8 00448bb0     PlayingCardsDemo.obj
 0003:00000be0       ??_R0?AVCoordinateMappingRotateAndColour@@@8 00448be0     PlayingCardsDemo.obj
 0003:00000c18       ??_R0?AVStarfieldDemo@@@8  00448c18     StarfieldDemo.obj
 0003:00000c3c       ??_R0?AVBouncingBall@@@8   00448c3c     BouncingBall.obj
 0003:00000c5c       ??_R0?AVBouncingBall1@@@8  00448c5c     BouncingBall.obj
 0003:00000c80       ??_R0?AVBouncingBall2@@@8  00448c80     BouncingBall.obj
 0003:00000ca4       ??_R0?AVSimpleFlashingDragableImageObject@@@8 00448ca4     ZoomingDemo.obj
 0003:00000ce0       ??_R0?AVMazeDemoMain@@@8   00448ce0     MazeDemoMain.obj
 0003:00000d00       ??_R0?AVMazeDemoTileManager@@@8 00448d00     MazeDemoMain.obj
 0003:00000d28       ??_R0?AVMazeDemoObject@@@8 00448d28     MazeDemoObject.obj
 0003:00000d4c       ??_R0?AVtype_info@@@8      00448d4c     MSVCRTD:std_type_info_static.obj
 0003:00000d68       ??_R0?AVbad_alloc@std@@@8  00448d68     MSVCRTD:throw_bad_alloc.obj
 0003:00000d8c       ??_R0?AVexception@std@@@8  00448d8c     MSVCRTD:throw_bad_alloc.obj
 0003:00000db0       ??_R0?AVbad_array_new_length@std@@@8 00448db0     MSVCRTD:throw_bad_alloc.obj
 0003:00000f18       ?_OptionsStorage@?1??__local_stdio_printf_options@@9@4_KA 00448f18     DraggingDemo.obj
 0003:00000f24       ?g_pManager@ImageManager@@0PAV1@A 00448f24     SimpleImage.obj
 0003:00000f30       ___scrt_current_native_startup_state 00448f30     MSVCRTD:utility.obj
 0003:00000f34       ___scrt_native_startup_lock 00448f34     MSVCRTD:utility.obj
 0003:00000f60       ?__type_info_root_node@@3U__type_info_node@@A 00448f60     MSVCRTD:tncleanup.obj
 0003:00000f70       ?_OptionsStorage@?1??__local_stdio_scanf_options@@9@4_KA 00448f70     MSVCRTD:default_local_stdio_options.obj
 0003:00000f7c       ___scrt_debugger_hook_flag 00448f7c     MSVCRTD:utility_desktop.obj
 0003:0000133c       ___isa_available           0044933c     MSVCRTD:cpu_disp.obj
 0003:00001340       ___favor                   00449340     MSVCRTD:cpu_disp.obj
 0003:00001348       ___dyn_tls_dtor_callback   00449348     <common>
 0003:00001354       ___dyn_tls_init_callback   00449354     <common>
 0004:00000000       __imp__QueryPerformanceCounter@4 0044a000     kernel32:KERNEL32.dll
 0004:00000004       __imp__GetCurrentProcessId@0 0044a004     kernel32:KERNEL32.dll
 0004:00000008       __imp__GetCurrentThreadId@0 0044a008     kernel32:KERNEL32.dll
 0004:0000000c       __imp__GetSystemTimeAsFileTime@4 0044a00c     kernel32:KERNEL32.dll
 0004:00000010       __imp__InitializeSListHead@4 0044a010     kernel32:KERNEL32.dll
 0004:00000014       __imp__IsDebuggerPresent@0 0044a014     kernel32:KERNEL32.dll
 0004:00000018       __imp__UnhandledExceptionFilter@4 0044a018     kernel32:KERNEL32.dll
 0004:0000001c       __imp__SetUnhandledExceptionFilter@4 0044a01c     kernel32:KERNEL32.dll
 0004:00000020       __imp__GetStartupInfoW@4   0044a020     kernel32:KERNEL32.dll
 0004:00000024       __imp__IsProcessorFeaturePresent@4 0044a024     kernel32:KERNEL32.dll
 0004:00000028       __imp__GetCurrentProcess@0 0044a028     kernel32:KERNEL32.dll
 0004:0000002c       __imp__TerminateProcess@8  0044a02c     kernel32:KERNEL32.dll
 0004:00000030       __imp__GetCommandLineW@0   0044a030     kernel32:KERNEL32.dll
 0004:00000034       __imp__VirtualAlloc@16     0044a034     kernel32:KERNEL32.dll
 0004:00000038       __imp__GetModuleHandleW@4  0044a038     kernel32:KERNEL32.dll
 0004:0000003c       __imp__VirtualFree@12      0044a03c     kernel32:KERNEL32.dll
 0004:00000040       __imp__WideCharToMultiByte@32 0044a040     kernel32:KERNEL32.dll
 0004:00000044       \177KERNEL32_NULL_THUNK_DATA 0044a044     kernel32:KERNEL32.dll
 0004:0000007c       __imp_?fill@?$basic_ios@DU?$char_traits@D@std@@@std@@QBEDXZ 0044a07c     msvcprtd:MSVCP140D.dll
 0004:00000080       __imp_?rdbuf@?$basic_ios@DU?$char_traits@D@std@@@std@@QBEPAV?$basic_streambuf@DU?$char_traits@D@std@@@2@XZ 0044a080     msvcprtd:MSVCP140D.dll
 0004:00000084       __imp_?widen@?$basic_ios@DU?$char_traits@D@std@@@std@@QBEDD@Z 0044a084     msvcprtd:MSVCP140D.dll
 0004:00000088       __imp_?_Osfx@?$basic_ostream@DU?$char_traits@D@std@@@std@@QAEXXZ 0044a088     msvcprtd:MSVCP140D.dll
 0004:0000008c       __imp_??6?$basic_ostream@DU?$char_traits@D@std@@@std@@QAEAAV01@P6AAAV01@AAV01@@Z@Z 0044a08c     msvcprtd:MSVCP140D.dll
 0004:00000090       __imp_?put@?$basic_ostream@DU?$char_traits@D@std@@@std@@QAEAAV12@D@Z 0044a090     msvcprtd:MSVCP140D.dll
 0004:00000094       __imp_?cout@std@@3V?$basic_ostream@DU?$char_traits@D@std@@@1@A 0044a094     msvcprtd:MSVCP140D.dll
 0004:00000098       __imp_?_Xbad_function_call@std@@YAXXZ 0044a098     msvcprtd:MSVCP140D.dll
 0004:0000009c       __imp_?_Xout_of_range@std@@YAXPBD@Z 0044a09c     msvcprtd:MSVCP140D.dll
 0004:000000a0       __imp_??6?$basic_ostream@DU?$char_traits@D@std@@@std@@QAEAAV01@H@Z 0044a0a0     msvcprtd:MSVCP140D.dll
 0004:000000a4       __imp_?flush@?$basic_ostream@DU?$char_traits@D@std@@@std@@QAEAAV12@XZ 0044a0a4     msvcprtd:MSVCP140D.dll
 0004:000000a8       __imp_??0_Lockit@std@@QAE@H@Z 0044a0a8     msvcprtd:MSVCP140D.dll
 0004:000000ac       __imp_??1_Lockit@std@@QAE@XZ 0044a0ac     msvcprtd:MSVCP140D.dll
 0004:000000b0       __imp_?uncaught_exception@std@@YA_NXZ 0044a0b0     msvcprtd:MSVCP140D.dll
 0004:000000b4       __imp_?_Xlength_error@std@@YAXPBD@Z 0044a0b4     msvcprtd:MSVCP140D.dll
 0004:000000b8       __imp_?good@ios_base@std@@QBE_NXZ 0044a0b8     msvcprtd:MSVCP140D.dll
 0004:000000bc       __imp_?flags@ios_base@std@@QBEHXZ 0044a0bc     msvcprtd:MSVCP140D.dll
 0004:000000c0       __imp_?width@ios_base@std@@QBE_JXZ 0044a0c0     msvcprtd:MSVCP140D.dll
 0004:000000c4       __imp_?width@ios_base@std@@QAE_J_J@Z 0044a0c4     msvcprtd:MSVCP140D.dll
 0004:000000c8       __imp_?sputc@?$basic_streambuf@DU?$char_traits@D@std@@@std@@QAEHD@Z 0044a0c8     msvcprtd:MSVCP140D.dll
 0004:000000cc       __imp_?sputn@?$basic_streambuf@DU?$char_traits@D@std@@@std@@QAE_JPBD_J@Z 0044a0cc     msvcprtd:MSVCP140D.dll
 0004:000000d0       __imp_?setstate@?$basic_ios@DU?$char_traits@D@std@@@std@@QAEXH_N@Z 0044a0d0     msvcprtd:MSVCP140D.dll
 0004:000000d4       __imp_?tie@?$basic_ios@DU?$char_traits@D@std@@@std@@QBEPAV?$basic_ostream@DU?$char_traits@D@std@@@2@XZ 0044a0d4     msvcprtd:MSVCP140D.dll
 0004:000000d8       \177MSVCP140D_NULL_THUNK_DATA 0044a0d8     msvcprtd:MSVCP140D.dll
 0004:00000114       __imp__SDL_UpperBlitScaled 0044a114     SDL2:SDL2.dll
 0004:00000118       __imp__SDL_SetClipRect     0044a118     SDL2:SDL2.dll
 0004:0000011c       __imp__SDL_Quit            0044a11c     SDL2:SDL2.dll
 0004:00000120       __imp__SDL_Init            0044a120     SDL2:SDL2.dll
 0004:00000124       __imp__SDL_GetTicks        0044a124     SDL2:SDL2.dll
 0004:00000128       __imp__SDL_RenderPresent   0044a128     SDL2:SDL2.dll
 0004:0000012c       __imp__SDL_RenderCopy      0044a12c     SDL2:SDL2.dll
 0004:00000130       __imp__SDL_UpdateTexture   0044a130     SDL2:SDL2.dll
 0004:00000134       __imp__SDL_CreateTexture   0044a134     SDL2:SDL2.dll
 0004:00000138       __imp__SDL_CreateRenderer  0044a138     SDL2:SDL2.dll
 0004:0000013c       __imp__SDL_SetMainReady    0044a13c     SDL2:SDL2.dll
 0004:00000140       __imp__SDL_WaitEvent       0044a140     SDL2:SDL2.dll
 0004:00000144       __imp__SDL_PollEvent       0044a144     SDL2:SDL2.dll
 0004:00000148       __imp__SDL_CreateWindow    0044a148     SDL2:SDL2.dll
 0004:0000014c       __imp__SDL_GetError        0044a14c     SDL2:SDL2.dll
 0004:00000150       __imp__SDL_FillRect        0044a150     SDL2:SDL2.dll
 0004:00000154       __imp__SDL_UnlockSurface   0044a154     SDL2:SDL2.dll
 0004:00000158       __imp__SDL_LockSurface     0044a158     SDL2:SDL2.dll
 0004:0000015c       __imp__SDL_UpperBlit       0044a15c     SDL2:SDL2.dll
 0004:00000160       __imp__SDL_FreeSurface     0044a160     SDL2:SDL2.dll
 0004:00000164       __imp__SDL_CreateRGBSurface 0044a164     SDL2:SDL2.dll
 0004:00000168       __imp__SDL_ShowSimpleMessageBox 0044a168     SDL2:SDL2.dll
 0004:0000016c       \177SDL2_NULL_THUNK_DATA   0044a16c     SDL2:SDL2.dll
 0004:000001a8       __imp__IMG_Load            0044a1a8     SDL2_image:SDL2_image.dll
 0004:000001ac       \177SDL2_image_NULL_THUNK_DATA 0044a1ac     SDL2_image:SDL2_image.dll
 0004:000001d8       __imp__TTF_Init            0044a1d8     SDL2_ttf:SDL2_ttf.dll
 0004:000001dc       __imp__TTF_Quit            0044a1dc     SDL2_ttf:SDL2_ttf.dll
 0004:000001e0       __imp__TTF_CloseFont       0044a1e0     SDL2_ttf:SDL2_ttf.dll
 0004:000001e4       __imp__TTF_OpenFont        0044a1e4     SDL2_ttf:SDL2_ttf.dll
 0004:000001e8       __imp__TTF_RenderText_Solid 0044a1e8     SDL2_ttf:SDL2_ttf.dll
 0004:000001ec       \177SDL2_ttf_NULL_THUNK_DATA 0044a1ec     SDL2_ttf:SDL2_ttf.dll
 0004:0000021c       __imp__memcmp              0044a21c     vcruntimed:VCRUNTIME140D.dll
 0004:00000220       __imp____std_exception_copy 0044a220     vcruntimed:VCRUNTIME140D.dll
 0004:00000224       __imp__memmove             0044a224     vcruntimed:VCRUNTIME140D.dll
 0004:00000228       __imp__memset              0044a228     vcruntimed:VCRUNTIME140D.dll
 0004:0000022c       __imp___CxxThrowException@8 0044a22c     vcruntimed:VCRUNTIME140D.dll
 0004:00000230       __imp____CxxFrameHandler3  0044a230     vcruntimed:VCRUNTIME140D.dll
 0004:00000234       __imp___purecall           0044a234     vcruntimed:VCRUNTIME140D.dll
 0004:00000238       __imp____RTDynamicCast     0044a238     vcruntimed:VCRUNTIME140D.dll
 0004:0000023c       __imp____std_type_info_destroy_list 0044a23c     vcruntimed:VCRUNTIME140D.dll
 0004:00000240       __imp___except_handler4_common 0044a240     vcruntimed:VCRUNTIME140D.dll
 0004:00000244       __imp__memcpy              0044a244     vcruntimed:VCRUNTIME140D.dll
 0004:00000248       __imp____std_exception_destroy 0044a248     vcruntimed:VCRUNTIME140D.dll
 0004:0000024c       \177VCRUNTIME140D_NULL_THUNK_DATA 0044a24c     vcruntimed:VCRUNTIME140D.dll
 0004:00000280       __imp__sqrt                0044a280     ucrtd:ucrtbased.dll
 0004:00000284       __imp___seh_filter_exe     0044a284     ucrtd:ucrtbased.dll
 0004:00000288       __imp___set_app_type       0044a288     ucrtd:ucrtbased.dll
 0004:0000028c       __imp____setusermatherr    0044a28c     ucrtd:ucrtbased.dll
 0004:00000290       __imp___configure_narrow_argv 0044a290     ucrtd:ucrtbased.dll
 0004:00000294       __imp___initialize_narrow_environment 0044a294     ucrtd:ucrtbased.dll
 0004:00000298       __imp___get_initial_narrow_environment 0044a298     ucrtd:ucrtbased.dll
 0004:0000029c       __imp___initterm           0044a29c     ucrtd:ucrtbased.dll
 0004:000002a0       __imp___initterm_e         0044a2a0     ucrtd:ucrtbased.dll
 0004:000002a4       __imp__exit                0044a2a4     ucrtd:ucrtbased.dll
 0004:000002a8       __imp___exit               0044a2a8     ucrtd:ucrtbased.dll
 0004:000002ac       __imp___set_fmode          0044a2ac     ucrtd:ucrtbased.dll
 0004:000002b0       __imp____p___argc          0044a2b0     ucrtd:ucrtbased.dll
 0004:000002b4       __imp____p___argv          0044a2b4     ucrtd:ucrtbased.dll
 0004:000002b8       __imp__strcmp              0044a2b8     ucrtd:ucrtbased.dll
 0004:000002bc       __imp___c_exit             0044a2bc     ucrtd:ucrtbased.dll
 0004:000002c0       __imp___register_thread_local_exe_atexit_callback 0044a2c0     ucrtd:ucrtbased.dll
 0004:000002c4       __imp___configthreadlocale 0044a2c4     ucrtd:ucrtbased.dll
 0004:000002c8       __imp___set_new_mode       0044a2c8     ucrtd:ucrtbased.dll
 0004:000002cc       __imp____p__commode        0044a2cc     ucrtd:ucrtbased.dll
 0004:000002d0       __imp___callnewh           0044a2d0     ucrtd:ucrtbased.dll
 0004:000002d4       __imp__malloc              0044a2d4     ucrtd:ucrtbased.dll
 0004:000002d8       __imp___seh_filter_dll     0044a2d8     ucrtd:ucrtbased.dll
 0004:000002dc       __imp___initialize_onexit_table 0044a2dc     ucrtd:ucrtbased.dll
 0004:000002e0       __imp___register_onexit_function 0044a2e0     ucrtd:ucrtbased.dll
 0004:000002e4       __imp___execute_onexit_table 0044a2e4     ucrtd:ucrtbased.dll
 0004:000002e8       __imp___crt_atexit         0044a2e8     ucrtd:ucrtbased.dll
 0004:000002ec       __imp___crt_at_quick_exit  0044a2ec     ucrtd:ucrtbased.dll
 0004:000002f0       __imp___controlfp_s        0044a2f0     ucrtd:ucrtbased.dll
 0004:000002f4       __imp__terminate           0044a2f4     ucrtd:ucrtbased.dll
 0004:000002f8       __imp___free_dbg           0044a2f8     ucrtd:ucrtbased.dll
 0004:000002fc       __imp__puts                0044a2fc     ucrtd:ucrtbased.dll
 0004:00000300       __imp___time64             0044a300     ucrtd:ucrtbased.dll
 0004:00000304       __imp__srand               0044a304     ucrtd:ucrtbased.dll
 0004:00000308       __imp___CrtDumpMemoryLeaks 0044a308     ucrtd:ucrtbased.dll
 0004:0000030c       __imp__fopen               0044a30c     ucrtd:ucrtbased.dll
 0004:00000310       __imp__fgets               0044a310     ucrtd:ucrtbased.dll
 0004:00000314       __imp__fclose              0044a314     ucrtd:ucrtbased.dll
 0004:00000318       __imp__atoi                0044a318     ucrtd:ucrtbased.dll
 0004:0000031c       __imp____stdio_common_vsprintf 0044a31c     ucrtd:ucrtbased.dll
 0004:00000320       __imp__sin                 0044a320     ucrtd:ucrtbased.dll
 0004:00000324       __imp__cos                 0044a324     ucrtd:ucrtbased.dll
 0004:00000328       __imp__atan                0044a328     ucrtd:ucrtbased.dll
 0004:0000032c       __imp__strlen              0044a32c     ucrtd:ucrtbased.dll
 0004:00000330       __imp____stdio_common_vfprintf 0044a330     ucrtd:ucrtbased.dll
 0004:00000334       __imp__rand                0044a334     ucrtd:ucrtbased.dll
 0004:00000338       __imp___CrtDbgReport       0044a338     ucrtd:ucrtbased.dll
 0004:0000033c       __imp___invalid_parameter  0044a33c     ucrtd:ucrtbased.dll
 0004:00000340       __imp__strcpy              0044a340     ucrtd:ucrtbased.dll
 0004:00000344       __imp___cexit              0044a344     ucrtd:ucrtbased.dll
 0004:00000348       __imp____acrt_iob_func     0044a348     ucrtd:ucrtbased.dll
 0004:0000034c       \177ucrtbased_NULL_THUNK_DATA 0044a34c     ucrtd:ucrtbased.dll
 0004:000003a0       __IMPORT_DESCRIPTOR_SDL2   0044a3a0     SDL2:SDL2.dll
 0004:000003b4       __IMPORT_DESCRIPTOR_SDL2_image 0044a3b4     SDL2_image:SDL2_image.dll
 0004:000003c8       __IMPORT_DESCRIPTOR_SDL2_ttf 0044a3c8     SDL2_ttf:SDL2_ttf.dll
 0004:000003dc       __IMPORT_DESCRIPTOR_MSVCP140D 0044a3dc     msvcprtd:MSVCP140D.dll
 0004:000003f0       __IMPORT_DESCRIPTOR_VCRUNTIME140D 0044a3f0     vcruntimed:VCRUNTIME140D.dll
 0004:00000404       __IMPORT_DESCRIPTOR_ucrtbased 0044a404     ucrtd:ucrtbased.dll
 0004:00000418       __IMPORT_DESCRIPTOR_KERNEL32 0044a418     kernel32:KERNEL32.dll
 0004:0000042c       __NULL_IMPORT_DESCRIPTOR   0044a42c     SDL2:SDL2.dll
 0005:00000000       ___guard_check_icall_fptr  0044c000     MSVCRTD:guard_support.obj

 entry point at        0001:000019c8

 Static symbols

 0002:fffc3000       __ehfuncinfo$??$_Freenode0@V?$allocator@U?$_Tree_node@U?$pair@$$CBV?$basic_string@DU?$char_traits@D@std@@V?$allocator@D@2@@std@@V?$weak_ptr@VRawImageData@@@2@@std@@PAX@std@@@std@@@?$_Tree_node@U?$pair@$$CBV?$basic_string@DU?$char_traits@D@std@@V?$allocator@D@2@@std@@V?$weak_ptr@VRawImageData@@@2@@std@@PAX@std@@SAXAAV?$allocator@U?$_Tree_node@U?$pair@$$CBV?$basic_string@DU?$char_traits@D@std@@V?$allocator@D@2@@std@@V?$weak_ptr@VRawImageData@@@2@@std@@PAX@std@@@1@PAU01@@Z 00400000     mainfunction.obj
 0002:fffc3000       __ehfuncinfo$??$_Freenode0@V?$allocator@U?$_Tree_node@U?$pair@$$CBV?$basic_string@DU?$char_traits@D@std@@V?$allocator@D@2@@std@@V?$shared_ptr@VRawImageData@@@2@@std@@PAX@std@@@std@@@?$_Tree_node@U?$pair@$$CBV?$basic_string@DU?$char_traits@D@std@@V?$allocator@D@2@@std@@V?$shared_ptr@VRawImageData@@@2@@std@@PAX@std@@SAXAAV?$allocator@U?$_Tree_node@U?$pair@$$CBV?$basic_string@DU?$char_traits@D@std@@V?$allocator@D@2@@std@@V?$shared_ptr@VRawImageData@@@2@@std@@PAX@std@@@1@PAU01@@Z 00400000     mainfunction.obj
 0002:fffc3000       __ehfuncinfo$??4_Iterator_base12@std@@QAEAAU01@ABU01@@Z 00400000     JasonsDemoA.obj
 0002:fffc3000       __ehfuncinfo$?_Swap_all@_Container_base12@std@@QAEXAAU12@@Z 00400000     JasonsDemoA.obj
 0002:fffc3000       __unwindtable$??E?$_Tree_const_iterator@V?$_Tree_val@U?$_Tree_simple_types@U?$pair@$$CBV?$basic_string@DU?$char_traits@D@std@@V?$allocator@D@2@@std@@V?$shared_ptr@VRawImageData@@@2@@std@@@std@@@std@@@std@@QAE?AV01@H@Z 00400000     mainfunction.obj
 0002:fffc3000       __ehfuncinfo$?_Orphan_all@_Container_base12@std@@QAEXXZ 00400000     JasonsDemoA.obj
 0002:fffc3000       __ehfuncinfo$??1?$weak_ptr@VRawImageData@@@std@@QAE@XZ 00400000     mainfunction.obj
 0002:fffc3000       __unwindtable$??E?$_Tree_const_iterator@V?$_Tree_val@U?$_Tree_simple_types@U?$pair@$$CBV?$basic_string@DU?$char_traits@D@std@@V?$allocator@D@2@@std@@V?$weak_ptr@VRawImageData@@@2@@std@@@std@@@std@@@std@@QAE?AV01@H@Z 00400000     mainfunction.obj
 0001:fffff000       __unwindfunclet$??$_Insert_nohint@AAU?$pair@$$CBV?$basic_string@DU?$char_traits@D@std@@V?$allocator@D@2@@std@@V?$shared_ptr@VRawImageData@@@2@@std@@PAU?$_Tree_node@U?$pair@$$CBV?$basic_string@DU?$char_traits@D@std@@V?$allocator@D@2@@std@@V?$shared_ptr@VRawImageData@@@2@@std@@PAX@2@@?$_Tree@V?$_Tmap_traits@V?$basic_string@DU?$char_traits@D@std@@V?$allocator@D@2@@std@@V?$shared_ptr@VRawImageData@@@2@U?$less@V?$basic_string@DU?$char_traits@D@std@@V?$allocator@D@2@@std@@@2@V?$allocator@U?$pair@$$CBV?$basic_string@DU?$char_traits@D@std@@V?$allocator@D@2@@std@@V?$shared_ptr@VRawImageData@@@2@@std@@@2@$0A@@std@@@std@@IAE?AU?$pair@V?$_Tree_iterator@V?$_Tree_val@U?$_Tree_simple_types@U?$pair@$$CBV?$basic_string@DU?$char_traits@D@std@@V?$allocator@D@2@@std@@V?$shared_ptr@VRawImageData@@@2@@std@@@std@@@std@@@std@@_N@1@_NAAU?$pair@$$CBV?$basic_string@DU?$char_traits@D@std@@V?$allocator@D@2@@std@@V?$shared_ptr@VRawImageData@@@2@@1@PAU?$_Tree_node@U?$pair@$$CBV?$basic_string@DU?$char_traits@D@std@@V?$allocator@D@2@@std@@V?$shared_ptr@VRawImageData@@@2@@std@@PAX@1@@Z$4 00400000 f   JasonsDemoA.obj
 0002:fffc3000       __unwindtable$?_Tidy@?$_Tree@V?$_Tmap_traits@V?$basic_string@DU?$char_traits@D@std@@V?$allocator@D@2@@std@@V?$shared_ptr@VRawImageData@@@2@U?$less@V?$basic_string@DU?$char_traits@D@std@@V?$allocator@D@2@@std@@@2@V?$allocator@U?$pair@$$CBV?$basic_string@DU?$char_traits@D@std@@V?$allocator@D@2@@std@@V?$shared_ptr@VRawImageData@@@2@@std@@@2@$0A@@std@@@std@@IAEXXZ 00400000     mainfunction.obj
 0001:fffff000       __ehhandler$??$_Buynode@U?$pair@V?$basic_string@DU?$char_traits@D@std@@V?$allocator@D@2@@std@@V?$shared_ptr@VRawImageData@@@2@@std@@@?$_Tree_comp_alloc@V?$_Tmap_traits@V?$basic_string@DU?$char_traits@D@std@@V?$allocator@D@2@@std@@V?$shared_ptr@VRawImageData@@@2@U?$less@V?$basic_string@DU?$char_traits@D@std@@V?$allocator@D@2@@std@@@2@V?$allocator@U?$pair@$$CBV?$basic_string@DU?$char_traits@D@std@@V?$allocator@D@2@@std@@V?$shared_ptr@VRawImageData@@@2@@std@@@2@$0A@@std@@@std@@QAEPAU?$_Tree_node@U?$pair@$$CBV?$basic_string@DU?$char_traits@D@std@@V?$allocator@D@2@@std@@V?$shared_ptr@VRawImageData@@@2@@std@@PAX@1@$$QAU?$pair@V?$basic_string@DU?$char_traits@D@std@@V?$allocator@D@2@@std@@V?$shared_ptr@VRawImageData@@@2@@1@@Z 00400000 f   JasonsDemoA.obj
 0002:fffc3000       __unwindtable$?_Orphan_ptr@?$_Tree@V?$_Tmap_traits@V?$basic_string@DU?$char_traits@D@std@@V?$allocator@D@2@@std@@V?$shared_ptr@VRawImageData@@@2@U?$less@V?$basic_string@DU?$char_traits@D@std@@V?$allocator@D@2@@std@@@2@V?$allocator@U?$pair@$$CBV?$basic_string@DU?$char_traits@D@std@@V?$allocator@D@2@@std@@V?$shared_ptr@VRawImageData@@@2@@std@@@2@$0A@@std@@@std@@IAEXPAU?$_Tree_node@U?$pair@$$CBV?$basic_string@DU?$char_traits@D@std@@V?$allocator@D@2@@std@@V?$shared_ptr@VRawImageData@@@2@@std@@PAX@2@@Z 00400000     mainfunction.obj
 0001:fffff000       __unwindfunclet$??$_Insert_nohint@AAU?$pair@$$CBV?$basic_string@DU?$char_traits@D@std@@V?$allocator@D@2@@std@@V?$weak_ptr@VRawImageData@@@2@@std@@PAU?$_Tree_node@U?$pair@$$CBV?$basic_string@DU?$char_traits@D@std@@V?$allocator@D@2@@std@@V?$weak_ptr@VRawImageData@@@2@@std@@PAX@2@@?$_Tree@V?$_Tmap_traits@V?$basic_string@DU?$char_traits@D@std@@V?$allocator@D@2@@std@@V?$weak_ptr@VRawImageData@@@2@U?$less@V?$basic_string@DU?$char_traits@D@std@@V?$allocator@D@2@@std@@@2@V?$allocator@U?$pair@$$CBV?$basic_string@DU?$char_traits@D@std@@V?$allocator@D@2@@std@@V?$weak_ptr@VRawImageData@@@2@@std@@@2@$0A@@std@@@std@@IAE?AU?$pair@V?$_Tree_iterator@V?$_Tree_val@U?$_Tree_simple_types@U?$pair@$$CBV?$basic_string@DU?$char_traits@D@std@@V?$allocator@D@2@@std@@V?$weak_ptr@VRawImageData@@@2@@std@@@std@@@std@@@std@@_N@1@_NAAU?$pair@$$CBV?$basic_string@DU?$char_traits@D@std@@V?$allocator@D@2@@std@@V?$weak_ptr@VRawImageData@@@2@@1@PAU?$_Tree_node@U?$pair@$$CBV?$basic_string@DU?$char_traits@D@std@@V?$allocator@D@2@@std@@V?$weak_ptr@VRawImageData@@@2@@std@@PAX@1@@Z$4 00400000 f   JasonsDemoA.obj
 0002:fffc3000       __ehfuncinfo$?clear@?$_Tree@V?$_Tmap_traits@V?$basic_string@DU?$char_traits@D@std@@V?$allocator@D@2@@std@@V?$shared_ptr@VRawImageData@@@2@U?$less@V?$basic_string@DU?$char_traits@D@std@@V?$allocator@D@2@@std@@@2@V?$allocator@U?$pair@$$CBV?$basic_string@DU?$char_traits@D@std@@V?$allocator@D@2@@std@@V?$shared_ptr@VRawImageData@@@2@@std@@@2@$0A@@std@@@std@@QAEXXZ 00400000     mainfunction.obj
 0002:fffc3000       __unwindtable$?erase@?$_Tree@V?$_Tmap_traits@V?$basic_string@DU?$char_traits@D@std@@V?$allocator@D@2@@std@@V?$shared_ptr@VRawImageData@@@2@U?$less@V?$basic_string@DU?$char_traits@D@std@@V?$allocator@D@2@@std@@@2@V?$allocator@U?$pair@$$CBV?$basic_string@DU?$char_traits@D@std@@V?$allocator@D@2@@std@@V?$shared_ptr@VRawImageData@@@2@@std@@@2@$0A@@std@@@std@@QAE?AV?$_Tree_iterator@V?$_Tree_val@U?$_Tree_simple_types@U?$pair@$$CBV?$basic_string@DU?$char_traits@D@std@@V?$allocator@D@2@@std@@V?$shared_ptr@VRawImageData@@@2@@std@@@std@@@std@@@2@V?$_Tree_const_iterator@V?$_Tree_val@U?$_Tree_simple_types@U?$pair@$$CBV?$basic_string@DU?$char_traits@D@std@@V?$allocator@D@2@@std@@V?$shared_ptr@VRawImageData@@@2@@std@@@std@@@std@@@2@0@Z 00400000     mainfunction.obj
 0001:fffff000       __ehhandler$??$_Buynode@U?$pair@V?$basic_string@DU?$char_traits@D@std@@V?$allocator@D@2@@std@@V?$weak_ptr@VRawImageData@@@2@@std@@@?$_Tree_comp_alloc@V?$_Tmap_traits@V?$basic_string@DU?$char_traits@D@std@@V?$allocator@D@2@@std@@V?$weak_ptr@VRawImageData@@@2@U?$less@V?$basic_string@DU?$char_traits@D@std@@V?$allocator@D@2@@std@@@2@V?$allocator@U?$pair@$$CBV?$basic_string@DU?$char_traits@D@std@@V?$allocator@D@2@@std@@V?$weak_ptr@VRawImageData@@@2@@std@@@2@$0A@@std@@@std@@QAEPAU?$_Tree_node@U?$pair@$$CBV?$basic_string@DU?$char_traits@D@std@@V?$allocator@D@2@@std@@V?$weak_ptr@VRawImageData@@@2@@std@@PAX@1@$$QAU?$pair@V?$basic_string@DU?$char_traits@D@std@@V?$allocator@D@2@@std@@V?$weak_ptr@VRawImageData@@@2@@1@@Z 00400000 f   JasonsDemoA.obj
 0002:fffc3000       __unwindtable$?erase@?$_Tree@V?$_Tmap_traits@V?$basic_string@DU?$char_traits@D@std@@V?$allocator@D@2@@std@@V?$shared_ptr@VRawImageData@@@2@U?$less@V?$basic_string@DU?$char_traits@D@std@@V?$allocator@D@2@@std@@@2@V?$allocator@U?$pair@$$CBV?$basic_string@DU?$char_traits@D@std@@V?$allocator@D@2@@std@@V?$shared_ptr@VRawImageData@@@2@@std@@@2@$0A@@std@@@std@@QAE?AV?$_Tree_iterator@V?$_Tree_val@U?$_Tree_simple_types@U?$pair@$$CBV?$basic_string@DU?$char_traits@D@std@@V?$allocator@D@2@@std@@V?$shared_ptr@VRawImageData@@@2@@std@@@std@@@std@@@2@V?$_Tree_const_iterator@V?$_Tree_val@U?$_Tree_simple_types@U?$pair@$$CBV?$basic_string@DU?$char_traits@D@std@@V?$allocator@D@2@@std@@V?$shared_ptr@VRawImageData@@@2@@std@@@std@@@std@@@2@@Z 00400000     mainfunction.obj
 0001:fffff000       __unwindfunclet$??$_Insert_string@DU?$char_traits@D@std@@I@std@@YAAAV?$basic_ostream@DU?$char_traits@D@std@@@0@AAV10@QBDI@Z$2 00400000 f   JasonsDemoA.obj
 0002:fffc3000       __ehfuncinfo$?end@?$_Tree@V?$_Tmap_traits@V?$basic_string@DU?$char_traits@D@std@@V?$allocator@D@2@@std@@V?$shared_ptr@VRawImageData@@@2@U?$less@V?$basic_string@DU?$char_traits@D@std@@V?$allocator@D@2@@std@@@2@V?$allocator@U?$pair@$$CBV?$basic_string@DU?$char_traits@D@std@@V?$allocator@D@2@@std@@V?$shared_ptr@VRawImageData@@@2@@std@@@2@$0A@@std@@@std@@QAE?AV?$_Tree_iterator@V?$_Tree_val@U?$_Tree_simple_types@U?$pair@$$CBV?$basic_string@DU?$char_traits@D@std@@V?$allocator@D@2@@std@@V?$shared_ptr@VRawImageData@@@2@@std@@@std@@@std@@@2@XZ 00400000     mainfunction.obj
 0002:fffc3000       __ehfuncinfo$?begin@?$_Tree@V?$_Tmap_traits@V?$basic_string@DU?$char_traits@D@std@@V?$allocator@D@2@@std@@V?$shared_ptr@VRawImageData@@@2@U?$less@V?$basic_string@DU?$char_traits@D@std@@V?$allocator@D@2@@std@@@2@V?$allocator@U?$pair@$$CBV?$basic_string@DU?$char_traits@D@std@@V?$allocator@D@2@@std@@V?$shared_ptr@VRawImageData@@@2@@std@@@2@$0A@@std@@@std@@QAE?AV?$_Tree_iterator@V?$_Tree_val@U?$_Tree_simple_types@U?$pair@$$CBV?$basic_string@DU?$char_traits@D@std@@V?$allocator@D@2@@std@@V?$shared_ptr@VRawImageData@@@2@@std@@@std@@@std@@@2@XZ 00400000     mainfunction.obj
 0002:fffc3000       __ehfuncinfo$??1?$_Tree@V?$_Tmap_traits@V?$basic_string@DU?$char_traits@D@std@@V?$allocator@D@2@@std@@V?$shared_ptr@VRawImageData@@@2@U?$less@V?$basic_string@DU?$char_traits@D@std@@V?$allocator@D@2@@std@@@2@V?$allocator@U?$pair@$$CBV?$basic_string@DU?$char_traits@D@std@@V?$allocator@D@2@@std@@V?$shared_ptr@VRawImageData@@@2@@std@@@2@$0A@@std@@@std@@QAE@XZ 00400000     mainfunction.obj
 0002:fffc3000       __unwindtable$?_Extract@?$_Tree_val@U?$_Tree_simple_types@U?$pair@$$CBV?$basic_string@DU?$char_traits@D@std@@V?$allocator@D@2@@std@@V?$shared_ptr@VRawImageData@@@2@@std@@@std@@@std@@QAEPAU?$_Tree_node@U?$pair@$$CBV?$basic_string@DU?$char_traits@D@std@@V?$allocator@D@2@@std@@V?$shared_ptr@VRawImageData@@@2@@std@@PAX@2@V?$_Tree_const_iterator@V?$_Tree_val@U?$_Tree_simple_types@U?$pair@$$CBV?$basic_string@DU?$char_traits@D@std@@V?$allocator@D@2@@std@@V?$shared_ptr@VRawImageData@@@2@@std@@@std@@@std@@@2@@Z 00400000     mainfunction.obj
 0001:fffff000       __unwindfunclet$??$_Setp@VRawImageData@@@?$shared_ptr@VRawImageData@@@std@@AAEXPAVRawImageData@@U?$integral_constant@_N$0A@@1@@Z$2 00400000 f   JasonsDemoA.obj
 0002:fffc3000       __ehfuncinfo$??1?$_Tree_comp_alloc@V?$_Tmap_traits@V?$basic_string@DU?$char_traits@D@std@@V?$allocator@D@2@@std@@V?$shared_ptr@VRawImageData@@@2@U?$less@V?$basic_string@DU?$char_traits@D@std@@V?$allocator@D@2@@std@@@2@V?$allocator@U?$pair@$$CBV?$basic_string@DU?$char_traits@D@std@@V?$allocator@D@2@@std@@V?$shared_ptr@VRawImageData@@@2@@std@@@2@$0A@@std@@@std@@QAE@XZ 00400000     mainfunction.obj
 0002:fffc3000       __unwindtable$?_Tidy@?$_Tree@V?$_Tmap_traits@V?$basic_string@DU?$char_traits@D@std@@V?$allocator@D@2@@std@@V?$weak_ptr@VRawImageData@@@2@U?$less@V?$basic_string@DU?$char_traits@D@std@@V?$allocator@D@2@@std@@@2@V?$allocator@U?$pair@$$CBV?$basic_string@DU?$char_traits@D@std@@V?$allocator@D@2@@std@@V?$weak_ptr@VRawImageData@@@2@@std@@@2@$0A@@std@@@std@@IAEXXZ 00400000     mainfunction.obj
 0001:fffff000       __ehhandler$??1sentry@?$basic_ostream@DU?$char_traits@D@std@@@std@@QAE@XZ 00400000 f   JasonsDemoA.obj
 0002:fffc3000       __unwindtable$?_Orphan_ptr@?$_Tree@V?$_Tmap_traits@V?$basic_string@DU?$char_traits@D@std@@V?$allocator@D@2@@std@@V?$weak_ptr@VRawImageData@@@2@U?$less@V?$basic_string@DU?$char_traits@D@std@@V?$allocator@D@2@@std@@@2@V?$allocator@U?$pair@$$CBV?$basic_string@DU?$char_traits@D@std@@V?$allocator@D@2@@std@@V?$weak_ptr@VRawImageData@@@2@@std@@@2@$0A@@std@@@std@@IAEXPAU?$_Tree_node@U?$pair@$$CBV?$basic_string@DU?$char_traits@D@std@@V?$allocator@D@2@@std@@V?$weak_ptr@VRawImageData@@@2@@std@@PAX@2@@Z 00400000     mainfunction.obj
 0001:fffff000       __ehhandler$??$_Resize@V<lambda_2afd52570c452b238925c6f475a76105>@@@?$vector@PAVDisplayableObject@@V?$allocator@PAVDisplayableObject@@@std@@@std@@AAEXIV<lambda_2afd52570c452b238925c6f475a76105>@@@Z 00400000 f   PlayingCardsDemo.obj
 0002:fffc3000       __ehfuncinfo$?clear@?$_Tree@V?$_Tmap_traits@V?$basic_string@DU?$char_traits@D@std@@V?$allocator@D@2@@std@@V?$weak_ptr@VRawImageData@@@2@U?$less@V?$basic_string@DU?$char_traits@D@std@@V?$allocator@D@2@@std@@@2@V?$allocator@U?$pair@$$CBV?$basic_string@DU?$char_traits@D@std@@V?$allocator@D@2@@std@@V?$weak_ptr@VRawImageData@@@2@@std@@@2@$0A@@std@@@std@@QAEXXZ 00400000     mainfunction.obj
 0002:fffc3000       __unwindtable$?erase@?$_Tree@V?$_Tmap_traits@V?$basic_string@DU?$char_traits@D@std@@V?$allocator@D@2@@std@@V?$weak_ptr@VRawImageData@@@2@U?$less@V?$basic_string@DU?$char_traits@D@std@@V?$allocator@D@2@@std@@@2@V?$allocator@U?$pair@$$CBV?$basic_string@DU?$char_traits@D@std@@V?$allocator@D@2@@std@@V?$weak_ptr@VRawImageData@@@2@@std@@@2@$0A@@std@@@std@@QAE?AV?$_Tree_iterator@V?$_Tree_val@U?$_Tree_simple_types@U?$pair@$$CBV?$basic_string@DU?$char_traits@D@std@@V?$allocator@D@2@@std@@V?$weak_ptr@VRawImageData@@@2@@std@@@std@@@std@@@2@V?$_Tree_const_iterator@V?$_Tree_val@U?$_Tree_simple_types@U?$pair@$$CBV?$basic_string@DU?$char_traits@D@std@@V?$allocator@D@2@@std@@V?$weak_ptr@VRawImageData@@@2@@std@@@std@@@std@@@2@0@Z 00400000     mainfunction.obj
 0001:fffff000       __unwindfunclet$??0sentry@?$basic_ostream@DU?$char_traits@D@std@@@std@@QAE@AAV12@@Z$0 00400000 f   JasonsDemoA.obj
 0002:fffc3000       __unwindtable$?erase@?$_Tree@V?$_Tmap_traits@V?$basic_string@DU?$char_traits@D@std@@V?$allocator@D@2@@std@@V?$weak_ptr@VRawImageData@@@2@U?$less@V?$basic_string@DU?$char_traits@D@std@@V?$allocator@D@2@@std@@@2@V?$allocator@U?$pair@$$CBV?$basic_string@DU?$char_traits@D@std@@V?$allocator@D@2@@std@@V?$weak_ptr@VRawImageData@@@2@@std@@@2@$0A@@std@@@std@@QAE?AV?$_Tree_iterator@V?$_Tree_val@U?$_Tree_simple_types@U?$pair@$$CBV?$basic_string@DU?$char_traits@D@std@@V?$allocator@D@2@@std@@V?$weak_ptr@VRawImageData@@@2@@std@@@std@@@std@@@2@V?$_Tree_const_iterator@V?$_Tree_val@U?$_Tree_simple_types@U?$pair@$$CBV?$basic_string@DU?$char_traits@D@std@@V?$allocator@D@2@@std@@V?$weak_ptr@VRawImageData@@@2@@std@@@std@@@std@@@2@@Z 00400000     mainfunction.obj
 0001:fffff000       __ehhandler$??$_Emplace_reallocate@ABQAVDisplayableObject@@@?$vector@PAVDisplayableObject@@V?$allocator@PAVDisplayableObject@@@std@@@std@@QAEPAPAVDisplayableObject@@QAPAV2@ABQAV2@@Z 00400000 f   PlayingCardsDemo.obj
 0002:fffc3000       __ehfuncinfo$?end@?$_Tree@V?$_Tmap_traits@V?$basic_string@DU?$char_traits@D@std@@V?$allocator@D@2@@std@@V?$weak_ptr@VRawImageData@@@2@U?$less@V?$basic_string@DU?$char_traits@D@std@@V?$allocator@D@2@@std@@@2@V?$allocator@U?$pair@$$CBV?$basic_string@DU?$char_traits@D@std@@V?$allocator@D@2@@std@@V?$weak_ptr@VRawImageData@@@2@@std@@@2@$0A@@std@@@std@@QAE?AV?$_Tree_iterator@V?$_Tree_val@U?$_Tree_simple_types@U?$pair@$$CBV?$basic_string@DU?$char_traits@D@std@@V?$allocator@D@2@@std@@V?$weak_ptr@VRawImageData@@@2@@std@@@std@@@std@@@2@XZ 00400000     mainfunction.obj
 0002:fffc3000       __ehfuncinfo$?begin@?$_Tree@V?$_Tmap_traits@V?$basic_string@DU?$char_traits@D@std@@V?$allocator@D@2@@std@@V?$weak_ptr@VRawImageData@@@2@U?$less@V?$basic_string@DU?$char_traits@D@std@@V?$allocator@D@2@@std@@@2@V?$allocator@U?$pair@$$CBV?$basic_string@DU?$char_traits@D@std@@V?$allocator@D@2@@std@@V?$weak_ptr@VRawImageData@@@2@@std@@@2@$0A@@std@@@std@@QAE?AV?$_Tree_iterator@V?$_Tree_val@U?$_Tree_simple_types@U?$pair@$$CBV?$basic_string@DU?$char_traits@D@std@@V?$allocator@D@2@@std@@V?$weak_ptr@VRawImageData@@@2@@std@@@std@@@std@@@2@XZ 00400000     mainfunction.obj
 0002:fffc3000       __ehfuncinfo$??1?$_Tree@V?$_Tmap_traits@V?$basic_string@DU?$char_traits@D@std@@V?$allocator@D@2@@std@@V?$weak_ptr@VRawImageData@@@2@U?$less@V?$basic_string@DU?$char_traits@D@std@@V?$allocator@D@2@@std@@@2@V?$allocator@U?$pair@$$CBV?$basic_string@DU?$char_traits@D@std@@V?$allocator@D@2@@std@@V?$weak_ptr@VRawImageData@@@2@@std@@@2@$0A@@std@@@std@@QAE@XZ 00400000     mainfunction.obj
 0002:fffc3000       __unwindtable$?_Extract@?$_Tree_val@U?$_Tree_simple_types@U?$pair@$$CBV?$basic_string@DU?$char_traits@D@std@@V?$allocator@D@2@@std@@V?$weak_ptr@VRawImageData@@@2@@std@@@std@@@std@@QAEPAU?$_Tree_node@U?$pair@$$CBV?$basic_string@DU?$char_traits@D@std@@V?$allocator@D@2@@std@@V?$weak_ptr@VRawImageData@@@2@@std@@PAX@2@V?$_Tree_const_iterator@V?$_Tree_val@U?$_Tree_simple_types@U?$pair@$$CBV?$basic_string@DU?$char_traits@D@std@@V?$allocator@D@2@@std@@V?$weak_ptr@VRawImageData@@@2@@std@@@std@@@std@@@2@@Z 00400000     mainfunction.obj
 0001:fffff000       __ehhandler$??1_Sentry_base@?$basic_ostream@DU?$char_traits@D@std@@@std@@QAE@XZ 00400000 f   JasonsDemoA.obj
 0002:fffc3000       __ehfuncinfo$??1?$_Tree_comp_alloc@V?$_Tmap_traits@V?$basic_string@DU?$char_traits@D@std@@V?$allocator@D@2@@std@@V?$weak_ptr@VRawImageData@@@2@U?$less@V?$basic_string@DU?$char_traits@D@std@@V?$allocator@D@2@@std@@@2@V?$allocator@U?$pair@$$CBV?$basic_string@DU?$char_traits@D@std@@V?$allocator@D@2@@std@@V?$weak_ptr@VRawImageData@@@2@@std@@@2@$0A@@std@@@std@@QAE@XZ 00400000     mainfunction.obj
 0002:fffc3000       __ehfuncinfo$??1?$shared_ptr@VRawImageData@@@std@@QAE@XZ 00400000     mainfunction.obj
 0002:fffc3000       __ehfuncinfo$??1?$basic_string@DU?$char_traits@D@std@@V?$allocator@D@2@@std@@QAE@XZ 00400000     mainfunction.obj
 0002:fffc3000       __ehfuncinfo$??1?$_String_alloc@U?$_String_base_types@DV?$allocator@D@std@@@std@@@std@@QAE@XZ 00400000     mainfunction.obj
 0002:fffc3000       __ehfuncinfo$?_Adopt@_Iterator_base12@std@@QAEXPBU_Container_base12@2@@Z 00400000     mainfunction.obj
 0002:fffc3000       __ehfuncinfo$??1_Iterator_base12@std@@QAE@XZ 00400000     mainfunction.obj
 0002:fffc3000       __ehfuncinfo$??4_Iterator_base12@std@@QAEAAU01@ABU01@@Z 00400000     mainfunction.obj
 0002:fffc3000       __ehfuncinfo$?_Orphan_all@_Container_base12@std@@QAEXXZ 00400000     mainfunction.obj
 0001:fffff000       __ehhandler$??$_Freenode0@V?$allocator@U?$_Tree_node@U?$pair@$$CBV?$basic_string@DU?$char_traits@D@std@@V?$allocator@D@2@@std@@V?$weak_ptr@VRawImageData@@@2@@std@@PAX@std@@@std@@@?$_Tree_node@U?$pair@$$CBV?$basic_string@DU?$char_traits@D@std@@V?$allocator@D@2@@std@@V?$weak_ptr@VRawImageData@@@2@@std@@PAX@std@@SAXAAV?$allocator@U?$_Tree_node@U?$pair@$$CBV?$basic_string@DU?$char_traits@D@std@@V?$allocator@D@2@@std@@V?$weak_ptr@VRawImageData@@@2@@std@@PAX@std@@@1@PAU01@@Z 00400000 f   mainfunction.obj
 0001:fffff000       __ehhandler$??$_Freenode0@V?$allocator@U?$_Tree_node@U?$pair@$$CBV?$basic_string@DU?$char_traits@D@std@@V?$allocator@D@2@@std@@V?$shared_ptr@VRawImageData@@@2@@std@@PAX@std@@@std@@@?$_Tree_node@U?$pair@$$CBV?$basic_string@DU?$char_traits@D@std@@V?$allocator@D@2@@std@@V?$shared_ptr@VRawImageData@@@2@@std@@PAX@std@@SAXAAV?$allocator@U?$_Tree_node@U?$pair@$$CBV?$basic_string@DU?$char_traits@D@std@@V?$allocator@D@2@@std@@V?$shared_ptr@VRawImageData@@@2@@std@@PAX@std@@@1@PAU01@@Z 00400000 f   mainfunction.obj
 0001:fffff000       __ehhandler$??$_Freenode0@V?$allocator@U?$_Tree_node@U?$pair@$$CBV?$basic_string@DU?$char_traits@D@std@@V?$allocator@D@2@@std@@V?$weak_ptr@VRawImageData@@@2@@std@@PAX@std@@@std@@@?$_Tree_node@U?$pair@$$CBV?$basic_string@DU?$char_traits@D@std@@V?$allocator@D@2@@std@@V?$weak_ptr@VRawImageData@@@2@@std@@PAX@std@@SAXAAV?$allocator@U?$_Tree_node@U?$pair@$$CBV?$basic_string@DU?$char_traits@D@std@@V?$allocator@D@2@@std@@V?$weak_ptr@VRawImageData@@@2@@std@@PAX@std@@@1@PAU01@@Z 00400000 f   JasonsDemoA.obj
 0001:fffff000       __unwindfunclet$??$?0V?$allocator@D@std@@X@?$_String_alloc@U?$_String_base_types@DV?$allocator@D@std@@@std@@@std@@QAE@$$QAV?$allocator@D@1@@Z$0 00400000 f   PlayingCardsDemo.obj
 0001:fffff000       __unwindfunclet$??E?$_Tree_const_iterator@V?$_Tree_val@U?$_Tree_simple_types@U?$pair@$$CBV?$basic_string@DU?$char_traits@D@std@@V?$allocator@D@2@@std@@V?$shared_ptr@VRawImageData@@@2@@std@@@std@@@std@@@std@@QAE?AV01@H@Z$0 00400000 f   mainfunction.obj
 0001:fffff000       __ehhandler$??$_Freenode0@V?$allocator@U?$_Tree_node@U?$pair@$$CBV?$basic_string@DU?$char_traits@D@std@@V?$allocator@D@2@@std@@V?$shared_ptr@VRawImageData@@@2@@std@@PAX@std@@@std@@@?$_Tree_node@U?$pair@$$CBV?$basic_string@DU?$char_traits@D@std@@V?$allocator@D@2@@std@@V?$shared_ptr@VRawImageData@@@2@@std@@PAX@std@@SAXAAV?$allocator@U?$_Tree_node@U?$pair@$$CBV?$basic_string@DU?$char_traits@D@std@@V?$allocator@D@2@@std@@V?$shared_ptr@VRawImageData@@@2@@std@@PAX@std@@@1@PAU01@@Z 00400000 f   PlayingCardsDemo.obj
 0001:fffff000       __ehhandler$??1?$weak_ptr@VRawImageData@@@std@@QAE@XZ 00400000 f   mainfunction.obj
 0001:fffff000       __unwindfunclet$??E?$_Tree_const_iterator@V?$_Tree_val@U?$_Tree_simple_types@U?$pair@$$CBV?$basic_string@DU?$char_traits@D@std@@V?$allocator@D@2@@std@@V?$weak_ptr@VRawImageData@@@2@@std@@@std@@@std@@@std@@QAE?AV01@H@Z$0 00400000 f   mainfunction.obj
 0001:fffff000       __ehhandler$??$_Freenode0@V?$allocator@U?$_Tree_node@U?$pair@$$CBV?$basic_string@DU?$char_traits@D@std@@V?$allocator@D@2@@std@@V?$weak_ptr@VRawImageData@@@2@@std@@PAX@std@@@std@@@?$_Tree_node@U?$pair@$$CBV?$basic_string@DU?$char_traits@D@std@@V?$allocator@D@2@@std@@V?$weak_ptr@VRawImageData@@@2@@std@@PAX@std@@SAXAAV?$allocator@U?$_Tree_node@U?$pair@$$CBV?$basic_string@DU?$char_traits@D@std@@V?$allocator@D@2@@std@@V?$weak_ptr@VRawImageData@@@2@@std@@PAX@std@@@1@PAU01@@Z 00400000 f   PlayingCardsDemo.obj
 0001:fffff000       __ehhandler$??$_Freenode0@V?$allocator@U?$_Tree_node@U?$pair@$$CBV?$basic_string@DU?$char_traits@D@std@@V?$allocator@D@2@@std@@V?$shared_ptr@VRawImageData@@@2@@std@@PAX@std@@@std@@@?$_Tree_node@U?$pair@$$CBV?$basic_string@DU?$char_traits@D@std@@V?$allocator@D@2@@std@@V?$shared_ptr@VRawImageData@@@2@@std@@PAX@std@@SAXAAV?$allocator@U?$_Tree_node@U?$pair@$$CBV?$basic_string@DU?$char_traits@D@std@@V?$allocator@D@2@@std@@V?$shared_ptr@VRawImageData@@@2@@std@@PAX@std@@@1@PAU01@@Z 00400000 f   JasonsDemoA.obj
 0001:fffff000       __unwindfunclet$?_Tidy@?$_Tree@V?$_Tmap_traits@V?$basic_string@DU?$char_traits@D@std@@V?$allocator@D@2@@std@@V?$shared_ptr@VRawImageData@@@2@U?$less@V?$basic_string@DU?$char_traits@D@std@@V?$allocator@D@2@@std@@@2@V?$allocator@U?$pair@$$CBV?$basic_string@DU?$char_traits@D@std@@V?$allocator@D@2@@std@@V?$shared_ptr@VRawImageData@@@2@@std@@@2@$0A@@std@@@std@@IAEXXZ$0 00400000 f   mainfunction.obj
 0001:fffff000       __unwindfunclet$??$?0V?$allocator@D@std@@X@?$_String_alloc@U?$_String_base_types@DV?$allocator@D@std@@@std@@@std@@QAE@$$QAV?$allocator@D@1@@Z$0 00400000 f   JasonsDemoA.obj
 0001:fffff000       __unwindfunclet$?_Orphan_ptr@?$_Tree@V?$_Tmap_traits@V?$basic_string@DU?$char_traits@D@std@@V?$allocator@D@2@@std@@V?$shared_ptr@VRawImageData@@@2@U?$less@V?$basic_string@DU?$char_traits@D@std@@V?$allocator@D@2@@std@@@2@V?$allocator@U?$pair@$$CBV?$basic_string@DU?$char_traits@D@std@@V?$allocator@D@2@@std@@V?$shared_ptr@VRawImageData@@@2@@std@@@2@$0A@@std@@@std@@IAEXPAU?$_Tree_node@U?$pair@$$CBV?$basic_string@DU?$char_traits@D@std@@V?$allocator@D@2@@std@@V?$shared_ptr@VRawImageData@@@2@@std@@PAX@2@@Z$0 00400000 f   mainfunction.obj
 0001:fffff000       __ehhandler$??1_Sentry_base@?$basic_ostream@DU?$char_traits@D@std@@@std@@QAE@XZ 00400000 f   PlayingCardsDemo.obj
 0001:fffff000       __ehhandler$?clear@?$_Tree@V?$_Tmap_traits@V?$basic_string@DU?$char_traits@D@std@@V?$allocator@D@2@@std@@V?$shared_ptr@VRawImageData@@@2@U?$less@V?$basic_string@DU?$char_traits@D@std@@V?$allocator@D@2@@std@@@2@V?$allocator@U?$pair@$$CBV?$basic_string@DU?$char_traits@D@std@@V?$allocator@D@2@@std@@V?$shared_ptr@VRawImageData@@@2@@std@@@2@$0A@@std@@@std@@QAEXXZ 00400000 f   mainfunction.obj
 0001:fffff000       __ehhandler$??$_Resize@V<lambda_2afd52570c452b238925c6f475a76105>@@@?$vector@PAVDisplayableObject@@V?$allocator@PAVDisplayableObject@@@std@@@std@@AAEXIV<lambda_2afd52570c452b238925c6f475a76105>@@@Z 00400000 f   JasonsDemoA.obj
 0001:fffff000       __unwindfunclet$??0sentry@?$basic_ostream@DU?$char_traits@D@std@@@std@@QAE@AAV12@@Z$0 00400000 f   PlayingCardsDemo.obj
 0001:fffff000       __ehhandler$??1sentry@?$basic_ostream@DU?$char_traits@D@std@@@std@@QAE@XZ 00400000 f   PlayingCardsDemo.obj
 0001:fffff000       __unwindfunclet$?erase@?$_Tree@V?$_Tmap_traits@V?$basic_string@DU?$char_traits@D@std@@V?$allocator@D@2@@std@@V?$shared_ptr@VRawImageData@@@2@U?$less@V?$basic_string@DU?$char_traits@D@std@@V?$allocator@D@2@@std@@@2@V?$allocator@U?$pair@$$CBV?$basic_string@DU?$char_traits@D@std@@V?$allocator@D@2@@std@@V?$shared_ptr@VRawImageData@@@2@@std@@@2@$0A@@std@@@std@@QAE?AV?$_Tree_iterator@V?$_Tree_val@U?$_Tree_simple_types@U?$pair@$$CBV?$basic_string@DU?$char_traits@D@std@@V?$allocator@D@2@@std@@V?$shared_ptr@VRawImageData@@@2@@std@@@std@@@std@@@2@V?$_Tree_const_iterator@V?$_Tree_val@U?$_Tree_simple_types@U?$pair@$$CBV?$basic_string@DU?$char_traits@D@std@@V?$allocator@D@2@@std@@V?$shared_ptr@VRawImageData@@@2@@std@@@std@@@std@@@2@0@Z$0 00400000 f   mainfunction.obj
 0001:fffff000       __unwindfunclet$??E?$_Tree_const_iterator@V?$_Tree_val@U?$_Tree_simple_types@U?$pair@$$CBV?$basic_string@DU?$char_traits@D@std@@V?$allocator@D@2@@std@@V?$shared_ptr@VRawImageData@@@2@@std@@@std@@@std@@@std@@QAE?AV01@H@Z$0 00400000 f   JasonsDemoA.obj
 0001:fffff000       __ehhandler$??$?0VRawImageData@@$0A@@?$weak_ptr@VRawImageData@@@std@@QAE@ABV?$shared_ptr@VRawImageData@@@1@@Z 00400000 f   JasonsDemoA.obj
 0001:fffff000       __unwindfunclet$?erase@?$_Tree@V?$_Tmap_traits@V?$basic_string@DU?$char_traits@D@std@@V?$allocator@D@2@@std@@V?$shared_ptr@VRawImageData@@@2@U?$less@V?$basic_string@DU?$char_traits@D@std@@V?$allocator@D@2@@std@@@2@V?$allocator@U?$pair@$$CBV?$basic_string@DU?$char_traits@D@std@@V?$allocator@D@2@@std@@V?$shared_ptr@VRawImageData@@@2@@std@@@2@$0A@@std@@@std@@QAE?AV?$_Tree_iterator@V?$_Tree_val@U?$_Tree_simple_types@U?$pair@$$CBV?$basic_string@DU?$char_traits@D@std@@V?$allocator@D@2@@std@@V?$shared_ptr@VRawImageData@@@2@@std@@@std@@@std@@@2@V?$_Tree_const_iterator@V?$_Tree_val@U?$_Tree_simple_types@U?$pair@$$CBV?$basic_string@DU?$char_traits@D@std@@V?$allocator@D@2@@std@@V?$shared_ptr@VRawImageData@@@2@@std@@@std@@@std@@@2@@Z$0 00400000 f   mainfunction.obj
 0001:fffff000       __unwindfunclet$??$erase@V?$_Tree_iterator@V?$_Tree_val@U?$_Tree_simple_types@U?$pair@$$CBV?$basic_string@DU?$char_traits@D@std@@V?$allocator@D@2@@std@@V?$weak_ptr@VRawImageData@@@2@@std@@@std@@@std@@@std@@X@?$_Tree@V?$_Tmap_traits@V?$basic_string@DU?$char_traits@D@std@@V?$allocator@D@2@@std@@V?$weak_ptr@VRawImageData@@@2@U?$less@V?$basic_string@DU?$char_traits@D@std@@V?$allocator@D@2@@std@@@2@V?$allocator@U?$pair@$$CBV?$basic_string@DU?$char_traits@D@std@@V?$allocator@D@2@@std@@V?$weak_ptr@VRawImageData@@@2@@std@@@2@$0A@@std@@@std@@QAE?AV?$_Tree_iterator@V?$_Tree_val@U?$_Tree_simple_types@U?$pair@$$CBV?$basic_string@DU?$char_traits@D@std@@V?$allocator@D@2@@std@@V?$weak_ptr@VRawImageData@@@2@@std@@@std@@@std@@@1@V21@@Z$0 00400000 f   JasonsDemoA.obj
 0001:fffff000       __ehhandler$?end@?$_Tree@V?$_Tmap_traits@V?$basic_string@DU?$char_traits@D@std@@V?$allocator@D@2@@std@@V?$shared_ptr@VRawImageData@@@2@U?$less@V?$basic_string@DU?$char_traits@D@std@@V?$allocator@D@2@@std@@@2@V?$allocator@U?$pair@$$CBV?$basic_string@DU?$char_traits@D@std@@V?$allocator@D@2@@std@@V?$shared_ptr@VRawImageData@@@2@@std@@@2@$0A@@std@@@std@@QAE?AV?$_Tree_iterator@V?$_Tree_val@U?$_Tree_simple_types@U?$pair@$$CBV?$basic_string@DU?$char_traits@D@std@@V?$allocator@D@2@@std@@V?$shared_ptr@VRawImageData@@@2@@std@@@std@@@std@@@2@XZ 00400000 f   mainfunction.obj
 0001:fffff000       __ehhandler$?begin@?$_Tree@V?$_Tmap_traits@V?$basic_string@DU?$char_traits@D@std@@V?$allocator@D@2@@std@@V?$shared_ptr@VRawImageData@@@2@U?$less@V?$basic_string@DU?$char_traits@D@std@@V?$allocator@D@2@@std@@@2@V?$allocator@U?$pair@$$CBV?$basic_string@DU?$char_traits@D@std@@V?$allocator@D@2@@std@@V?$shared_ptr@VRawImageData@@@2@@std@@@2@$0A@@std@@@std@@QAE?AV?$_Tree_iterator@V?$_Tree_val@U?$_Tree_simple_types@U?$pair@$$CBV?$basic_string@DU?$char_traits@D@std@@V?$allocator@D@2@@std@@V?$shared_ptr@VRawImageData@@@2@@std@@@std@@@std@@@2@XZ 00400000 f   mainfunction.obj
 0001:fffff000       __ehhandler$??1?$_Tree@V?$_Tmap_traits@V?$basic_string@DU?$char_traits@D@std@@V?$allocator@D@2@@std@@V?$shared_ptr@VRawImageData@@@2@U?$less@V?$basic_string@DU?$char_traits@D@std@@V?$allocator@D@2@@std@@@2@V?$allocator@U?$pair@$$CBV?$basic_string@DU?$char_traits@D@std@@V?$allocator@D@2@@std@@V?$shared_ptr@VRawImageData@@@2@@std@@@2@$0A@@std@@@std@@QAE@XZ 00400000 f   mainfunction.obj
 0001:fffff000       __unwindfunclet$?_Extract@?$_Tree_val@U?$_Tree_simple_types@U?$pair@$$CBV?$basic_string@DU?$char_traits@D@std@@V?$allocator@D@2@@std@@V?$shared_ptr@VRawImageData@@@2@@std@@@std@@@std@@QAEPAU?$_Tree_node@U?$pair@$$CBV?$basic_string@DU?$char_traits@D@std@@V?$allocator@D@2@@std@@V?$shared_ptr@VRawImageData@@@2@@std@@PAX@2@V?$_Tree_const_iterator@V?$_Tree_val@U?$_Tree_simple_types@U?$pair@$$CBV?$basic_string@DU?$char_traits@D@std@@V?$allocator@D@2@@std@@V?$shared_ptr@VRawImageData@@@2@@std@@@std@@@std@@@2@@Z$0 00400000 f   mainfunction.obj
 0001:fffff000       __ehhandler$?lock@?$weak_ptr@VRawImageData@@@std@@QBE?AV?$shared_ptr@VRawImageData@@@2@XZ 00400000 f   JasonsDemoA.obj
 0001:fffff000       __ehhandler$??1?$_Tree_comp_alloc@V?$_Tmap_traits@V?$basic_string@DU?$char_traits@D@std@@V?$allocator@D@2@@std@@V?$shared_ptr@VRawImageData@@@2@U?$less@V?$basic_string@DU?$char_traits@D@std@@V?$allocator@D@2@@std@@@2@V?$allocator@U?$pair@$$CBV?$basic_string@DU?$char_traits@D@std@@V?$allocator@D@2@@std@@V?$shared_ptr@VRawImageData@@@2@@std@@@2@$0A@@std@@@std@@QAE@XZ 00400000 f   mainfunction.obj
 0001:fffff000       __ehhandler$??1?$weak_ptr@VRawImageData@@@std@@QAE@XZ 00400000 f   JasonsDemoA.obj
 0001:fffff000       __unwindfunclet$?_Tidy@?$_Tree@V?$_Tmap_traits@V?$basic_string@DU?$char_traits@D@std@@V?$allocator@D@2@@std@@V?$weak_ptr@VRawImageData@@@2@U?$less@V?$basic_string@DU?$char_traits@D@std@@V?$allocator@D@2@@std@@@2@V?$allocator@U?$pair@$$CBV?$basic_string@DU?$char_traits@D@std@@V?$allocator@D@2@@std@@V?$weak_ptr@VRawImageData@@@2@@std@@@2@$0A@@std@@@std@@IAEXXZ$0 00400000 f   mainfunction.obj
 0001:fffff000       __unwindfunclet$??$_Setp@VRawImageData@@@?$shared_ptr@VRawImageData@@@std@@AAEXPAVRawImageData@@U?$integral_constant@_N$0A@@1@@Z$2 00400000 f   PlayingCardsDemo.obj
 0001:fffff000       __unwindfunclet$?_Orphan_ptr@?$_Tree@V?$_Tmap_traits@V?$basic_string@DU?$char_traits@D@std@@V?$allocator@D@2@@std@@V?$weak_ptr@VRawImageData@@@2@U?$less@V?$basic_string@DU?$char_traits@D@std@@V?$allocator@D@2@@std@@@2@V?$allocator@U?$pair@$$CBV?$basic_string@DU?$char_traits@D@std@@V?$allocator@D@2@@std@@V?$weak_ptr@VRawImageData@@@2@@std@@@2@$0A@@std@@@std@@IAEXPAU?$_Tree_node@U?$pair@$$CBV?$basic_string@DU?$char_traits@D@std@@V?$allocator@D@2@@std@@V?$weak_ptr@VRawImageData@@@2@@std@@PAX@2@@Z$0 00400000 f   mainfunction.obj
 0001:fffff000       __ehhandler$??0?$weak_ptr@VRawImageData@@@std@@QAE@$$QAV01@@Z 00400000 f   JasonsDemoA.obj
 0001:fffff000       __ehhandler$?clear@?$_Tree@V?$_Tmap_traits@V?$basic_string@DU?$char_traits@D@std@@V?$allocator@D@2@@std@@V?$weak_ptr@VRawImageData@@@2@U?$less@V?$basic_string@DU?$char_traits@D@std@@V?$allocator@D@2@@std@@@2@V?$allocator@U?$pair@$$CBV?$basic_string@DU?$char_traits@D@std@@V?$allocator@D@2@@std@@V?$weak_ptr@VRawImageData@@@2@@std@@@2@$0A@@std@@@std@@QAEXXZ 00400000 f   mainfunction.obj
 0001:fffff000       __ehhandler$??0?$weak_ptr@VRawImageData@@@std@@QAE@ABV01@@Z 00400000 f   JasonsDemoA.obj
 0001:fffff000       __unwindfunclet$??$_Insert_string@DU?$char_traits@D@std@@I@std@@YAAAV?$basic_ostream@DU?$char_traits@D@std@@@0@AAV10@QBDI@Z$2 00400000 f   PlayingCardsDemo.obj
 0001:fffff000       __unwindfunclet$??E?$_Tree_const_iterator@V?$_Tree_val@U?$_Tree_simple_types@U?$pair@$$CBV?$basic_string@DU?$char_traits@D@std@@V?$allocator@D@2@@std@@V?$weak_ptr@VRawImageData@@@2@@std@@@std@@@std@@@std@@QAE?AV01@H@Z$0 00400000 f   JasonsDemoA.obj
 0001:fffff000       __unwindfunclet$?erase@?$_Tree@V?$_Tmap_traits@V?$basic_string@DU?$char_traits@D@std@@V?$allocator@D@2@@std@@V?$weak_ptr@VRawImageData@@@2@U?$less@V?$basic_string@DU?$char_traits@D@std@@V?$allocator@D@2@@std@@@2@V?$allocator@U?$pair@$$CBV?$basic_string@DU?$char_traits@D@std@@V?$allocator@D@2@@std@@V?$weak_ptr@VRawImageData@@@2@@std@@@2@$0A@@std@@@std@@QAE?AV?$_Tree_iterator@V?$_Tree_val@U?$_Tree_simple_types@U?$pair@$$CBV?$basic_string@DU?$char_traits@D@std@@V?$allocator@D@2@@std@@V?$weak_ptr@VRawImageData@@@2@@std@@@std@@@std@@@2@V?$_Tree_const_iterator@V?$_Tree_val@U?$_Tree_simple_types@U?$pair@$$CBV?$basic_string@DU?$char_traits@D@std@@V?$allocator@D@2@@std@@V?$weak_ptr@VRawImageData@@@2@@std@@@std@@@std@@@2@0@Z$0 00400000 f   mainfunction.obj
 0001:fffff000       __unwindfunclet$?loadAsNew@ImageManager@@QAE?AV?$shared_ptr@VRawImageData@@@std@@V?$basic_string@DU?$char_traits@D@std@@V?$allocator@D@2@@3@@Z$0 00400000 f   JasonsDemoA.obj
 0001:fffff000       __unwindfunclet$?getImagebyURL@ImageManager@@QAE?AVSimpleImage@@V?$basic_string@DU?$char_traits@D@std@@V?$allocator@D@2@@std@@_N1@Z$0 00400000 f   JasonsDemoA.obj
 0001:fffff000       __unwindfunclet$?erase@?$_Tree@V?$_Tmap_traits@V?$basic_string@DU?$char_traits@D@std@@V?$allocator@D@2@@std@@V?$weak_ptr@VRawImageData@@@2@U?$less@V?$basic_string@DU?$char_traits@D@std@@V?$allocator@D@2@@std@@@2@V?$allocator@U?$pair@$$CBV?$basic_string@DU?$char_traits@D@std@@V?$allocator@D@2@@std@@V?$weak_ptr@VRawImageData@@@2@@std@@@2@$0A@@std@@@std@@QAE?AV?$_Tree_iterator@V?$_Tree_val@U?$_Tree_simple_types@U?$pair@$$CBV?$basic_string@DU?$char_traits@D@std@@V?$allocator@D@2@@std@@V?$weak_ptr@VRawImageData@@@2@@std@@@std@@@std@@@2@V?$_Tree_const_iterator@V?$_Tree_val@U?$_Tree_simple_types@U?$pair@$$CBV?$basic_string@DU?$char_traits@D@std@@V?$allocator@D@2@@std@@V?$weak_ptr@VRawImageData@@@2@@std@@@std@@@std@@@2@@Z$0 00400000 f   mainfunction.obj
 0001:fffff000       __unwindfunclet$?getImagePtrbyURL@ImageManager@@QAE?AV?$shared_ptr@VRawImageData@@@std@@V?$basic_string@DU?$char_traits@D@std@@V?$allocator@D@2@@3@_N1@Z$0 00400000 f   JasonsDemoA.obj
 0001:fffff000       __ehhandler$?end@?$_Tree@V?$_Tmap_traits@V?$basic_string@DU?$char_traits@D@std@@V?$allocator@D@2@@std@@V?$weak_ptr@VRawImageData@@@2@U?$less@V?$basic_string@DU?$char_traits@D@std@@V?$allocator@D@2@@std@@@2@V?$allocator@U?$pair@$$CBV?$basic_string@DU?$char_traits@D@std@@V?$allocator@D@2@@std@@V?$weak_ptr@VRawImageData@@@2@@std@@@2@$0A@@std@@@std@@QAE?AV?$_Tree_iterator@V?$_Tree_val@U?$_Tree_simple_types@U?$pair@$$CBV?$basic_string@DU?$char_traits@D@std@@V?$allocator@D@2@@std@@V?$weak_ptr@VRawImageData@@@2@@std@@@std@@@std@@@2@XZ 00400000 f   mainfunction.obj
 0001:fffff000       __ehhandler$?begin@?$_Tree@V?$_Tmap_traits@V?$basic_string@DU?$char_traits@D@std@@V?$allocator@D@2@@std@@V?$weak_ptr@VRawImageData@@@2@U?$less@V?$basic_string@DU?$char_traits@D@std@@V?$allocator@D@2@@std@@@2@V?$allocator@U?$pair@$$CBV?$basic_string@DU?$char_traits@D@std@@V?$allocator@D@2@@std@@V?$weak_ptr@VRawImageData@@@2@@std@@@2@$0A@@std@@@std@@QAE?AV?$_Tree_iterator@V?$_Tree_val@U?$_Tree_simple_types@U?$pair@$$CBV?$basic_string@DU?$char_traits@D@std@@V?$allocator@D@2@@std@@V?$weak_ptr@VRawImageData@@@2@@std@@@std@@@std@@@2@XZ 00400000 f   mainfunction.obj
 0001:fffff000       __ehhandler$??1?$_Tree@V?$_Tmap_traits@V?$basic_string@DU?$char_traits@D@std@@V?$allocator@D@2@@std@@V?$weak_ptr@VRawImageData@@@2@U?$less@V?$basic_string@DU?$char_traits@D@std@@V?$allocator@D@2@@std@@@2@V?$allocator@U?$pair@$$CBV?$basic_string@DU?$char_traits@D@std@@V?$allocator@D@2@@std@@V?$weak_ptr@VRawImageData@@@2@@std@@@2@$0A@@std@@@std@@QAE@XZ 00400000 f   mainfunction.obj
 0001:fffff000       __unwindfunclet$?_Extract@?$_Tree_val@U?$_Tree_simple_types@U?$pair@$$CBV?$basic_string@DU?$char_traits@D@std@@V?$allocator@D@2@@std@@V?$weak_ptr@VRawImageData@@@2@@std@@@std@@@std@@QAEPAU?$_Tree_node@U?$pair@$$CBV?$basic_string@DU?$char_traits@D@std@@V?$allocator@D@2@@std@@V?$weak_ptr@VRawImageData@@@2@@std@@PAX@2@V?$_Tree_const_iterator@V?$_Tree_val@U?$_Tree_simple_types@U?$pair@$$CBV?$basic_string@DU?$char_traits@D@std@@V?$allocator@D@2@@std@@V?$weak_ptr@VRawImageData@@@2@@std@@@std@@@std@@@2@@Z$0 00400000 f   mainfunction.obj
 0001:fffff000       __unwindfunclet$??0ImageManager@@QAE@XZ$0 00400000 f   JasonsDemoA.obj
 0001:fffff000       __ehhandler$??1?$_Tree_comp_alloc@V?$_Tmap_traits@V?$basic_string@DU?$char_traits@D@std@@V?$allocator@D@2@@std@@V?$weak_ptr@VRawImageData@@@2@U?$less@V?$basic_string@DU?$char_traits@D@std@@V?$allocator@D@2@@std@@@2@V?$allocator@U?$pair@$$CBV?$basic_string@DU?$char_traits@D@std@@V?$allocator@D@2@@std@@V?$weak_ptr@VRawImageData@@@2@@std@@@2@$0A@@std@@@std@@QAE@XZ 00400000 f   mainfunction.obj
 0001:fffff000       __ehhandler$??1?$shared_ptr@VRawImageData@@@std@@QAE@XZ 00400000 f   mainfunction.obj
 0001:fffff000       __ehhandler$??1?$basic_string@DU?$char_traits@D@std@@V?$allocator@D@2@@std@@QAE@XZ 00400000 f   mainfunction.obj
 0001:fffff000       __ehhandler$??1?$_String_alloc@U?$_String_base_types@DV?$allocator@D@std@@@std@@@std@@QAE@XZ 00400000 f   mainfunction.obj
 0001:fffff000       __ehhandler$?_Adopt@_Iterator_base12@std@@QAEXPBU_Container_base12@2@@Z 00400000 f   mainfunction.obj
 0001:fffff000       __ehhandler$??1_Iterator_base12@std@@QAE@XZ 00400000 f   mainfunction.obj
 0001:fffff000       __ehhandler$??4_Iterator_base12@std@@QAEAAU01@ABU01@@Z 00400000 f   mainfunction.obj
 0001:fffff000       __ehhandler$?_Orphan_all@_Container_base12@std@@QAEXXZ 00400000 f   mainfunction.obj
 0001:fffff000       __ehhandler$??$_Buynode@U?$pair@V?$basic_string@DU?$char_traits@D@std@@V?$allocator@D@2@@std@@V?$weak_ptr@VRawImageData@@@2@@std@@@?$_Tree_comp_alloc@V?$_Tmap_traits@V?$basic_string@DU?$char_traits@D@std@@V?$allocator@D@2@@std@@V?$weak_ptr@VRawImageData@@@2@U?$less@V?$basic_string@DU?$char_traits@D@std@@V?$allocator@D@2@@std@@@2@V?$allocator@U?$pair@$$CBV?$basic_string@DU?$char_traits@D@std@@V?$allocator@D@2@@std@@V?$weak_ptr@VRawImageData@@@2@@std@@@2@$0A@@std@@@std@@QAEPAU?$_Tree_node@U?$pair@$$CBV?$basic_string@DU?$char_traits@D@std@@V?$allocator@D@2@@std@@V?$weak_ptr@VRawImageData@@@2@@std@@PAX@1@$$QAU?$pair@V?$basic_string@DU?$char_traits@D@std@@V?$allocator@D@2@@std@@V?$weak_ptr@VRawImageData@@@2@@1@@Z 00400000 f   PlayingCardsDemo.obj
 0001:fffff000       __unwindfunclet$?loadImage@ImageManager@@SA?AVSimpleImage@@V?$basic_string@DU?$char_traits@D@std@@V?$allocator@D@2@@std@@_N@Z$0 00400000 f   JasonsDemoA.obj
 0001:fffff000       __unwindfunclet$?get@ImageManager@@SAPAV1@XZ$0 00400000 f   JasonsDemoA.obj
 0001:fffff000       __unwindfunclet$?loadAsNew@ImageManager@@QAE?AV?$shared_ptr@VRawImageData@@@std@@V?$basic_string@DU?$char_traits@D@std@@V?$allocator@D@2@@3@@Z$0 00400000 f   PlayingCardsDemo.obj
 0002:fffc3000       __unwindtable$?loadImage@ImageManager@@SA?AVSimpleImage@@V?$basic_string@DU?$char_traits@D@std@@V?$allocator@D@2@@std@@_N@Z 00400000     JasonsDemoA.obj
 0002:fffc3000       __unwindtable$?get@ImageManager@@SAPAV1@XZ 00400000     JasonsDemoA.obj
 0001:fffff000       __unwindfunclet$??E?$_Tree_const_iterator@V?$_Tree_val@U?$_Tree_simple_types@U?$pair@$$CBV?$basic_string@DU?$char_traits@D@std@@V?$allocator@D@2@@std@@V?$weak_ptr@VRawImageData@@@2@@std@@@std@@@std@@@std@@QAE?AV01@H@Z$0 00400000 f   PlayingCardsDemo.obj
 0001:fffff000       __ehhandler$??0?$weak_ptr@VRawImageData@@@std@@QAE@ABV01@@Z 00400000 f   PlayingCardsDemo.obj
 0001:fffff000       __ehhandler$??0?$weak_ptr@VRawImageData@@@std@@QAE@$$QAV01@@Z 00400000 f   PlayingCardsDemo.obj
 0001:fffff000       __ehhandler$??1?$weak_ptr@VRawImageData@@@std@@QAE@XZ 00400000 f   PlayingCardsDemo.obj
 0001:fffff000       __ehhandler$?lock@?$weak_ptr@VRawImageData@@@std@@QBE?AV?$shared_ptr@VRawImageData@@@2@XZ 00400000 f   PlayingCardsDemo.obj
 0002:fffc3000       __unwindtable$?_Tidy@?$_Tree@V?$_Tmap_traits@V?$basic_string@DU?$char_traits@D@std@@V?$allocator@D@2@@std@@V?$shared_ptr@VRawImageData@@@2@U?$less@V?$basic_string@DU?$char_traits@D@std@@V?$allocator@D@2@@std@@@2@V?$allocator@U?$pair@$$CBV?$basic_string@DU?$char_traits@D@std@@V?$allocator@D@2@@std@@V?$shared_ptr@VRawImageData@@@2@@std@@@2@$0A@@std@@@std@@IAEXXZ 00400000     JasonsDemoA.obj
 0001:fffff000       __unwindfunclet$??$erase@V?$_Tree_iterator@V?$_Tree_val@U?$_Tree_simple_types@U?$pair@$$CBV?$basic_string@DU?$char_traits@D@std@@V?$allocator@D@2@@std@@V?$weak_ptr@VRawImageData@@@2@@std@@@std@@@std@@@std@@X@?$_Tree@V?$_Tmap_traits@V?$basic_string@DU?$char_traits@D@std@@V?$allocator@D@2@@std@@V?$weak_ptr@VRawImageData@@@2@U?$less@V?$basic_string@DU?$char_traits@D@std@@V?$allocator@D@2@@std@@@2@V?$allocator@U?$pair@$$CBV?$basic_string@DU?$char_traits@D@std@@V?$allocator@D@2@@std@@V?$weak_ptr@VRawImageData@@@2@@std@@@2@$0A@@std@@@std@@QAE?AV?$_Tree_iterator@V?$_Tree_val@U?$_Tree_simple_types@U?$pair@$$CBV?$basic_string@DU?$char_traits@D@std@@V?$allocator@D@2@@std@@V?$weak_ptr@VRawImageData@@@2@@std@@@std@@@std@@@1@V21@@Z$0 00400000 f   PlayingCardsDemo.obj
 0001:fffff000       __ehhandler$??$?0VRawImageData@@$0A@@?$weak_ptr@VRawImageData@@@std@@QAE@ABV?$shared_ptr@VRawImageData@@@1@@Z 00400000 f   PlayingCardsDemo.obj
 0002:fffc3000       __unwindtable$?_Orphan_ptr@?$_Tree@V?$_Tmap_traits@V?$basic_string@DU?$char_traits@D@std@@V?$allocator@D@2@@std@@V?$shared_ptr@VRawImageData@@@2@U?$less@V?$basic_string@DU?$char_traits@D@std@@V?$allocator@D@2@@std@@@2@V?$allocator@U?$pair@$$CBV?$basic_string@DU?$char_traits@D@std@@V?$allocator@D@2@@std@@V?$shared_ptr@VRawImageData@@@2@@std@@@2@$0A@@std@@@std@@IAEXPAU?$_Tree_node@U?$pair@$$CBV?$basic_string@DU?$char_traits@D@std@@V?$allocator@D@2@@std@@V?$shared_ptr@VRawImageData@@@2@@std@@PAX@2@@Z 00400000     JasonsDemoA.obj
 0001:fffff000       __unwindfunclet$??E?$_Tree_const_iterator@V?$_Tree_val@U?$_Tree_simple_types@U?$pair@$$CBV?$basic_string@DU?$char_traits@D@std@@V?$allocator@D@2@@std@@V?$shared_ptr@VRawImageData@@@2@@std@@@std@@@std@@@std@@QAE?AV01@H@Z$0 00400000 f   PlayingCardsDemo.obj
 0002:fffc3000       __ehfuncinfo$?clear@?$_Tree@V?$_Tmap_traits@V?$basic_string@DU?$char_traits@D@std@@V?$allocator@D@2@@std@@V?$shared_ptr@VRawImageData@@@2@U?$less@V?$basic_string@DU?$char_traits@D@std@@V?$allocator@D@2@@std@@@2@V?$allocator@U?$pair@$$CBV?$basic_string@DU?$char_traits@D@std@@V?$allocator@D@2@@std@@V?$shared_ptr@VRawImageData@@@2@@std@@@2@$0A@@std@@@std@@QAEXXZ 00400000     JasonsDemoA.obj
 0002:fffc3000       __unwindtable$?erase@?$_Tree@V?$_Tmap_traits@V?$basic_string@DU?$char_traits@D@std@@V?$allocator@D@2@@std@@V?$shared_ptr@VRawImageData@@@2@U?$less@V?$basic_string@DU?$char_traits@D@std@@V?$allocator@D@2@@std@@@2@V?$allocator@U?$pair@$$CBV?$basic_string@DU?$char_traits@D@std@@V?$allocator@D@2@@std@@V?$shared_ptr@VRawImageData@@@2@@std@@@2@$0A@@std@@@std@@QAE?AV?$_Tree_iterator@V?$_Tree_val@U?$_Tree_simple_types@U?$pair@$$CBV?$basic_string@DU?$char_traits@D@std@@V?$allocator@D@2@@std@@V?$shared_ptr@VRawImageData@@@2@@std@@@std@@@std@@@2@V?$_Tree_const_iterator@V?$_Tree_val@U?$_Tree_simple_types@U?$pair@$$CBV?$basic_string@DU?$char_traits@D@std@@V?$allocator@D@2@@std@@V?$shared_ptr@VRawImageData@@@2@@std@@@std@@@std@@@2@0@Z 00400000     JasonsDemoA.obj
 0002:fffc3000       __unwindtable$?erase@?$_Tree@V?$_Tmap_traits@V?$basic_string@DU?$char_traits@D@std@@V?$allocator@D@2@@std@@V?$shared_ptr@VRawImageData@@@2@U?$less@V?$basic_string@DU?$char_traits@D@std@@V?$allocator@D@2@@std@@@2@V?$allocator@U?$pair@$$CBV?$basic_string@DU?$char_traits@D@std@@V?$allocator@D@2@@std@@V?$shared_ptr@VRawImageData@@@2@@std@@@2@$0A@@std@@@std@@QAE?AV?$_Tree_iterator@V?$_Tree_val@U?$_Tree_simple_types@U?$pair@$$CBV?$basic_string@DU?$char_traits@D@std@@V?$allocator@D@2@@std@@V?$shared_ptr@VRawImageData@@@2@@std@@@std@@@std@@@2@V?$_Tree_const_iterator@V?$_Tree_val@U?$_Tree_simple_types@U?$pair@$$CBV?$basic_string@DU?$char_traits@D@std@@V?$allocator@D@2@@std@@V?$shared_ptr@VRawImageData@@@2@@std@@@std@@@std@@@2@@Z 00400000     JasonsDemoA.obj
 0002:fffc3000       __ehfuncinfo$?end@?$_Tree@V?$_Tmap_traits@V?$basic_string@DU?$char_traits@D@std@@V?$allocator@D@2@@std@@V?$shared_ptr@VRawImageData@@@2@U?$less@V?$basic_string@DU?$char_traits@D@std@@V?$allocator@D@2@@std@@@2@V?$allocator@U?$pair@$$CBV?$basic_string@DU?$char_traits@D@std@@V?$allocator@D@2@@std@@V?$shared_ptr@VRawImageData@@@2@@std@@@2@$0A@@std@@@std@@QAE?AV?$_Tree_iterator@V?$_Tree_val@U?$_Tree_simple_types@U?$pair@$$CBV?$basic_string@DU?$char_traits@D@std@@V?$allocator@D@2@@std@@V?$shared_ptr@VRawImageData@@@2@@std@@@std@@@std@@@2@XZ 00400000     JasonsDemoA.obj
 0002:fffc3000       __ehfuncinfo$?begin@?$_Tree@V?$_Tmap_traits@V?$basic_string@DU?$char_traits@D@std@@V?$allocator@D@2@@std@@V?$shared_ptr@VRawImageData@@@2@U?$less@V?$basic_string@DU?$char_traits@D@std@@V?$allocator@D@2@@std@@@2@V?$allocator@U?$pair@$$CBV?$basic_string@DU?$char_traits@D@std@@V?$allocator@D@2@@std@@V?$shared_ptr@VRawImageData@@@2@@std@@@2@$0A@@std@@@std@@QAE?AV?$_Tree_iterator@V?$_Tree_val@U?$_Tree_simple_types@U?$pair@$$CBV?$basic_string@DU?$char_traits@D@std@@V?$allocator@D@2@@std@@V?$shared_ptr@VRawImageData@@@2@@std@@@std@@@std@@@2@XZ 00400000     JasonsDemoA.obj
 0002:fffc3000       __ehfuncinfo$??1?$_Tree@V?$_Tmap_traits@V?$basic_string@DU?$char_traits@D@std@@V?$allocator@D@2@@std@@V?$shared_ptr@VRawImageData@@@2@U?$less@V?$basic_string@DU?$char_traits@D@std@@V?$allocator@D@2@@std@@@2@V?$allocator@U?$pair@$$CBV?$basic_string@DU?$char_traits@D@std@@V?$allocator@D@2@@std@@V?$shared_ptr@VRawImageData@@@2@@std@@@2@$0A@@std@@@std@@QAE@XZ 00400000     JasonsDemoA.obj
 0002:fffc3000       __unwindtable$?_Extract@?$_Tree_val@U?$_Tree_simple_types@U?$pair@$$CBV?$basic_string@DU?$char_traits@D@std@@V?$allocator@D@2@@std@@V?$shared_ptr@VRawImageData@@@2@@std@@@std@@@std@@QAEPAU?$_Tree_node@U?$pair@$$CBV?$basic_string@DU?$char_traits@D@std@@V?$allocator@D@2@@std@@V?$shared_ptr@VRawImageData@@@2@@std@@PAX@2@V?$_Tree_const_iterator@V?$_Tree_val@U?$_Tree_simple_types@U?$pair@$$CBV?$basic_string@DU?$char_traits@D@std@@V?$allocator@D@2@@std@@V?$shared_ptr@VRawImageData@@@2@@std@@@std@@@std@@@2@@Z 00400000     JasonsDemoA.obj
 0002:fffc3000       __catchsym$?_Buynode0@?$_Tree_comp_alloc@V?$_Tmap_traits@V?$basic_string@DU?$char_traits@D@std@@V?$allocator@D@2@@std@@V?$shared_ptr@VRawImageData@@@2@U?$less@V?$basic_string@DU?$char_traits@D@std@@V?$allocator@D@2@@std@@@2@V?$allocator@U?$pair@$$CBV?$basic_string@DU?$char_traits@D@std@@V?$allocator@D@2@@std@@V?$shared_ptr@VRawImageData@@@2@@std@@@2@$0A@@std@@@std@@QAEPAU?$_Tree_node@U?$pair@$$CBV?$basic_string@DU?$char_traits@D@std@@V?$allocator@D@2@@std@@V?$shared_ptr@VRawImageData@@@2@@std@@PAX@2@XZ$2 00400000     JasonsDemoA.obj
 0002:fffc3000       __catchsym$?_Buyheadnode@?$_Tree_comp_alloc@V?$_Tmap_traits@V?$basic_string@DU?$char_traits@D@std@@V?$allocator@D@2@@std@@V?$shared_ptr@VRawImageData@@@2@U?$less@V?$basic_string@DU?$char_traits@D@std@@V?$allocator@D@2@@std@@@2@V?$allocator@U?$pair@$$CBV?$basic_string@DU?$char_traits@D@std@@V?$allocator@D@2@@std@@V?$shared_ptr@VRawImageData@@@2@@std@@@2@$0A@@std@@@std@@QAEPAU?$_Tree_node@U?$pair@$$CBV?$basic_string@DU?$char_traits@D@std@@V?$allocator@D@2@@std@@V?$shared_ptr@VRawImageData@@@2@@std@@PAX@2@XZ$2 00400000     JasonsDemoA.obj
 0002:fffc3000       __ehfuncinfo$??1?$_Tree_comp_alloc@V?$_Tmap_traits@V?$basic_string@DU?$char_traits@D@std@@V?$allocator@D@2@@std@@V?$shared_ptr@VRawImageData@@@2@U?$less@V?$basic_string@DU?$char_traits@D@std@@V?$allocator@D@2@@std@@@2@V?$allocator@U?$pair@$$CBV?$basic_string@DU?$char_traits@D@std@@V?$allocator@D@2@@std@@V?$shared_ptr@VRawImageData@@@2@@std@@@2@$0A@@std@@@std@@QAE@XZ 00400000     JasonsDemoA.obj
 0002:fffc3000       __catchsym$?_Construct@?$_Tree_comp_alloc@V?$_Tmap_traits@V?$basic_string@DU?$char_traits@D@std@@V?$allocator@D@2@@std@@V?$shared_ptr@VRawImageData@@@2@U?$less@V?$basic_string@DU?$char_traits@D@std@@V?$allocator@D@2@@std@@@2@V?$allocator@U?$pair@$$CBV?$basic_string@DU?$char_traits@D@std@@V?$allocator@D@2@@std@@V?$shared_ptr@VRawImageData@@@2@@std@@@2@$0A@@std@@@std@@QAEXXZ$2 00400000     JasonsDemoA.obj
 0002:fffc3000       __unwindtable$?_Tidy@?$_Tree@V?$_Tmap_traits@V?$basic_string@DU?$char_traits@D@std@@V?$allocator@D@2@@std@@V?$weak_ptr@VRawImageData@@@2@U?$less@V?$basic_string@DU?$char_traits@D@std@@V?$allocator@D@2@@std@@@2@V?$allocator@U?$pair@$$CBV?$basic_string@DU?$char_traits@D@std@@V?$allocator@D@2@@std@@V?$weak_ptr@VRawImageData@@@2@@std@@@2@$0A@@std@@@std@@IAEXXZ 00400000     JasonsDemoA.obj
 0002:fffc3000       __unwindtable$?_Orphan_ptr@?$_Tree@V?$_Tmap_traits@V?$basic_string@DU?$char_traits@D@std@@V?$allocator@D@2@@std@@V?$weak_ptr@VRawImageData@@@2@U?$less@V?$basic_string@DU?$char_traits@D@std@@V?$allocator@D@2@@std@@@2@V?$allocator@U?$pair@$$CBV?$basic_string@DU?$char_traits@D@std@@V?$allocator@D@2@@std@@V?$weak_ptr@VRawImageData@@@2@@std@@@2@$0A@@std@@@std@@IAEXPAU?$_Tree_node@U?$pair@$$CBV?$basic_string@DU?$char_traits@D@std@@V?$allocator@D@2@@std@@V?$weak_ptr@VRawImageData@@@2@@std@@PAX@2@@Z 00400000     JasonsDemoA.obj
 0002:fffc3000       __unwindtable$?find@?$_Tree@V?$_Tmap_traits@V?$basic_string@DU?$char_traits@D@std@@V?$allocator@D@2@@std@@V?$weak_ptr@VRawImageData@@@2@U?$less@V?$basic_string@DU?$char_traits@D@std@@V?$allocator@D@2@@std@@@2@V?$allocator@U?$pair@$$CBV?$basic_string@DU?$char_traits@D@std@@V?$allocator@D@2@@std@@V?$weak_ptr@VRawImageData@@@2@@std@@@2@$0A@@std@@@std@@QAE?AV?$_Tree_iterator@V?$_Tree_val@U?$_Tree_simple_types@U?$pair@$$CBV?$basic_string@DU?$char_traits@D@std@@V?$allocator@D@2@@std@@V?$weak_ptr@VRawImageData@@@2@@std@@@std@@@std@@@2@ABV?$basic_string@DU?$char_traits@D@std@@V?$allocator@D@2@@2@@Z 00400000     JasonsDemoA.obj
 0002:fffc3000       __ehfuncinfo$?clear@?$_Tree@V?$_Tmap_traits@V?$basic_string@DU?$char_traits@D@std@@V?$allocator@D@2@@std@@V?$weak_ptr@VRawImageData@@@2@U?$less@V?$basic_string@DU?$char_traits@D@std@@V?$allocator@D@2@@std@@@2@V?$allocator@U?$pair@$$CBV?$basic_string@DU?$char_traits@D@std@@V?$allocator@D@2@@std@@V?$weak_ptr@VRawImageData@@@2@@std@@@2@$0A@@std@@@std@@QAEXXZ 00400000     JasonsDemoA.obj
 0002:fffc3000       __unwindtable$?erase@?$_Tree@V?$_Tmap_traits@V?$basic_string@DU?$char_traits@D@std@@V?$allocator@D@2@@std@@V?$weak_ptr@VRawImageData@@@2@U?$less@V?$basic_string@DU?$char_traits@D@std@@V?$allocator@D@2@@std@@@2@V?$allocator@U?$pair@$$CBV?$basic_string@DU?$char_traits@D@std@@V?$allocator@D@2@@std@@V?$weak_ptr@VRawImageData@@@2@@std@@@2@$0A@@std@@@std@@QAE?AV?$_Tree_iterator@V?$_Tree_val@U?$_Tree_simple_types@U?$pair@$$CBV?$basic_string@DU?$char_traits@D@std@@V?$allocator@D@2@@std@@V?$weak_ptr@VRawImageData@@@2@@std@@@std@@@std@@@2@V?$_Tree_const_iterator@V?$_Tree_val@U?$_Tree_simple_types@U?$pair@$$CBV?$basic_string@DU?$char_traits@D@std@@V?$allocator@D@2@@std@@V?$weak_ptr@VRawImageData@@@2@@std@@@std@@@std@@@2@0@Z 00400000     JasonsDemoA.obj
 0002:fffc3000       __unwindtable$?erase@?$_Tree@V?$_Tmap_traits@V?$basic_string@DU?$char_traits@D@std@@V?$allocator@D@2@@std@@V?$weak_ptr@VRawImageData@@@2@U?$less@V?$basic_string@DU?$char_traits@D@std@@V?$allocator@D@2@@std@@@2@V?$allocator@U?$pair@$$CBV?$basic_string@DU?$char_traits@D@std@@V?$allocator@D@2@@std@@V?$weak_ptr@VRawImageData@@@2@@std@@@2@$0A@@std@@@std@@QAE?AV?$_Tree_iterator@V?$_Tree_val@U?$_Tree_simple_types@U?$pair@$$CBV?$basic_string@DU?$char_traits@D@std@@V?$allocator@D@2@@std@@V?$weak_ptr@VRawImageData@@@2@@std@@@std@@@std@@@2@V?$_Tree_const_iterator@V?$_Tree_val@U?$_Tree_simple_types@U?$pair@$$CBV?$basic_string@DU?$char_traits@D@std@@V?$allocator@D@2@@std@@V?$weak_ptr@VRawImageData@@@2@@std@@@std@@@std@@@2@@Z 00400000     JasonsDemoA.obj
 0002:fffc3000       __ehfuncinfo$?end@?$_Tree@V?$_Tmap_traits@V?$basic_string@DU?$char_traits@D@std@@V?$allocator@D@2@@std@@V?$weak_ptr@VRawImageData@@@2@U?$less@V?$basic_string@DU?$char_traits@D@std@@V?$allocator@D@2@@std@@@2@V?$allocator@U?$pair@$$CBV?$basic_string@DU?$char_traits@D@std@@V?$allocator@D@2@@std@@V?$weak_ptr@VRawImageData@@@2@@std@@@2@$0A@@std@@@std@@QAE?AV?$_Tree_iterator@V?$_Tree_val@U?$_Tree_simple_types@U?$pair@$$CBV?$basic_string@DU?$char_traits@D@std@@V?$allocator@D@2@@std@@V?$weak_ptr@VRawImageData@@@2@@std@@@std@@@std@@@2@XZ 00400000     JasonsDemoA.obj
 0002:fffc3000       __ehfuncinfo$?begin@?$_Tree@V?$_Tmap_traits@V?$basic_string@DU?$char_traits@D@std@@V?$allocator@D@2@@std@@V?$weak_ptr@VRawImageData@@@2@U?$less@V?$basic_string@DU?$char_traits@D@std@@V?$allocator@D@2@@std@@@2@V?$allocator@U?$pair@$$CBV?$basic_string@DU?$char_traits@D@std@@V?$allocator@D@2@@std@@V?$weak_ptr@VRawImageData@@@2@@std@@@2@$0A@@std@@@std@@QAE?AV?$_Tree_iterator@V?$_Tree_val@U?$_Tree_simple_types@U?$pair@$$CBV?$basic_string@DU?$char_traits@D@std@@V?$allocator@D@2@@std@@V?$weak_ptr@VRawImageData@@@2@@std@@@std@@@std@@@2@XZ 00400000     JasonsDemoA.obj
 0002:fffc3000       __ehfuncinfo$??1?$_Tree@V?$_Tmap_traits@V?$basic_string@DU?$char_traits@D@std@@V?$allocator@D@2@@std@@V?$weak_ptr@VRawImageData@@@2@U?$less@V?$basic_string@DU?$char_traits@D@std@@V?$allocator@D@2@@std@@@2@V?$allocator@U?$pair@$$CBV?$basic_string@DU?$char_traits@D@std@@V?$allocator@D@2@@std@@V?$weak_ptr@VRawImageData@@@2@@std@@@2@$0A@@std@@@std@@QAE@XZ 00400000     JasonsDemoA.obj
 0002:fffc3000       __unwindtable$?_Extract@?$_Tree_val@U?$_Tree_simple_types@U?$pair@$$CBV?$basic_string@DU?$char_traits@D@std@@V?$allocator@D@2@@std@@V?$weak_ptr@VRawImageData@@@2@@std@@@std@@@std@@QAEPAU?$_Tree_node@U?$pair@$$CBV?$basic_string@DU?$char_traits@D@std@@V?$allocator@D@2@@std@@V?$weak_ptr@VRawImageData@@@2@@std@@PAX@2@V?$_Tree_const_iterator@V?$_Tree_val@U?$_Tree_simple_types@U?$pair@$$CBV?$basic_string@DU?$char_traits@D@std@@V?$allocator@D@2@@std@@V?$weak_ptr@VRawImageData@@@2@@std@@@std@@@std@@@2@@Z 00400000     JasonsDemoA.obj
 0002:fffc3000       __catchsym$?_Buynode0@?$_Tree_comp_alloc@V?$_Tmap_traits@V?$basic_string@DU?$char_traits@D@std@@V?$allocator@D@2@@std@@V?$weak_ptr@VRawImageData@@@2@U?$less@V?$basic_string@DU?$char_traits@D@std@@V?$allocator@D@2@@std@@@2@V?$allocator@U?$pair@$$CBV?$basic_string@DU?$char_traits@D@std@@V?$allocator@D@2@@std@@V?$weak_ptr@VRawImageData@@@2@@std@@@2@$0A@@std@@@std@@QAEPAU?$_Tree_node@U?$pair@$$CBV?$basic_string@DU?$char_traits@D@std@@V?$allocator@D@2@@std@@V?$weak_ptr@VRawImageData@@@2@@std@@PAX@2@XZ$2 00400000     JasonsDemoA.obj
 0002:fffc3000       __catchsym$?_Buyheadnode@?$_Tree_comp_alloc@V?$_Tmap_traits@V?$basic_string@DU?$char_traits@D@std@@V?$allocator@D@2@@std@@V?$weak_ptr@VRawImageData@@@2@U?$less@V?$basic_string@DU?$char_traits@D@std@@V?$allocator@D@2@@std@@@2@V?$allocator@U?$pair@$$CBV?$basic_string@DU?$char_traits@D@std@@V?$allocator@D@2@@std@@V?$weak_ptr@VRawImageData@@@2@@std@@@2@$0A@@std@@@std@@QAEPAU?$_Tree_node@U?$pair@$$CBV?$basic_string@DU?$char_traits@D@std@@V?$allocator@D@2@@std@@V?$weak_ptr@VRawImageData@@@2@@std@@PAX@2@XZ$2 00400000     JasonsDemoA.obj
 0002:fffc3000       __ehfuncinfo$??1?$_Tree_comp_alloc@V?$_Tmap_traits@V?$basic_string@DU?$char_traits@D@std@@V?$allocator@D@2@@std@@V?$weak_ptr@VRawImageData@@@2@U?$less@V?$basic_string@DU?$char_traits@D@std@@V?$allocator@D@2@@std@@@2@V?$allocator@U?$pair@$$CBV?$basic_string@DU?$char_traits@D@std@@V?$allocator@D@2@@std@@V?$weak_ptr@VRawImageData@@@2@@std@@@2@$0A@@std@@@std@@QAE@XZ 00400000     JasonsDemoA.obj
 0002:fffc3000       __catchsym$?_Construct@?$_Tree_comp_alloc@V?$_Tmap_traits@V?$basic_string@DU?$char_traits@D@std@@V?$allocator@D@2@@std@@V?$weak_ptr@VRawImageData@@@2@U?$less@V?$basic_string@DU?$char_traits@D@std@@V?$allocator@D@2@@std@@@2@V?$allocator@U?$pair@$$CBV?$basic_string@DU?$char_traits@D@std@@V?$allocator@D@2@@std@@V?$weak_ptr@VRawImageData@@@2@@std@@@2@$0A@@std@@@std@@QAEXXZ$2 00400000     JasonsDemoA.obj
 0002:fffc3000       __ehfuncinfo$??1?$shared_ptr@VRawImageData@@@std@@QAE@XZ 00400000     JasonsDemoA.obj
 0002:fffc3000       __ehfuncinfo$??0?$shared_ptr@VRawImageData@@@std@@QAE@$$QAV01@@Z 00400000     JasonsDemoA.obj
 0002:fffc3000       __ehfuncinfo$??0?$shared_ptr@VRawImageData@@@std@@QAE@ABV01@@Z 00400000     JasonsDemoA.obj
 0002:fffc3000       __unwindtable$?loadImage@RawImageData@@QAE_NV?$basic_string@DU?$char_traits@D@std@@V?$allocator@D@2@@std@@HHHHH_N@Z 00400000     JasonsDemoA.obj
 0002:fffc3000       __ehfuncinfo$??1RawImageData@@QAE@XZ 00400000     JasonsDemoA.obj
 0002:fffc3000       __unwindtable$??0RawImageData@@QAE@V?$basic_string@DU?$char_traits@D@std@@V?$allocator@D@2@@std@@@Z 00400000     JasonsDemoA.obj
 0002:fffc3000       __unwindtable$?_Orphan_range@?$vector@PAVDisplayableObject@@V?$allocator@PAVDisplayableObject@@@std@@@std@@ABEXPAPAVDisplayableObject@@0@Z 00400000     JasonsDemoA.obj
 0002:fffc3000       __ehfuncinfo$?end@?$vector@PAVDisplayableObject@@V?$allocator@PAVDisplayableObject@@@std@@@std@@QBE?AV?$_Vector_const_iterator@V?$_Vector_val@U?$_Simple_types@PAVDisplayableObject@@@std@@@std@@@2@XZ 00400000     JasonsDemoA.obj
 0002:fffc3000       __ehfuncinfo$?begin@?$vector@PAVDisplayableObject@@V?$allocator@PAVDisplayableObject@@@std@@@std@@QBE?AV?$_Vector_const_iterator@V?$_Vector_val@U?$_Simple_types@PAVDisplayableObject@@@std@@@std@@@2@XZ 00400000     JasonsDemoA.obj
 0002:fffc3000       __catchsym$??$?6U?$char_traits@D@std@@@std@@YAAAV?$basic_ostream@DU?$char_traits@D@std@@@0@AAV10@PBD@Z$3 00400000     JasonsDemoA.obj
 0002:fffc3000       __ehfuncinfo$?_Use_count@_Ref_count_base@std@@QBEJXZ 00400000     JasonsDemoA.obj
 0002:fffc3000       __ehfuncinfo$?compare@?$basic_string@DU?$char_traits@D@std@@V?$allocator@D@2@@std@@QBEHABV12@@Z 00400000     JasonsDemoA.obj
 0002:fffc3000       __ehfuncinfo$?data@?$basic_string@DU?$char_traits@D@std@@V?$allocator@D@2@@std@@QBEPBDXZ 00400000     JasonsDemoA.obj
 0002:fffc3000       __ehfuncinfo$?c_str@?$basic_string@DU?$char_traits@D@std@@V?$allocator@D@2@@std@@QBEPBDXZ 00400000     JasonsDemoA.obj
 0002:fffc3000       __ehfuncinfo$??1?$basic_string@DU?$char_traits@D@std@@V?$allocator@D@2@@std@@QAE@XZ 00400000     JasonsDemoA.obj
 0002:fffc3000       __ehfuncinfo$?_Assign_rv_contents_with_alloc_always_equal@?$basic_string@DU?$char_traits@D@std@@V?$allocator@D@2@@std@@QAEX$$QAV12@U?$integral_constant@_N$00@2@@Z 00400000     JasonsDemoA.obj
 0002:fffc3000       __ehfuncinfo$??0?$basic_string@DU?$char_traits@D@std@@V?$allocator@D@2@@std@@QAE@$$QAV01@@Z 00400000     JasonsDemoA.obj
 0002:fffc3000       __unwindtable$??0?$basic_string@DU?$char_traits@D@std@@V?$allocator@D@2@@std@@QAE@QBD@Z 00400000     JasonsDemoA.obj
 0002:fffc3000       __unwindtable$??0?$basic_string@DU?$char_traits@D@std@@V?$allocator@D@2@@std@@QAE@ABV01@@Z 00400000     JasonsDemoA.obj
 0002:fffc3000       __ehfuncinfo$??1?$_String_alloc@U?$_String_base_types@DV?$allocator@D@std@@@std@@@std@@QAE@XZ 00400000     JasonsDemoA.obj
 0002:fffc3000       __unwindtable$??0?$_String_alloc@U?$_String_base_types@DV?$allocator@D@std@@@std@@@std@@QAE@XZ 00400000     JasonsDemoA.obj
 0002:fffc3000       __ehfuncinfo$?_Adopt@_Iterator_base12@std@@QAEXPBU_Container_base12@2@@Z 00400000     JasonsDemoA.obj
 0002:fffc3000       __ehfuncinfo$??1_Iterator_base12@std@@QAE@XZ 00400000     JasonsDemoA.obj
 0001:fffff000       __ehhandler$?clear@?$_Tree@V?$_Tmap_traits@V?$basic_string@DU?$char_traits@D@std@@V?$allocator@D@2@@std@@V?$weak_ptr@VRawImageData@@@2@U?$less@V?$basic_string@DU?$char_traits@D@std@@V?$allocator@D@2@@std@@@2@V?$allocator@U?$pair@$$CBV?$basic_string@DU?$char_traits@D@std@@V?$allocator@D@2@@std@@V?$weak_ptr@VRawImageData@@@2@@std@@@2@$0A@@std@@@std@@QAEXXZ 00400000 f   PlayingCardsDemo.obj
 0001:fffff000       __unwindfunclet$??0?$_String_alloc@U?$_String_base_types@DV?$allocator@D@std@@@std@@@std@@QAE@XZ$0 00400000 f   PlayingCardsDemo.obj
 0001:fffff000       __unwindfunclet$?find@?$_Tree@V?$_Tmap_traits@V?$basic_string@DU?$char_traits@D@std@@V?$allocator@D@2@@std@@V?$weak_ptr@VRawImageData@@@2@U?$less@V?$basic_string@DU?$char_traits@D@std@@V?$allocator@D@2@@std@@@2@V?$allocator@U?$pair@$$CBV?$basic_string@DU?$char_traits@D@std@@V?$allocator@D@2@@std@@V?$weak_ptr@VRawImageData@@@2@@std@@@2@$0A@@std@@@std@@QAE?AV?$_Tree_iterator@V?$_Tree_val@U?$_Tree_simple_types@U?$pair@$$CBV?$basic_string@DU?$char_traits@D@std@@V?$allocator@D@2@@std@@V?$weak_ptr@VRawImageData@@@2@@std@@@std@@@std@@@2@ABV?$basic_string@DU?$char_traits@D@std@@V?$allocator@D@2@@2@@Z$0 00400000 f   PlayingCardsDemo.obj
 0001:fffff000       __ehhandler$?_Adopt@_Iterator_base12@std@@QAEXPBU_Container_base12@2@@Z 00400000 f   PlayingCardsDemo.obj
 0001:fffff000       __ehhandler$??1_Iterator_base12@std@@QAE@XZ 00400000 f   PlayingCardsDemo.obj
 0001:fffff000       __unwindfunclet$?_Orphan_ptr@?$_Tree@V?$_Tmap_traits@V?$basic_string@DU?$char_traits@D@std@@V?$allocator@D@2@@std@@V?$weak_ptr@VRawImageData@@@2@U?$less@V?$basic_string@DU?$char_traits@D@std@@V?$allocator@D@2@@std@@@2@V?$allocator@U?$pair@$$CBV?$basic_string@DU?$char_traits@D@std@@V?$allocator@D@2@@std@@V?$weak_ptr@VRawImageData@@@2@@std@@@2@$0A@@std@@@std@@IAEXPAU?$_Tree_node@U?$pair@$$CBV?$basic_string@DU?$char_traits@D@std@@V?$allocator@D@2@@std@@V?$weak_ptr@VRawImageData@@@2@@std@@PAX@2@@Z$0 00400000 f   PlayingCardsDemo.obj
 0001:fffff000       __ehhandler$??4_Iterator_base12@std@@QAEAAU01@ABU01@@Z 00400000 f   PlayingCardsDemo.obj
 0001:fffff000       __unwindfunclet$?_Tidy@?$_Tree@V?$_Tmap_traits@V?$basic_string@DU?$char_traits@D@std@@V?$allocator@D@2@@std@@V?$weak_ptr@VRawImageData@@@2@U?$less@V?$basic_string@DU?$char_traits@D@std@@V?$allocator@D@2@@std@@@2@V?$allocator@U?$pair@$$CBV?$basic_string@DU?$char_traits@D@std@@V?$allocator@D@2@@std@@V?$weak_ptr@VRawImageData@@@2@@std@@@2@$0A@@std@@@std@@IAEXXZ$0 00400000 f   PlayingCardsDemo.obj
 0001:fffff000       __ehhandler$?_Swap_all@_Container_base12@std@@QAEXAAU12@@Z 00400000 f   PlayingCardsDemo.obj
 0001:fffff000       __ehhandler$?_Construct@?$_Tree_comp_alloc@V?$_Tmap_traits@V?$basic_string@DU?$char_traits@D@std@@V?$allocator@D@2@@std@@V?$shared_ptr@VRawImageData@@@2@U?$less@V?$basic_string@DU?$char_traits@D@std@@V?$allocator@D@2@@std@@@2@V?$allocator@U?$pair@$$CBV?$basic_string@DU?$char_traits@D@std@@V?$allocator@D@2@@std@@V?$shared_ptr@VRawImageData@@@2@@std@@@2@$0A@@std@@@std@@QAEXXZ 00400000 f   PlayingCardsDemo.obj
 0001:fffff000       __ehhandler$?_Orphan_all@_Container_base12@std@@QAEXXZ 00400000 f   PlayingCardsDemo.obj
 0001:fffff000       __ehhandler$??1?$_Tree_comp_alloc@V?$_Tmap_traits@V?$basic_string@DU?$char_traits@D@std@@V?$allocator@D@2@@std@@V?$shared_ptr@VRawImageData@@@2@U?$less@V?$basic_string@DU?$char_traits@D@std@@V?$allocator@D@2@@std@@@2@V?$allocator@U?$pair@$$CBV?$basic_string@DU?$char_traits@D@std@@V?$allocator@D@2@@std@@V?$shared_ptr@VRawImageData@@@2@@std@@@2@$0A@@std@@@std@@QAE@XZ 00400000 f   PlayingCardsDemo.obj
 0001:fffff000       __ehhandler$?_Buyheadnode@?$_Tree_comp_alloc@V?$_Tmap_traits@V?$basic_string@DU?$char_traits@D@std@@V?$allocator@D@2@@std@@V?$shared_ptr@VRawImageData@@@2@U?$less@V?$basic_string@DU?$char_traits@D@std@@V?$allocator@D@2@@std@@@2@V?$allocator@U?$pair@$$CBV?$basic_string@DU?$char_traits@D@std@@V?$allocator@D@2@@std@@V?$shared_ptr@VRawImageData@@@2@@std@@@2@$0A@@std@@@std@@QAEPAU?$_Tree_node@U?$pair@$$CBV?$basic_string@DU?$char_traits@D@std@@V?$allocator@D@2@@std@@V?$shared_ptr@VRawImageData@@@2@@std@@PAX@2@XZ 00400000 f   PlayingCardsDemo.obj
 0002:fffc3000       __catchsym$??$_Insert_nohint@AAU?$pair@$$CBV?$basic_string@DU?$char_traits@D@std@@V?$allocator@D@2@@std@@V?$shared_ptr@VRawImageData@@@2@@std@@PAU?$_Tree_node@U?$pair@$$CBV?$basic_string@DU?$char_traits@D@std@@V?$allocator@D@2@@std@@V?$shared_ptr@VRawImageData@@@2@@std@@PAX@2@@?$_Tree@V?$_Tmap_traits@V?$basic_string@DU?$char_traits@D@std@@V?$allocator@D@2@@std@@V?$shared_ptr@VRawImageData@@@2@U?$less@V?$basic_string@DU?$char_traits@D@std@@V?$allocator@D@2@@std@@@2@V?$allocator@U?$pair@$$CBV?$basic_string@DU?$char_traits@D@std@@V?$allocator@D@2@@std@@V?$shared_ptr@VRawImageData@@@2@@std@@@2@$0A@@std@@@std@@IAE?AU?$pair@V?$_Tree_iterator@V?$_Tree_val@U?$_Tree_simple_types@U?$pair@$$CBV?$basic_string@DU?$char_traits@D@std@@V?$allocator@D@2@@std@@V?$shared_ptr@VRawImageData@@@2@@std@@@std@@@std@@@std@@_N@1@_NAAU?$pair@$$CBV?$basic_string@DU?$char_traits@D@std@@V?$allocator@D@2@@std@@V?$shared_ptr@VRawImageData@@@2@@1@PAU?$_Tree_node@U?$pair@$$CBV?$basic_string@DU?$char_traits@D@std@@V?$allocator@D@2@@std@@V?$shared_ptr@VRawImageData@@@2@@std@@PAX@1@@Z$8 00400000     JasonsDemoA.obj
 0001:fffff000       __ehhandler$?_Buynode0@?$_Tree_comp_alloc@V?$_Tmap_traits@V?$basic_string@DU?$char_traits@D@std@@V?$allocator@D@2@@std@@V?$shared_ptr@VRawImageData@@@2@U?$less@V?$basic_string@DU?$char_traits@D@std@@V?$allocator@D@2@@std@@@2@V?$allocator@U?$pair@$$CBV?$basic_string@DU?$char_traits@D@std@@V?$allocator@D@2@@std@@V?$shared_ptr@VRawImageData@@@2@@std@@@2@$0A@@std@@@std@@QAEPAU?$_Tree_node@U?$pair@$$CBV?$basic_string@DU?$char_traits@D@std@@V?$allocator@D@2@@std@@V?$shared_ptr@VRawImageData@@@2@@std@@PAX@2@XZ 00400000 f   PlayingCardsDemo.obj
 0002:fffc3000       __catchsym$??$_Buynode@U?$pair@V?$basic_string@DU?$char_traits@D@std@@V?$allocator@D@2@@std@@V?$shared_ptr@VRawImageData@@@2@@std@@@?$_Tree_comp_alloc@V?$_Tmap_traits@V?$basic_string@DU?$char_traits@D@std@@V?$allocator@D@2@@std@@V?$shared_ptr@VRawImageData@@@2@U?$less@V?$basic_string@DU?$char_traits@D@std@@V?$allocator@D@2@@std@@@2@V?$allocator@U?$pair@$$CBV?$basic_string@DU?$char_traits@D@std@@V?$allocator@D@2@@std@@V?$shared_ptr@VRawImageData@@@2@@std@@@2@$0A@@std@@@std@@QAEPAU?$_Tree_node@U?$pair@$$CBV?$basic_string@DU?$char_traits@D@std@@V?$allocator@D@2@@std@@V?$shared_ptr@VRawImageData@@@2@@std@@PAX@1@$$QAU?$pair@V?$basic_string@DU?$char_traits@D@std@@V?$allocator@D@2@@std@@V?$shared_ptr@VRawImageData@@@2@@1@@Z$2 00400000     JasonsDemoA.obj
 0002:fffc3000       __catchsym$??$_Insert_nohint@AAU?$pair@$$CBV?$basic_string@DU?$char_traits@D@std@@V?$allocator@D@2@@std@@V?$weak_ptr@VRawImageData@@@2@@std@@PAU?$_Tree_node@U?$pair@$$CBV?$basic_string@DU?$char_traits@D@std@@V?$allocator@D@2@@std@@V?$weak_ptr@VRawImageData@@@2@@std@@PAX@2@@?$_Tree@V?$_Tmap_traits@V?$basic_string@DU?$char_traits@D@std@@V?$allocator@D@2@@std@@V?$weak_ptr@VRawImageData@@@2@U?$less@V?$basic_string@DU?$char_traits@D@std@@V?$allocator@D@2@@std@@@2@V?$allocator@U?$pair@$$CBV?$basic_string@DU?$char_traits@D@std@@V?$allocator@D@2@@std@@V?$weak_ptr@VRawImageData@@@2@@std@@@2@$0A@@std@@@std@@IAE?AU?$pair@V?$_Tree_iterator@V?$_Tree_val@U?$_Tree_simple_types@U?$pair@$$CBV?$basic_string@DU?$char_traits@D@std@@V?$allocator@D@2@@std@@V?$weak_ptr@VRawImageData@@@2@@std@@@std@@@std@@@std@@_N@1@_NAAU?$pair@$$CBV?$basic_string@DU?$char_traits@D@std@@V?$allocator@D@2@@std@@V?$weak_ptr@VRawImageData@@@2@@1@PAU?$_Tree_node@U?$pair@$$CBV?$basic_string@DU?$char_traits@D@std@@V?$allocator@D@2@@std@@V?$weak_ptr@VRawImageData@@@2@@std@@PAX@1@@Z$8 00400000     JasonsDemoA.obj
 0001:fffff000       __unwindfunclet$?_Extract@?$_Tree_val@U?$_Tree_simple_types@U?$pair@$$CBV?$basic_string@DU?$char_traits@D@std@@V?$allocator@D@2@@std@@V?$shared_ptr@VRawImageData@@@2@@std@@@std@@@std@@QAEPAU?$_Tree_node@U?$pair@$$CBV?$basic_string@DU?$char_traits@D@std@@V?$allocator@D@2@@std@@V?$shared_ptr@VRawImageData@@@2@@std@@PAX@2@V?$_Tree_const_iterator@V?$_Tree_val@U?$_Tree_simple_types@U?$pair@$$CBV?$basic_string@DU?$char_traits@D@std@@V?$allocator@D@2@@std@@V?$shared_ptr@VRawImageData@@@2@@std@@@std@@@std@@@2@@Z$0 00400000 f   PlayingCardsDemo.obj
 0001:fffff000       __ehhandler$??1?$_Tree@V?$_Tmap_traits@V?$basic_string@DU?$char_traits@D@std@@V?$allocator@D@2@@std@@V?$shared_ptr@VRawImageData@@@2@U?$less@V?$basic_string@DU?$char_traits@D@std@@V?$allocator@D@2@@std@@@2@V?$allocator@U?$pair@$$CBV?$basic_string@DU?$char_traits@D@std@@V?$allocator@D@2@@std@@V?$shared_ptr@VRawImageData@@@2@@std@@@2@$0A@@std@@@std@@QAE@XZ 00400000 f   PlayingCardsDemo.obj
 0001:fffff000       __ehhandler$?begin@?$_Tree@V?$_Tmap_traits@V?$basic_string@DU?$char_traits@D@std@@V?$allocator@D@2@@std@@V?$shared_ptr@VRawImageData@@@2@U?$less@V?$basic_string@DU?$char_traits@D@std@@V?$allocator@D@2@@std@@@2@V?$allocator@U?$pair@$$CBV?$basic_string@DU?$char_traits@D@std@@V?$allocator@D@2@@std@@V?$shared_ptr@VRawImageData@@@2@@std@@@2@$0A@@std@@@std@@QAE?AV?$_Tree_iterator@V?$_Tree_val@U?$_Tree_simple_types@U?$pair@$$CBV?$basic_string@DU?$char_traits@D@std@@V?$allocator@D@2@@std@@V?$shared_ptr@VRawImageData@@@2@@std@@@std@@@std@@@2@XZ 00400000 f   PlayingCardsDemo.obj
 0001:fffff000       __ehhandler$?end@?$_Tree@V?$_Tmap_traits@V?$basic_string@DU?$char_traits@D@std@@V?$allocator@D@2@@std@@V?$shared_ptr@VRawImageData@@@2@U?$less@V?$basic_string@DU?$char_traits@D@std@@V?$allocator@D@2@@std@@@2@V?$allocator@U?$pair@$$CBV?$basic_string@DU?$char_traits@D@std@@V?$allocator@D@2@@std@@V?$shared_ptr@VRawImageData@@@2@@std@@@2@$0A@@std@@@std@@QAE?AV?$_Tree_iterator@V?$_Tree_val@U?$_Tree_simple_types@U?$pair@$$CBV?$basic_string@DU?$char_traits@D@std@@V?$allocator@D@2@@std@@V?$shared_ptr@VRawImageData@@@2@@std@@@std@@@std@@@2@XZ 00400000 f   PlayingCardsDemo.obj
 0002:fffc3000       __catchsym$??$_Buynode@U?$pair@V?$basic_string@DU?$char_traits@D@std@@V?$allocator@D@2@@std@@V?$weak_ptr@VRawImageData@@@2@@std@@@?$_Tree_comp_alloc@V?$_Tmap_traits@V?$basic_string@DU?$char_traits@D@std@@V?$allocator@D@2@@std@@V?$weak_ptr@VRawImageData@@@2@U?$less@V?$basic_string@DU?$char_traits@D@std@@V?$allocator@D@2@@std@@@2@V?$allocator@U?$pair@$$CBV?$basic_string@DU?$char_traits@D@std@@V?$allocator@D@2@@std@@V?$weak_ptr@VRawImageData@@@2@@std@@@2@$0A@@std@@@std@@QAEPAU?$_Tree_node@U?$pair@$$CBV?$basic_string@DU?$char_traits@D@std@@V?$allocator@D@2@@std@@V?$weak_ptr@VRawImageData@@@2@@std@@PAX@1@$$QAU?$pair@V?$basic_string@DU?$char_traits@D@std@@V?$allocator@D@2@@std@@V?$weak_ptr@VRawImageData@@@2@@1@@Z$2 00400000     JasonsDemoA.obj
 0001:fffff000       __unwindfunclet$?erase@?$_Tree@V?$_Tmap_traits@V?$basic_string@DU?$char_traits@D@std@@V?$allocator@D@2@@std@@V?$shared_ptr@VRawImageData@@@2@U?$less@V?$basic_string@DU?$char_traits@D@std@@V?$allocator@D@2@@std@@@2@V?$allocator@U?$pair@$$CBV?$basic_string@DU?$char_traits@D@std@@V?$allocator@D@2@@std@@V?$shared_ptr@VRawImageData@@@2@@std@@@2@$0A@@std@@@std@@QAE?AV?$_Tree_iterator@V?$_Tree_val@U?$_Tree_simple_types@U?$pair@$$CBV?$basic_string@DU?$char_traits@D@std@@V?$allocator@D@2@@std@@V?$shared_ptr@VRawImageData@@@2@@std@@@std@@@std@@@2@V?$_Tree_const_iterator@V?$_Tree_val@U?$_Tree_simple_types@U?$pair@$$CBV?$basic_string@DU?$char_traits@D@std@@V?$allocator@D@2@@std@@V?$shared_ptr@VRawImageData@@@2@@std@@@std@@@std@@@2@@Z$0 00400000 f   PlayingCardsDemo.obj
 0002:fffc3000       __catchsym$??$_Insert_string@DU?$char_traits@D@std@@I@std@@YAAAV?$basic_ostream@DU?$char_traits@D@std@@@0@AAV10@QBDI@Z$3 00400000     JasonsDemoA.obj
 0002:fffc3000       __catchsym$??$_Setp@VRawImageData@@@?$shared_ptr@VRawImageData@@@std@@AAEXPAVRawImageData@@U?$integral_constant@_N$0A@@1@@Z$3 00400000     JasonsDemoA.obj
 0001:fffff000       __unwindfunclet$?erase@?$_Tree@V?$_Tmap_traits@V?$basic_string@DU?$char_traits@D@std@@V?$allocator@D@2@@std@@V?$shared_ptr@VRawImageData@@@2@U?$less@V?$basic_string@DU?$char_traits@D@std@@V?$allocator@D@2@@std@@@2@V?$allocator@U?$pair@$$CBV?$basic_string@DU?$char_traits@D@std@@V?$allocator@D@2@@std@@V?$shared_ptr@VRawImageData@@@2@@std@@@2@$0A@@std@@@std@@QAE?AV?$_Tree_iterator@V?$_Tree_val@U?$_Tree_simple_types@U?$pair@$$CBV?$basic_string@DU?$char_traits@D@std@@V?$allocator@D@2@@std@@V?$shared_ptr@VRawImageData@@@2@@std@@@std@@@std@@@2@V?$_Tree_const_iterator@V?$_Tree_val@U?$_Tree_simple_types@U?$pair@$$CBV?$basic_string@DU?$char_traits@D@std@@V?$allocator@D@2@@std@@V?$shared_ptr@VRawImageData@@@2@@std@@@std@@@std@@@2@0@Z$0 00400000 f   PlayingCardsDemo.obj
 0002:fffc3000       __ehfuncinfo$??1sentry@?$basic_ostream@DU?$char_traits@D@std@@@std@@QAE@XZ 00400000     JasonsDemoA.obj
 0002:fffc3000       __unwindtable$??0sentry@?$basic_ostream@DU?$char_traits@D@std@@@std@@QAE@AAV12@@Z 00400000     JasonsDemoA.obj
 0002:fffc3000       __ehfuncinfo$??1_Sentry_base@?$basic_ostream@DU?$char_traits@D@std@@@std@@QAE@XZ 00400000     JasonsDemoA.obj
 0001:fffff000       __ehhandler$?clear@?$_Tree@V?$_Tmap_traits@V?$basic_string@DU?$char_traits@D@std@@V?$allocator@D@2@@std@@V?$shared_ptr@VRawImageData@@@2@U?$less@V?$basic_string@DU?$char_traits@D@std@@V?$allocator@D@2@@std@@@2@V?$allocator@U?$pair@$$CBV?$basic_string@DU?$char_traits@D@std@@V?$allocator@D@2@@std@@V?$shared_ptr@VRawImageData@@@2@@std@@@2@$0A@@std@@@std@@QAEXXZ 00400000 f   PlayingCardsDemo.obj
 0002:fffc3000       __ehfuncinfo$??$_Freenode0@V?$allocator@U?$_Tree_node@U?$pair@$$CBV?$basic_string@DU?$char_traits@D@std@@V?$allocator@D@2@@std@@V?$weak_ptr@VRawImageData@@@2@@std@@PAX@std@@@std@@@?$_Tree_node@U?$pair@$$CBV?$basic_string@DU?$char_traits@D@std@@V?$allocator@D@2@@std@@V?$weak_ptr@VRawImageData@@@2@@std@@PAX@std@@SAXAAV?$allocator@U?$_Tree_node@U?$pair@$$CBV?$basic_string@DU?$char_traits@D@std@@V?$allocator@D@2@@std@@V?$weak_ptr@VRawImageData@@@2@@std@@PAX@std@@@1@PAU01@@Z 00400000     JasonsDemoA.obj
 0001:fffff000       __unwindfunclet$?_Orphan_ptr@?$_Tree@V?$_Tmap_traits@V?$basic_string@DU?$char_traits@D@std@@V?$allocator@D@2@@std@@V?$shared_ptr@VRawImageData@@@2@U?$less@V?$basic_string@DU?$char_traits@D@std@@V?$allocator@D@2@@std@@@2@V?$allocator@U?$pair@$$CBV?$basic_string@DU?$char_traits@D@std@@V?$allocator@D@2@@std@@V?$shared_ptr@VRawImageData@@@2@@std@@@2@$0A@@std@@@std@@IAEXPAU?$_Tree_node@U?$pair@$$CBV?$basic_string@DU?$char_traits@D@std@@V?$allocator@D@2@@std@@V?$shared_ptr@VRawImageData@@@2@@std@@PAX@2@@Z$0 00400000 f   PlayingCardsDemo.obj
 0002:fffc3000       __ehfuncinfo$??$_Freenode0@V?$allocator@U?$_Tree_node@U?$pair@$$CBV?$basic_string@DU?$char_traits@D@std@@V?$allocator@D@2@@std@@V?$shared_ptr@VRawImageData@@@2@@std@@PAX@std@@@std@@@?$_Tree_node@U?$pair@$$CBV?$basic_string@DU?$char_traits@D@std@@V?$allocator@D@2@@std@@V?$shared_ptr@VRawImageData@@@2@@std@@PAX@std@@SAXAAV?$allocator@U?$_Tree_node@U?$pair@$$CBV?$basic_string@DU?$char_traits@D@std@@V?$allocator@D@2@@std@@V?$shared_ptr@VRawImageData@@@2@@std@@PAX@std@@@1@PAU01@@Z 00400000     JasonsDemoA.obj
 0001:fffff000       __unwindfunclet$?_Tidy@?$_Tree@V?$_Tmap_traits@V?$basic_string@DU?$char_traits@D@std@@V?$allocator@D@2@@std@@V?$shared_ptr@VRawImageData@@@2@U?$less@V?$basic_string@DU?$char_traits@D@std@@V?$allocator@D@2@@std@@@2@V?$allocator@U?$pair@$$CBV?$basic_string@DU?$char_traits@D@std@@V?$allocator@D@2@@std@@V?$shared_ptr@VRawImageData@@@2@@std@@@2@$0A@@std@@@std@@IAEXXZ$0 00400000 f   PlayingCardsDemo.obj
 0002:fffc3000       __unwindtable$??$?0V?$allocator@D@std@@X@?$_String_alloc@U?$_String_base_types@DV?$allocator@D@std@@@std@@@std@@QAE@$$QAV?$allocator@D@1@@Z 00400000     JasonsDemoA.obj
 0002:fffc3000       __catchsym$??$_Resize@V<lambda_2afd52570c452b238925c6f475a76105>@@@?$vector@PAVDisplayableObject@@V?$allocator@PAVDisplayableObject@@@std@@@std@@AAEXIV<lambda_2afd52570c452b238925c6f475a76105>@@@Z$2 00400000     JasonsDemoA.obj
 0001:fffff000       __unwindfunclet$?get@ImageManager@@SAPAV1@XZ$0 00400000 f   PlayingCardsDemo.obj
 0002:fffc3000       __unwindtable$??E?$_Tree_const_iterator@V?$_Tree_val@U?$_Tree_simple_types@U?$pair@$$CBV?$basic_string@DU?$char_traits@D@std@@V?$allocator@D@2@@std@@V?$shared_ptr@VRawImageData@@@2@@std@@@std@@@std@@@std@@QAE?AV01@H@Z 00400000     JasonsDemoA.obj
 0001:fffff000       __unwindfunclet$??0ImageManager@@QAE@XZ$0 00400000 f   PlayingCardsDemo.obj
 0002:fffc3000       __ehfuncinfo$??$?0VRawImageData@@$0A@@?$weak_ptr@VRawImageData@@@std@@QAE@ABV?$shared_ptr@VRawImageData@@@1@@Z 00400000     JasonsDemoA.obj
 0002:fffc3000       __unwindtable$??$erase@V?$_Tree_iterator@V?$_Tree_val@U?$_Tree_simple_types@U?$pair@$$CBV?$basic_string@DU?$char_traits@D@std@@V?$allocator@D@2@@std@@V?$weak_ptr@VRawImageData@@@2@@std@@@std@@@std@@@std@@X@?$_Tree@V?$_Tmap_traits@V?$basic_string@DU?$char_traits@D@std@@V?$allocator@D@2@@std@@V?$weak_ptr@VRawImageData@@@2@U?$less@V?$basic_string@DU?$char_traits@D@std@@V?$allocator@D@2@@std@@@2@V?$allocator@U?$pair@$$CBV?$basic_string@DU?$char_traits@D@std@@V?$allocator@D@2@@std@@V?$weak_ptr@VRawImageData@@@2@@std@@@2@$0A@@std@@@std@@QAE?AV?$_Tree_iterator@V?$_Tree_val@U?$_Tree_simple_types@U?$pair@$$CBV?$basic_string@DU?$char_traits@D@std@@V?$allocator@D@2@@std@@V?$weak_ptr@VRawImageData@@@2@@std@@@std@@@std@@@1@V21@@Z 00400000     JasonsDemoA.obj
 0001:fffff000       __unwindfunclet$?getImagePtrbyURL@ImageManager@@QAE?AV?$shared_ptr@VRawImageData@@@std@@V?$basic_string@DU?$char_traits@D@std@@V?$allocator@D@2@@3@_N1@Z$0 00400000 f   PlayingCardsDemo.obj
 0002:fffc3000       __ehfuncinfo$?lock@?$weak_ptr@VRawImageData@@@std@@QBE?AV?$shared_ptr@VRawImageData@@@2@XZ 00400000     JasonsDemoA.obj
 0002:fffc3000       __ehfuncinfo$??1?$weak_ptr@VRawImageData@@@std@@QAE@XZ 00400000     JasonsDemoA.obj
 0002:fffc3000       __ehfuncinfo$??0?$weak_ptr@VRawImageData@@@std@@QAE@$$QAV01@@Z 00400000     JasonsDemoA.obj
 0002:fffc3000       __ehfuncinfo$??0?$weak_ptr@VRawImageData@@@std@@QAE@ABV01@@Z 00400000     JasonsDemoA.obj
 0002:fffc3000       __unwindtable$??E?$_Tree_const_iterator@V?$_Tree_val@U?$_Tree_simple_types@U?$pair@$$CBV?$basic_string@DU?$char_traits@D@std@@V?$allocator@D@2@@std@@V?$weak_ptr@VRawImageData@@@2@@std@@@std@@@std@@@std@@QAE?AV01@H@Z 00400000     JasonsDemoA.obj
 0002:fffc3000       __unwindtable$?loadAsNew@ImageManager@@QAE?AV?$shared_ptr@VRawImageData@@@std@@V?$basic_string@DU?$char_traits@D@std@@V?$allocator@D@2@@3@@Z 00400000     JasonsDemoA.obj
 0002:fffc3000       __unwindtable$?getImagebyURL@ImageManager@@QAE?AVSimpleImage@@V?$basic_string@DU?$char_traits@D@std@@V?$allocator@D@2@@std@@_N1@Z 00400000     JasonsDemoA.obj
 0002:fffc3000       __ehfuncinfo$?getImagePtrbyURL@ImageManager@@QAE?AV?$shared_ptr@VRawImageData@@@std@@V?$basic_string@DU?$char_traits@D@std@@V?$allocator@D@2@@3@_N1@Z 00400000     JasonsDemoA.obj
 0001:fffff000       __unwindfunclet$?getImagebyURL@ImageManager@@QAE?AVSimpleImage@@V?$basic_string@DU?$char_traits@D@std@@V?$allocator@D@2@@std@@_N1@Z$0 00400000 f   PlayingCardsDemo.obj
 0002:fffc3000       __unwindtable$??0ImageManager@@QAE@XZ 00400000     JasonsDemoA.obj
 0001:fffff000       __ehhandler$?_Buynode0@?$_Tree_comp_alloc@V?$_Tmap_traits@V?$basic_string@DU?$char_traits@D@std@@V?$allocator@D@2@@std@@V?$shared_ptr@VRawImageData@@@2@U?$less@V?$basic_string@DU?$char_traits@D@std@@V?$allocator@D@2@@std@@@2@V?$allocator@U?$pair@$$CBV?$basic_string@DU?$char_traits@D@std@@V?$allocator@D@2@@std@@V?$shared_ptr@VRawImageData@@@2@@std@@@2@$0A@@std@@@std@@QAEPAU?$_Tree_node@U?$pair@$$CBV?$basic_string@DU?$char_traits@D@std@@V?$allocator@D@2@@std@@V?$shared_ptr@VRawImageData@@@2@@std@@PAX@2@XZ 00400000 f   ImageObjectDemo.obj
 0001:fffff000       __unwindfunclet$?_Orphan_range@?$vector@PAVDisplayableObject@@V?$allocator@PAVDisplayableObject@@@std@@@std@@ABEXPAPAVDisplayableObject@@0@Z$0 00400000 f   PlayingCardsDemo.obj
 0001:fffff000       __ehhandler$?end@?$vector@PAVDisplayableObject@@V?$allocator@PAVDisplayableObject@@@std@@@std@@QBE?AV?$_Vector_const_iterator@V?$_Vector_val@U?$_Simple_types@PAVDisplayableObject@@@std@@@std@@@2@XZ 00400000 f   PlayingCardsDemo.obj
 0001:fffff000       __unwindfunclet$??E?$_Vector_iterator@V?$_Vector_val@U?$_Simple_types@PAVDisplayableObject@@@std@@@std@@@std@@QAE?AV01@H@Z$0 00400000 f   PlayingCardsDemo.obj
 0001:fffff000       __ehhandler$?end@?$vector@PAVDisplayableObject@@V?$allocator@PAVDisplayableObject@@@std@@@std@@QAE?AV?$_Vector_iterator@V?$_Vector_val@U?$_Simple_types@PAVDisplayableObject@@@std@@@std@@@2@XZ 00400000 f   PlayingCardsDemo.obj
 0001:fffff000       __unwindfunclet$??$find@V?$_Vector_iterator@V?$_Vector_val@U?$_Simple_types@PAVDisplayableObject@@@std@@@std@@@std@@PAVDisplayableObject@@@std@@YA?AV?$_Vector_iterator@V?$_Vector_val@U?$_Simple_types@PAVDisplayableObject@@@std@@@std@@@0@V10@V10@ABQAVDisplayableObject@@@Z$0 00400000 f   PlayingCardsDemo.obj
 0001:fffff000       __ehhandler$?begin@?$vector@PAVDisplayableObject@@V?$allocator@PAVDisplayableObject@@@std@@@std@@QBE?AV?$_Vector_const_iterator@V?$_Vector_val@U?$_Simple_types@PAVDisplayableObject@@@std@@@std@@@2@XZ 00400000 f   PlayingCardsDemo.obj
 0001:fffff000       __ehhandler$?begin@?$vector@PAVDisplayableObject@@V?$allocator@PAVDisplayableObject@@@std@@@std@@QAE?AV?$_Vector_iterator@V?$_Vector_val@U?$_Simple_types@PAVDisplayableObject@@@std@@@std@@@2@XZ 00400000 f   PlayingCardsDemo.obj
 0001:fffff000       __unwindfunclet$?erase@?$vector@PAVDisplayableObject@@V?$allocator@PAVDisplayableObject@@@std@@@std@@QAE?AV?$_Vector_iterator@V?$_Vector_val@U?$_Simple_types@PAVDisplayableObject@@@std@@@std@@@2@V?$_Vector_const_iterator@V?$_Vector_val@U?$_Simple_types@PAVDisplayableObject@@@std@@@std@@@2@@Z$0 00400000 f   PlayingCardsDemo.obj
 0001:fffff000       __ehhandler$??1?$vector@PAVDisplayableObject@@V?$allocator@PAVDisplayableObject@@@std@@@std@@QAE@XZ 00400000 f   PlayingCardsDemo.obj
 0001:fffff000       __unwindfunclet$??0?$vector@PAVDisplayableObject@@V?$allocator@PAVDisplayableObject@@@std@@@std@@QAE@IABV?$allocator@PAVDisplayableObject@@@1@@Z$2 00400000 f   PlayingCardsDemo.obj
 0001:fffff000       __ehhandler$??1?$_Vector_alloc@U?$_Vec_base_types@PAVDisplayableObject@@V?$allocator@PAVDisplayableObject@@@std@@@std@@@std@@QAE@XZ 00400000 f   PlayingCardsDemo.obj
 0001:fffff000       __unwindfunclet$?moveToLast@DisplayableObjectContainer@@QAE_NPAVDisplayableObject@@@Z$2 00400000 f   PlayingCardsDemo.obj
 0001:fffff000       __ehhandler$??1DisplayableObjectContainer@@UAE@XZ 00400000 f   PlayingCardsDemo.obj
 0001:fffff000       __unwindfunclet$??0RawImageData@@QAE@V?$basic_string@DU?$char_traits@D@std@@V?$allocator@D@2@@std@@@Z$0 00400000 f   PlayingCardsDemo.obj
 0001:fffff000       __ehhandler$??1RawImageData@@QAE@XZ 00400000 f   PlayingCardsDemo.obj
 0001:fffff000       __unwindfunclet$??$?6U?$char_traits@D@std@@@std@@YAAAV?$basic_ostream@DU?$char_traits@D@std@@@0@AAV10@PBD@Z$2 00400000 f   PlayingCardsDemo.obj
 0001:fffff000       __unwindfunclet$?loadImage@RawImageData@@QAE_NV?$basic_string@DU?$char_traits@D@std@@V?$allocator@D@2@@std@@HHHHH_N@Z$0 00400000 f   PlayingCardsDemo.obj
 0001:fffff000       __ehhandler$??0?$shared_ptr@VRawImageData@@@std@@QAE@ABV01@@Z 00400000 f   PlayingCardsDemo.obj
 0001:fffff000       __ehhandler$??0?$shared_ptr@VRawImageData@@@std@@QAE@$$QAV01@@Z 00400000 f   PlayingCardsDemo.obj
 0001:fffff000       __ehhandler$??1?$shared_ptr@VRawImageData@@@std@@QAE@XZ 00400000 f   PlayingCardsDemo.obj
 0001:fffff000       __ehhandler$?_Construct@?$_Tree_comp_alloc@V?$_Tmap_traits@V?$basic_string@DU?$char_traits@D@std@@V?$allocator@D@2@@std@@V?$weak_ptr@VRawImageData@@@2@U?$less@V?$basic_string@DU?$char_traits@D@std@@V?$allocator@D@2@@std@@@2@V?$allocator@U?$pair@$$CBV?$basic_string@DU?$char_traits@D@std@@V?$allocator@D@2@@std@@V?$weak_ptr@VRawImageData@@@2@@std@@@2@$0A@@std@@@std@@QAEXXZ 00400000 f   PlayingCardsDemo.obj
 0001:fffff000       __ehhandler$?_Use_count@_Ref_count_base@std@@QBEJXZ 00400000 f   PlayingCardsDemo.obj
 0001:fffff000       __ehhandler$??1?$_Tree_comp_alloc@V?$_Tmap_traits@V?$basic_string@DU?$char_traits@D@std@@V?$allocator@D@2@@std@@V?$weak_ptr@VRawImageData@@@2@U?$less@V?$basic_string@DU?$char_traits@D@std@@V?$allocator@D@2@@std@@@2@V?$allocator@U?$pair@$$CBV?$basic_string@DU?$char_traits@D@std@@V?$allocator@D@2@@std@@V?$weak_ptr@VRawImageData@@@2@@std@@@2@$0A@@std@@@std@@QAE@XZ 00400000 f   PlayingCardsDemo.obj
 0001:fffff000       __ehhandler$?_Buyheadnode@?$_Tree_comp_alloc@V?$_Tmap_traits@V?$basic_string@DU?$char_traits@D@std@@V?$allocator@D@2@@std@@V?$weak_ptr@VRawImageData@@@2@U?$less@V?$basic_string@DU?$char_traits@D@std@@V?$allocator@D@2@@std@@@2@V?$allocator@U?$pair@$$CBV?$basic_string@DU?$char_traits@D@std@@V?$allocator@D@2@@std@@V?$weak_ptr@VRawImageData@@@2@@std@@@2@$0A@@std@@@std@@QAEPAU?$_Tree_node@U?$pair@$$CBV?$basic_string@DU?$char_traits@D@std@@V?$allocator@D@2@@std@@V?$weak_ptr@VRawImageData@@@2@@std@@PAX@2@XZ 00400000 f   PlayingCardsDemo.obj
 0001:fffff000       __ehhandler$?compare@?$basic_string@DU?$char_traits@D@std@@V?$allocator@D@2@@std@@QBEHABV12@@Z 00400000 f   PlayingCardsDemo.obj
 0001:fffff000       __ehhandler$?_Buynode0@?$_Tree_comp_alloc@V?$_Tmap_traits@V?$basic_string@DU?$char_traits@D@std@@V?$allocator@D@2@@std@@V?$weak_ptr@VRawImageData@@@2@U?$less@V?$basic_string@DU?$char_traits@D@std@@V?$allocator@D@2@@std@@@2@V?$allocator@U?$pair@$$CBV?$basic_string@DU?$char_traits@D@std@@V?$allocator@D@2@@std@@V?$weak_ptr@VRawImageData@@@2@@std@@@2@$0A@@std@@@std@@QAEPAU?$_Tree_node@U?$pair@$$CBV?$basic_string@DU?$char_traits@D@std@@V?$allocator@D@2@@std@@V?$weak_ptr@VRawImageData@@@2@@std@@PAX@2@XZ 00400000 f   PlayingCardsDemo.obj
 0001:fffff000       __ehhandler$?data@?$basic_string@DU?$char_traits@D@std@@V?$allocator@D@2@@std@@QBEPBDXZ 00400000 f   PlayingCardsDemo.obj
 0001:fffff000       __ehhandler$?c_str@?$basic_string@DU?$char_traits@D@std@@V?$allocator@D@2@@std@@QBEPBDXZ 00400000 f   PlayingCardsDemo.obj
 0001:fffff000       __unwindfunclet$?_Extract@?$_Tree_val@U?$_Tree_simple_types@U?$pair@$$CBV?$basic_string@DU?$char_traits@D@std@@V?$allocator@D@2@@std@@V?$weak_ptr@VRawImageData@@@2@@std@@@std@@@std@@QAEPAU?$_Tree_node@U?$pair@$$CBV?$basic_string@DU?$char_traits@D@std@@V?$allocator@D@2@@std@@V?$weak_ptr@VRawImageData@@@2@@std@@PAX@2@V?$_Tree_const_iterator@V?$_Tree_val@U?$_Tree_simple_types@U?$pair@$$CBV?$basic_string@DU?$char_traits@D@std@@V?$allocator@D@2@@std@@V?$weak_ptr@VRawImageData@@@2@@std@@@std@@@std@@@2@@Z$0 00400000 f   PlayingCardsDemo.obj
 0001:fffff000       __ehhandler$??1?$_Tree@V?$_Tmap_traits@V?$basic_string@DU?$char_traits@D@std@@V?$allocator@D@2@@std@@V?$weak_ptr@VRawImageData@@@2@U?$less@V?$basic_string@DU?$char_traits@D@std@@V?$allocator@D@2@@std@@@2@V?$allocator@U?$pair@$$CBV?$basic_string@DU?$char_traits@D@std@@V?$allocator@D@2@@std@@V?$weak_ptr@VRawImageData@@@2@@std@@@2@$0A@@std@@@std@@QAE@XZ 00400000 f   PlayingCardsDemo.obj
 0001:fffff000       __ehhandler$?begin@?$_Tree@V?$_Tmap_traits@V?$basic_string@DU?$char_traits@D@std@@V?$allocator@D@2@@std@@V?$weak_ptr@VRawImageData@@@2@U?$less@V?$basic_string@DU?$char_traits@D@std@@V?$allocator@D@2@@std@@@2@V?$allocator@U?$pair@$$CBV?$basic_string@DU?$char_traits@D@std@@V?$allocator@D@2@@std@@V?$weak_ptr@VRawImageData@@@2@@std@@@2@$0A@@std@@@std@@QAE?AV?$_Tree_iterator@V?$_Tree_val@U?$_Tree_simple_types@U?$pair@$$CBV?$basic_string@DU?$char_traits@D@std@@V?$allocator@D@2@@std@@V?$weak_ptr@VRawImageData@@@2@@std@@@std@@@std@@@2@XZ 00400000 f   PlayingCardsDemo.obj
 0001:fffff000       __ehhandler$?end@?$_Tree@V?$_Tmap_traits@V?$basic_string@DU?$char_traits@D@std@@V?$allocator@D@2@@std@@V?$weak_ptr@VRawImageData@@@2@U?$less@V?$basic_string@DU?$char_traits@D@std@@V?$allocator@D@2@@std@@@2@V?$allocator@U?$pair@$$CBV?$basic_string@DU?$char_traits@D@std@@V?$allocator@D@2@@std@@V?$weak_ptr@VRawImageData@@@2@@std@@@2@$0A@@std@@@std@@QAE?AV?$_Tree_iterator@V?$_Tree_val@U?$_Tree_simple_types@U?$pair@$$CBV?$basic_string@DU?$char_traits@D@std@@V?$allocator@D@2@@std@@V?$weak_ptr@VRawImageData@@@2@@std@@@std@@@std@@@2@XZ 00400000 f   PlayingCardsDemo.obj
 0001:fffff000       __ehhandler$??1?$basic_string@DU?$char_traits@D@std@@V?$allocator@D@2@@std@@QAE@XZ 00400000 f   PlayingCardsDemo.obj
 0001:fffff000       __unwindfunclet$?erase@?$_Tree@V?$_Tmap_traits@V?$basic_string@DU?$char_traits@D@std@@V?$allocator@D@2@@std@@V?$weak_ptr@VRawImageData@@@2@U?$less@V?$basic_string@DU?$char_traits@D@std@@V?$allocator@D@2@@std@@@2@V?$allocator@U?$pair@$$CBV?$basic_string@DU?$char_traits@D@std@@V?$allocator@D@2@@std@@V?$weak_ptr@VRawImageData@@@2@@std@@@2@$0A@@std@@@std@@QAE?AV?$_Tree_iterator@V?$_Tree_val@U?$_Tree_simple_types@U?$pair@$$CBV?$basic_string@DU?$char_traits@D@std@@V?$allocator@D@2@@std@@V?$weak_ptr@VRawImageData@@@2@@std@@@std@@@std@@@2@V?$_Tree_const_iterator@V?$_Tree_val@U?$_Tree_simple_types@U?$pair@$$CBV?$basic_string@DU?$char_traits@D@std@@V?$allocator@D@2@@std@@V?$weak_ptr@VRawImageData@@@2@@std@@@std@@@std@@@2@@Z$0 00400000 f   PlayingCardsDemo.obj
 0001:fffff000       __ehhandler$?_Assign_rv_contents_with_alloc_always_equal@?$basic_string@DU?$char_traits@D@std@@V?$allocator@D@2@@std@@QAEX$$QAV12@U?$integral_constant@_N$00@2@@Z 00400000 f   PlayingCardsDemo.obj
 0001:fffff000       __ehhandler$??0?$basic_string@DU?$char_traits@D@std@@V?$allocator@D@2@@std@@QAE@$$QAV01@@Z 00400000 f   PlayingCardsDemo.obj
 0001:fffff000       __unwindfunclet$?erase@?$_Tree@V?$_Tmap_traits@V?$basic_string@DU?$char_traits@D@std@@V?$allocator@D@2@@std@@V?$weak_ptr@VRawImageData@@@2@U?$less@V?$basic_string@DU?$char_traits@D@std@@V?$allocator@D@2@@std@@@2@V?$allocator@U?$pair@$$CBV?$basic_string@DU?$char_traits@D@std@@V?$allocator@D@2@@std@@V?$weak_ptr@VRawImageData@@@2@@std@@@2@$0A@@std@@@std@@QAE?AV?$_Tree_iterator@V?$_Tree_val@U?$_Tree_simple_types@U?$pair@$$CBV?$basic_string@DU?$char_traits@D@std@@V?$allocator@D@2@@std@@V?$weak_ptr@VRawImageData@@@2@@std@@@std@@@std@@@2@V?$_Tree_const_iterator@V?$_Tree_val@U?$_Tree_simple_types@U?$pair@$$CBV?$basic_string@DU?$char_traits@D@std@@V?$allocator@D@2@@std@@V?$weak_ptr@VRawImageData@@@2@@std@@@std@@@std@@@2@0@Z$0 00400000 f   PlayingCardsDemo.obj
 0001:fffff000       __unwindfunclet$??0?$basic_string@DU?$char_traits@D@std@@V?$allocator@D@2@@std@@QAE@QBD@Z$0 00400000 f   PlayingCardsDemo.obj
 0001:fffff000       __unwindfunclet$??0?$basic_string@DU?$char_traits@D@std@@V?$allocator@D@2@@std@@QAE@ABV01@@Z$0 00400000 f   PlayingCardsDemo.obj
 0001:fffff000       __ehhandler$??1?$_String_alloc@U?$_String_base_types@DV?$allocator@D@std@@@std@@@std@@QAE@XZ 00400000 f   PlayingCardsDemo.obj
 0001:fffff000       __ehhandler$?begin@?$vector@PAVDisplayableObject@@V?$allocator@PAVDisplayableObject@@@std@@@std@@QBE?AV?$_Vector_const_iterator@V?$_Vector_val@U?$_Simple_types@PAVDisplayableObject@@@std@@@std@@@2@XZ 00400000 f   JasonsDemoA.obj
 0000:fffb2000       .debug$S                   00400000     SDL2:SDL2.dll
 0000:fffb2000       .debug$S                   00400000     SDL2:SDL2.dll
 0001:fffff000       __unwindfunclet$?_Extract@?$_Tree_val@U?$_Tree_simple_types@U?$pair@$$CBV?$basic_string@DU?$char_traits@D@std@@V?$allocator@D@2@@std@@V?$shared_ptr@VRawImageData@@@2@@std@@@std@@@std@@QAEPAU?$_Tree_node@U?$pair@$$CBV?$basic_string@DU?$char_traits@D@std@@V?$allocator@D@2@@std@@V?$shared_ptr@VRawImageData@@@2@@std@@PAX@2@V?$_Tree_const_iterator@V?$_Tree_val@U?$_Tree_simple_types@U?$pair@$$CBV?$basic_string@DU?$char_traits@D@std@@V?$allocator@D@2@@std@@V?$shared_ptr@VRawImageData@@@2@@std@@@std@@@std@@@2@@Z$0 00400000 f   ImageObjectDemo.obj
 0000:fffb2000       .debug$S                   00400000     kernel32:KERNEL32.dll
 0000:fffb2000       .debug$S                   00400000     kernel32:KERNEL32.dll
 0000:fffb2000       .debug$S                   00400000     kernel32:KERNEL32.dll
 0000:fffb2000       .debug$S                   00400000     kernel32:KERNEL32.dll
 0000:fffb2000       .debug$S                   00400000     kernel32:KERNEL32.dll
 0000:fffb2000       .debug$S                   00400000     kernel32:KERNEL32.dll
 0000:fffb2000       .debug$S                   00400000     kernel32:KERNEL32.dll
 0000:fffb2000       .debug$S                   00400000     kernel32:KERNEL32.dll
 0000:fffb2000       .debug$S                   00400000     kernel32:KERNEL32.dll
 0000:fffb2000       .debug$S                   00400000     kernel32:KERNEL32.dll
 0000:fffb2000       .debug$S                   00400000     kernel32:KERNEL32.dll
 0000:fffb2000       .debug$S                   00400000     kernel32:KERNEL32.dll
 0000:fffb2000       .debug$S                   00400000     kernel32:KERNEL32.dll
 0000:fffb2000       .debug$S                   00400000     kernel32:KERNEL32.dll
 0000:fffb2000       .debug$S                   00400000     kernel32:KERNEL32.dll
 0000:fffb2000       .debug$S                   00400000     kernel32:KERNEL32.dll
 0000:fffb2000       .debug$S                   00400000     kernel32:KERNEL32.dll
 0001:fffff000       __ehhandler$??1?$_Tree@V?$_Tmap_traits@V?$basic_string@DU?$char_traits@D@std@@V?$allocator@D@2@@std@@V?$shared_ptr@VRawImageData@@@2@U?$less@V?$basic_string@DU?$char_traits@D@std@@V?$allocator@D@2@@std@@@2@V?$allocator@U?$pair@$$CBV?$basic_string@DU?$char_traits@D@std@@V?$allocator@D@2@@std@@V?$shared_ptr@VRawImageData@@@2@@std@@@2@$0A@@std@@@std@@QAE@XZ 00400000 f   ImageObjectDemo.obj
 0001:fffff000       __ehhandler$?begin@?$_Tree@V?$_Tmap_traits@V?$basic_string@DU?$char_traits@D@std@@V?$allocator@D@2@@std@@V?$shared_ptr@VRawImageData@@@2@U?$less@V?$basic_string@DU?$char_traits@D@std@@V?$allocator@D@2@@std@@@2@V?$allocator@U?$pair@$$CBV?$basic_string@DU?$char_traits@D@std@@V?$allocator@D@2@@std@@V?$shared_ptr@VRawImageData@@@2@@std@@@2@$0A@@std@@@std@@QAE?AV?$_Tree_iterator@V?$_Tree_val@U?$_Tree_simple_types@U?$pair@$$CBV?$basic_string@DU?$char_traits@D@std@@V?$allocator@D@2@@std@@V?$shared_ptr@VRawImageData@@@2@@std@@@std@@@std@@@2@XZ 00400000 f   ImageObjectDemo.obj
 0001:fffff000       __ehhandler$?end@?$_Tree@V?$_Tmap_traits@V?$basic_string@DU?$char_traits@D@std@@V?$allocator@D@2@@std@@V?$shared_ptr@VRawImageData@@@2@U?$less@V?$basic_string@DU?$char_traits@D@std@@V?$allocator@D@2@@std@@@2@V?$allocator@U?$pair@$$CBV?$basic_string@DU?$char_traits@D@std@@V?$allocator@D@2@@std@@V?$shared_ptr@VRawImageData@@@2@@std@@@2@$0A@@std@@@std@@QAE?AV?$_Tree_iterator@V?$_Tree_val@U?$_Tree_simple_types@U?$pair@$$CBV?$basic_string@DU?$char_traits@D@std@@V?$allocator@D@2@@std@@V?$shared_ptr@VRawImageData@@@2@@std@@@std@@@std@@@2@XZ 00400000 f   ImageObjectDemo.obj
 0000:fffb2000       .debug$S                   00400000     ucrtd:ucrtbased.dll
 0000:fffb2000       .debug$S                   00400000     ucrtd:ucrtbased.dll
 0000:fffb2000       .debug$S                   00400000     ucrtd:ucrtbased.dll
 0000:fffb2000       .debug$S                   00400000     ucrtd:ucrtbased.dll
 0000:fffb2000       .debug$S                   00400000     ucrtd:ucrtbased.dll
 0000:fffb2000       .debug$S                   00400000     ucrtd:ucrtbased.dll
 0000:fffb2000       .debug$S                   00400000     ucrtd:ucrtbased.dll
 0000:fffb2000       .debug$S                   00400000     ucrtd:ucrtbased.dll
 0000:fffb2000       .debug$S                   00400000     ucrtd:ucrtbased.dll
 0000:fffb2000       .debug$S                   00400000     ucrtd:ucrtbased.dll
 0000:fffb2000       .debug$S                   00400000     ucrtd:ucrtbased.dll
 0000:fffb2000       .debug$S                   00400000     ucrtd:ucrtbased.dll
 0000:fffb2000       .debug$S                   00400000     ucrtd:ucrtbased.dll
 0000:fffb2000       .debug$S                   00400000     ucrtd:ucrtbased.dll
 0000:fffb2000       .debug$S                   00400000     ucrtd:ucrtbased.dll
 0000:fffb2000       .debug$S                   00400000     ucrtd:ucrtbased.dll
 0000:fffb2000       .debug$S                   00400000     ucrtd:ucrtbased.dll
 0000:fffb2000       .debug$S                   00400000     ucrtd:ucrtbased.dll
 0000:fffb2000       .debug$S                   00400000     ucrtd:ucrtbased.dll
 0000:fffb2000       .debug$S                   00400000     ucrtd:ucrtbased.dll
 0000:fffb2000       .debug$S                   00400000     ucrtd:ucrtbased.dll
 0000:fffb2000       .debug$S                   00400000     ucrtd:ucrtbased.dll
 0000:fffb2000       .debug$S                   00400000     ucrtd:ucrtbased.dll
 0000:fffb2000       .debug$S                   00400000     ucrtd:ucrtbased.dll
 0000:fffb2000       .debug$S                   00400000     ucrtd:ucrtbased.dll
 0000:fffb2000       .debug$S                   00400000     ucrtd:ucrtbased.dll
 0000:fffb2000       .debug$S                   00400000     ucrtd:ucrtbased.dll
 0000:fffb2000       .debug$S                   00400000     ucrtd:ucrtbased.dll
 0000:fffb2000       .debug$S                   00400000     ucrtd:ucrtbased.dll
 0000:fffb2000       .debug$S                   00400000     ucrtd:ucrtbased.dll
 0000:fffb2000       .debug$S                   00400000     ucrtd:ucrtbased.dll
 0000:fffb2000       .debug$S                   00400000     ucrtd:ucrtbased.dll
 0000:fffb2000       .debug$S                   00400000     ucrtd:ucrtbased.dll
 0000:fffb2000       .debug$S                   00400000     ucrtd:ucrtbased.dll
 0000:fffb2000       .debug$S                   00400000     ucrtd:ucrtbased.dll
 0000:fffb2000       .debug$S                   00400000     ucrtd:ucrtbased.dll
 0000:fffb2000       .debug$S                   00400000     ucrtd:ucrtbased.dll
 0000:fffb2000       .debug$S                   00400000     ucrtd:ucrtbased.dll
 0000:fffb2000       .debug$S                   00400000     ucrtd:ucrtbased.dll
 0000:fffb2000       .debug$S                   00400000     ucrtd:ucrtbased.dll
 0000:fffb2000       .debug$S                   00400000     ucrtd:ucrtbased.dll
 0000:fffb2000       .debug$S                   00400000     ucrtd:ucrtbased.dll
 0000:fffb2000       .debug$S                   00400000     ucrtd:ucrtbased.dll
 0000:fffb2000       .debug$S                   00400000     ucrtd:ucrtbased.dll
 0000:fffb2000       .debug$S                   00400000     ucrtd:ucrtbased.dll
 0000:fffb2000       .debug$S                   00400000     ucrtd:ucrtbased.dll
 0000:fffb2000       .debug$S                   00400000     ucrtd:ucrtbased.dll
 0000:fffb2000       .debug$S                   00400000     ucrtd:ucrtbased.dll
 0000:fffb2000       .debug$S                   00400000     ucrtd:ucrtbased.dll
 0000:fffb2000       .debug$S                   00400000     ucrtd:ucrtbased.dll
 0000:fffb2000       .debug$S                   00400000     ucrtd:ucrtbased.dll
 0001:fffff000       __unwindfunclet$?erase@?$_Tree@V?$_Tmap_traits@V?$basic_string@DU?$char_traits@D@std@@V?$allocator@D@2@@std@@V?$shared_ptr@VRawImageData@@@2@U?$less@V?$basic_string@DU?$char_traits@D@std@@V?$allocator@D@2@@std@@@2@V?$allocator@U?$pair@$$CBV?$basic_string@DU?$char_traits@D@std@@V?$allocator@D@2@@std@@V?$shared_ptr@VRawImageData@@@2@@std@@@2@$0A@@std@@@std@@QAE?AV?$_Tree_iterator@V?$_Tree_val@U?$_Tree_simple_types@U?$pair@$$CBV?$basic_string@DU?$char_traits@D@std@@V?$allocator@D@2@@std@@V?$shared_ptr@VRawImageData@@@2@@std@@@std@@@std@@@2@V?$_Tree_const_iterator@V?$_Tree_val@U?$_Tree_simple_types@U?$pair@$$CBV?$basic_string@DU?$char_traits@D@std@@V?$allocator@D@2@@std@@V?$shared_ptr@VRawImageData@@@2@@std@@@std@@@std@@@2@@Z$0 00400000 f   ImageObjectDemo.obj
 0000:fffb2000       .debug$S                   00400000     vcruntimed:VCRUNTIME140D.dll
 0000:fffb2000       .debug$S                   00400000     vcruntimed:VCRUNTIME140D.dll
 0000:fffb2000       .debug$S                   00400000     vcruntimed:VCRUNTIME140D.dll
 0000:fffb2000       .debug$S                   00400000     vcruntimed:VCRUNTIME140D.dll
 0000:fffb2000       .debug$S                   00400000     vcruntimed:VCRUNTIME140D.dll
 0000:fffb2000       .debug$S                   00400000     vcruntimed:VCRUNTIME140D.dll
 0000:fffb2000       .debug$S                   00400000     vcruntimed:VCRUNTIME140D.dll
 0000:fffb2000       .debug$S                   00400000     vcruntimed:VCRUNTIME140D.dll
 0000:fffb2000       .debug$S                   00400000     vcruntimed:VCRUNTIME140D.dll
 0000:fffb2000       .debug$S                   00400000     vcruntimed:VCRUNTIME140D.dll
 0000:fffb2000       .debug$S                   00400000     vcruntimed:VCRUNTIME140D.dll
 0000:fffb2000       .debug$S                   00400000     vcruntimed:VCRUNTIME140D.dll
 0001:fffff000       __unwindfunclet$?erase@?$_Tree@V?$_Tmap_traits@V?$basic_string@DU?$char_traits@D@std@@V?$allocator@D@2@@std@@V?$shared_ptr@VRawImageData@@@2@U?$less@V?$basic_string@DU?$char_traits@D@std@@V?$allocator@D@2@@std@@@2@V?$allocator@U?$pair@$$CBV?$basic_string@DU?$char_traits@D@std@@V?$allocator@D@2@@std@@V?$shared_ptr@VRawImageData@@@2@@std@@@2@$0A@@std@@@std@@QAE?AV?$_Tree_iterator@V?$_Tree_val@U?$_Tree_simple_types@U?$pair@$$CBV?$basic_string@DU?$char_traits@D@std@@V?$allocator@D@2@@std@@V?$shared_ptr@VRawImageData@@@2@@std@@@std@@@std@@@2@V?$_Tree_const_iterator@V?$_Tree_val@U?$_Tree_simple_types@U?$pair@$$CBV?$basic_string@DU?$char_traits@D@std@@V?$allocator@D@2@@std@@V?$shared_ptr@VRawImageData@@@2@@std@@@std@@@std@@@2@0@Z$0 00400000 f   ImageObjectDemo.obj
 0001:fffff000       __ehhandler$?clear@?$_Tree@V?$_Tmap_traits@V?$basic_string@DU?$char_traits@D@std@@V?$allocator@D@2@@std@@V?$shared_ptr@VRawImageData@@@2@U?$less@V?$basic_string@DU?$char_traits@D@std@@V?$allocator@D@2@@std@@@2@V?$allocator@U?$pair@$$CBV?$basic_string@DU?$char_traits@D@std@@V?$allocator@D@2@@std@@V?$shared_ptr@VRawImageData@@@2@@std@@@2@$0A@@std@@@std@@QAEXXZ 00400000 f   ImageObjectDemo.obj
 0001:fffff000       __unwindfunclet$?_Orphan_ptr@?$_Tree@V?$_Tmap_traits@V?$basic_string@DU?$char_traits@D@std@@V?$allocator@D@2@@std@@V?$shared_ptr@VRawImageData@@@2@U?$less@V?$basic_string@DU?$char_traits@D@std@@V?$allocator@D@2@@std@@@2@V?$allocator@U?$pair@$$CBV?$basic_string@DU?$char_traits@D@std@@V?$allocator@D@2@@std@@V?$shared_ptr@VRawImageData@@@2@@std@@@2@$0A@@std@@@std@@IAEXPAU?$_Tree_node@U?$pair@$$CBV?$basic_string@DU?$char_traits@D@std@@V?$allocator@D@2@@std@@V?$shared_ptr@VRawImageData@@@2@@std@@PAX@2@@Z$0 00400000 f   ImageObjectDemo.obj
 0000:fffb4000       __guard_fids__             00400000     MSVCRTD:throw_bad_alloc.obj
 0000:fffb4000       __guard_fids__             00400000     MSVCRTD:throw_bad_alloc.obj
 0000:fffb4000       __guard_fids__             00400000     MSVCRTD:throw_bad_alloc.obj
 0000:fffb4000       __guard_fids__             00400000     MSVCRTD:throw_bad_alloc.obj
 0000:fffb4000       __guard_fids__             00400000     MSVCRTD:throw_bad_alloc.obj
 0000:fffb4000       __guard_fids__             00400000     MSVCRTD:throw_bad_alloc.obj
 0000:fffb4000       __guard_fids__             00400000     MSVCRTD:throw_bad_alloc.obj
 0000:fffb4000       __guard_fids__             00400000     MSVCRTD:throw_bad_alloc.obj
 0000:fffb4000       __guard_fids___guard_icall_checks_enforced 00400000     MSVCRTD:guard_support.obj
 0000:fffb4000       __guard_fids__             00400000     MSVCRTD:guard_support.obj
 0000:fffb4000       __guard_fids___except_handler4 00400000     MSVCRTD:chandler4gs.obj
 0000:fffb4000       __guard_fids____scrt_set_unhandled_exception_filter 00400000     MSVCRTD:utility_desktop.obj
 0001:fffff000       __unwindfunclet$?_Tidy@?$_Tree@V?$_Tmap_traits@V?$basic_string@DU?$char_traits@D@std@@V?$allocator@D@2@@std@@V?$shared_ptr@VRawImageData@@@2@U?$less@V?$basic_string@DU?$char_traits@D@std@@V?$allocator@D@2@@std@@@2@V?$allocator@U?$pair@$$CBV?$basic_string@DU?$char_traits@D@std@@V?$allocator@D@2@@std@@V?$shared_ptr@VRawImageData@@@2@@std@@@2@$0A@@std@@@std@@IAEXXZ$0 00400000 f   ImageObjectDemo.obj
 0001:fffff000       __unwindfunclet$?get@ImageManager@@SAPAV1@XZ$0 00400000 f   ImageObjectDemo.obj
 0001:fffff000       __unwindfunclet$??0ImageManager@@QAE@XZ$0 00400000 f   ImageObjectDemo.obj
 0001:fffff000       __unwindfunclet$?getImagePtrbyURL@ImageManager@@QAE?AV?$shared_ptr@VRawImageData@@@std@@V?$basic_string@DU?$char_traits@D@std@@V?$allocator@D@2@@3@_N1@Z$0 00400000 f   ImageObjectDemo.obj
 0001:fffff000       __unwindfunclet$?getImagebyURL@ImageManager@@QAE?AVSimpleImage@@V?$basic_string@DU?$char_traits@D@std@@V?$allocator@D@2@@std@@_N1@Z$0 00400000 f   ImageObjectDemo.obj
 0001:fffff000       __unwindfunclet$?loadAsNew@ImageManager@@QAE?AV?$shared_ptr@VRawImageData@@@std@@V?$basic_string@DU?$char_traits@D@std@@V?$allocator@D@2@@3@@Z$0 00400000 f   ImageObjectDemo.obj
 0001:fffff000       __unwindfunclet$??E?$_Tree_const_iterator@V?$_Tree_val@U?$_Tree_simple_types@U?$pair@$$CBV?$basic_string@DU?$char_traits@D@std@@V?$allocator@D@2@@std@@V?$weak_ptr@VRawImageData@@@2@@std@@@std@@@std@@@std@@QAE?AV01@H@Z$0 00400000 f   ImageObjectDemo.obj
 0001:fffff000       __ehhandler$??0?$weak_ptr@VRawImageData@@@std@@QAE@ABV01@@Z 00400000 f   ImageObjectDemo.obj
 0000:fffb4000       __guard_fids__             00400000     MSVCRTD:std_type_info_static.obj
 0001:fffff000       __ehhandler$??0?$weak_ptr@VRawImageData@@@std@@QAE@$$QAV01@@Z 00400000 f   ImageObjectDemo.obj
 0000:fffb4000       __guard_fids_?pre_c_initialization@@YAHXZ 00400000     MSVCRTD:exe_main.obj
 0001:fffff000       __ehhandler$??1?$weak_ptr@VRawImageData@@@std@@QAE@XZ 00400000 f   ImageObjectDemo.obj
 0001:fffff000       __ehhandler$?lock@?$weak_ptr@VRawImageData@@@std@@QBE?AV?$shared_ptr@VRawImageData@@@2@XZ 00400000 f   ImageObjectDemo.obj
 0001:fffff000       __unwindfunclet$??$erase@V?$_Tree_iterator@V?$_Tree_val@U?$_Tree_simple_types@U?$pair@$$CBV?$basic_string@DU?$char_traits@D@std@@V?$allocator@D@2@@std@@V?$weak_ptr@VRawImageData@@@2@@std@@@std@@@std@@@std@@X@?$_Tree@V?$_Tmap_traits@V?$basic_string@DU?$char_traits@D@std@@V?$allocator@D@2@@std@@V?$weak_ptr@VRawImageData@@@2@U?$less@V?$basic_string@DU?$char_traits@D@std@@V?$allocator@D@2@@std@@@2@V?$allocator@U?$pair@$$CBV?$basic_string@DU?$char_traits@D@std@@V?$allocator@D@2@@std@@V?$weak_ptr@VRawImageData@@@2@@std@@@2@$0A@@std@@@std@@QAE?AV?$_Tree_iterator@V?$_Tree_val@U?$_Tree_simple_types@U?$pair@$$CBV?$basic_string@DU?$char_traits@D@std@@V?$allocator@D@2@@std@@V?$weak_ptr@VRawImageData@@@2@@std@@@std@@@std@@@1@V21@@Z$0 00400000 f   ImageObjectDemo.obj
 0001:fffff000       __ehhandler$??$?0VRawImageData@@$0A@@?$weak_ptr@VRawImageData@@@std@@QAE@ABV?$shared_ptr@VRawImageData@@@1@@Z 00400000 f   ImageObjectDemo.obj
 0001:fffff000       __unwindfunclet$??E?$_Tree_const_iterator@V?$_Tree_val@U?$_Tree_simple_types@U?$pair@$$CBV?$basic_string@DU?$char_traits@D@std@@V?$allocator@D@2@@std@@V?$shared_ptr@VRawImageData@@@2@@std@@@std@@@std@@@std@@QAE?AV01@H@Z$0 00400000 f   ImageObjectDemo.obj
 0000:fffb4000       __guard_fids__             00400000     MSVCRTD:exe_main.obj
 0001:fffff000       __ehhandler$??$_Resize@V<lambda_2afd52570c452b238925c6f475a76105>@@@?$vector@PAVDisplayableObject@@V?$allocator@PAVDisplayableObject@@@std@@@std@@AAEXIV<lambda_2afd52570c452b238925c6f475a76105>@@@Z 00400000 f   ImageObjectDemo.obj
 0001:fffff000       __unwindfunclet$??$?0V?$allocator@D@std@@X@?$_String_alloc@U?$_String_base_types@DV?$allocator@D@std@@@std@@@std@@QAE@$$QAV?$allocator@D@1@@Z$0 00400000 f   ImageObjectDemo.obj
 0001:fffff000       __ehhandler$??$_Freenode0@V?$allocator@U?$_Tree_node@U?$pair@$$CBV?$basic_string@DU?$char_traits@D@std@@V?$allocator@D@2@@std@@V?$shared_ptr@VRawImageData@@@2@@std@@PAX@std@@@std@@@?$_Tree_node@U?$pair@$$CBV?$basic_string@DU?$char_traits@D@std@@V?$allocator@D@2@@std@@V?$shared_ptr@VRawImageData@@@2@@std@@PAX@std@@SAXAAV?$allocator@U?$_Tree_node@U?$pair@$$CBV?$basic_string@DU?$char_traits@D@std@@V?$allocator@D@2@@std@@V?$shared_ptr@VRawImageData@@@2@@std@@PAX@std@@@1@PAU01@@Z 00400000 f   ImageObjectDemo.obj
 0001:fffff000       __ehhandler$??$_Freenode0@V?$allocator@U?$_Tree_node@U?$pair@$$CBV?$basic_string@DU?$char_traits@D@std@@V?$allocator@D@2@@std@@V?$weak_ptr@VRawImageData@@@2@@std@@PAX@std@@@std@@@?$_Tree_node@U?$pair@$$CBV?$basic_string@DU?$char_traits@D@std@@V?$allocator@D@2@@std@@V?$weak_ptr@VRawImageData@@@2@@std@@PAX@std@@SAXAAV?$allocator@U?$_Tree_node@U?$pair@$$CBV?$basic_string@DU?$char_traits@D@std@@V?$allocator@D@2@@std@@V?$weak_ptr@VRawImageData@@@2@@std@@PAX@std@@@1@PAU01@@Z 00400000 f   ImageObjectDemo.obj
 0001:fffff000       __ehhandler$??1_Sentry_base@?$basic_ostream@DU?$char_traits@D@std@@@std@@QAE@XZ 00400000 f   ImageObjectDemo.obj
 0001:fffff000       __unwindfunclet$??0sentry@?$basic_ostream@DU?$char_traits@D@std@@@std@@QAE@AAV12@@Z$0 00400000 f   ImageObjectDemo.obj
 0001:fffff000       __ehhandler$??1sentry@?$basic_ostream@DU?$char_traits@D@std@@@std@@QAE@XZ 00400000 f   ImageObjectDemo.obj
 0000:fffb2000       .debug$S                   00400000     msvcprtd:MSVCP140D.dll
 0000:fffb2000       .debug$S                   00400000     msvcprtd:MSVCP140D.dll
 0000:fffb2000       .debug$S                   00400000     msvcprtd:MSVCP140D.dll
 0000:fffb2000       .debug$S                   00400000     msvcprtd:MSVCP140D.dll
 0000:fffb2000       .debug$S                   00400000     msvcprtd:MSVCP140D.dll
 0000:fffb2000       .debug$S                   00400000     msvcprtd:MSVCP140D.dll
 0000:fffb2000       .debug$S                   00400000     msvcprtd:MSVCP140D.dll
 0000:fffb2000       .debug$S                   00400000     msvcprtd:MSVCP140D.dll
 0000:fffb2000       .debug$S                   00400000     msvcprtd:MSVCP140D.dll
 0000:fffb2000       .debug$S                   00400000     msvcprtd:MSVCP140D.dll
 0000:fffb2000       .debug$S                   00400000     msvcprtd:MSVCP140D.dll
 0000:fffb2000       .debug$S                   00400000     msvcprtd:MSVCP140D.dll
 0000:fffb2000       .debug$S                   00400000     msvcprtd:MSVCP140D.dll
 0000:fffb2000       .debug$S                   00400000     msvcprtd:MSVCP140D.dll
 0000:fffb2000       .debug$S                   00400000     msvcprtd:MSVCP140D.dll
 0000:fffb2000       .debug$S                   00400000     msvcprtd:MSVCP140D.dll
 0000:fffb2000       .debug$S                   00400000     msvcprtd:MSVCP140D.dll
 0000:fffb2000       .debug$S                   00400000     msvcprtd:MSVCP140D.dll
 0000:fffb2000       .debug$S                   00400000     msvcprtd:MSVCP140D.dll
 0000:fffb2000       .debug$S                   00400000     msvcprtd:MSVCP140D.dll
 0000:fffb2000       .debug$S                   00400000     msvcprtd:MSVCP140D.dll
 0000:fffb2000       .debug$S                   00400000     msvcprtd:MSVCP140D.dll
 0000:fffb2000       .debug$S                   00400000     msvcprtd:MSVCP140D.dll
 0001:fffff000       __unwindfunclet$??$_Setp@VRawImageData@@@?$shared_ptr@VRawImageData@@@std@@AAEXPAVRawImageData@@U?$integral_constant@_N$0A@@1@@Z$2 00400000 f   ImageObjectDemo.obj
 0000:fffb2000       .debug$S                   00400000     SDL2_ttf:SDL2_ttf.dll
 0000:fffb2000       .debug$S                   00400000     SDL2_ttf:SDL2_ttf.dll
 0000:fffb2000       .debug$S                   00400000     SDL2_ttf:SDL2_ttf.dll
 0000:fffb2000       .debug$S                   00400000     SDL2_ttf:SDL2_ttf.dll
 0000:fffb2000       .debug$S                   00400000     SDL2_ttf:SDL2_ttf.dll
 0001:fffff000       __unwindfunclet$??$_Insert_string@DU?$char_traits@D@std@@I@std@@YAAAV?$basic_ostream@DU?$char_traits@D@std@@@0@AAV10@QBDI@Z$2 00400000 f   ImageObjectDemo.obj
 0000:fffb2000       .debug$S                   00400000     SDL2_image:SDL2_image.dll
 0001:fffff000       __ehhandler$??$_Buynode@U?$pair@V?$basic_string@DU?$char_traits@D@std@@V?$allocator@D@2@@std@@V?$weak_ptr@VRawImageData@@@2@@std@@@?$_Tree_comp_alloc@V?$_Tmap_traits@V?$basic_string@DU?$char_traits@D@std@@V?$allocator@D@2@@std@@V?$weak_ptr@VRawImageData@@@2@U?$less@V?$basic_string@DU?$char_traits@D@std@@V?$allocator@D@2@@std@@@2@V?$allocator@U?$pair@$$CBV?$basic_string@DU?$char_traits@D@std@@V?$allocator@D@2@@std@@V?$weak_ptr@VRawImageData@@@2@@std@@@2@$0A@@std@@@std@@QAEPAU?$_Tree_node@U?$pair@$$CBV?$basic_string@DU?$char_traits@D@std@@V?$allocator@D@2@@std@@V?$weak_ptr@VRawImageData@@@2@@std@@PAX@1@$$QAU?$pair@V?$basic_string@DU?$char_traits@D@std@@V?$allocator@D@2@@std@@V?$weak_ptr@VRawImageData@@@2@@1@@Z 00400000 f   ImageObjectDemo.obj
 0000:fffb2000       .debug$S                   00400000     SDL2:SDL2.dll
 0000:fffb2000       .debug$S                   00400000     SDL2:SDL2.dll
 0000:fffb2000       .debug$S                   00400000     SDL2:SDL2.dll
 0000:fffb2000       .debug$S                   00400000     SDL2:SDL2.dll
 0000:fffb2000       .debug$S                   00400000     SDL2:SDL2.dll
 0000:fffb2000       .debug$S                   00400000     SDL2:SDL2.dll
 0000:fffb2000       .debug$S                   00400000     SDL2:SDL2.dll
 0000:fffb2000       .debug$S                   00400000     SDL2:SDL2.dll
 0000:fffb2000       .debug$S                   00400000     SDL2:SDL2.dll
 0000:fffb2000       .debug$S                   00400000     SDL2:SDL2.dll
 0000:fffb2000       .debug$S                   00400000     SDL2:SDL2.dll
 0000:fffb2000       .debug$S                   00400000     SDL2:SDL2.dll
 0000:fffb2000       .debug$S                   00400000     SDL2:SDL2.dll
 0000:fffb2000       .debug$S                   00400000     SDL2:SDL2.dll
 0000:fffb2000       .debug$S                   00400000     SDL2:SDL2.dll
 0000:fffb2000       .debug$S                   00400000     SDL2:SDL2.dll
 0000:fffb2000       .debug$S                   00400000     SDL2:SDL2.dll
 0000:fffb2000       .debug$S                   00400000     SDL2:SDL2.dll
 0000:fffb2000       .debug$S                   00400000     SDL2:SDL2.dll
 0000:fffb2000       .debug$S                   00400000     SDL2:SDL2.dll
 0001:fffff000       __unwindfunclet$??$_Insert_nohint@AAU?$pair@$$CBV?$basic_string@DU?$char_traits@D@std@@V?$allocator@D@2@@std@@V?$weak_ptr@VRawImageData@@@2@@std@@PAU?$_Tree_node@U?$pair@$$CBV?$basic_string@DU?$char_traits@D@std@@V?$allocator@D@2@@std@@V?$weak_ptr@VRawImageData@@@2@@std@@PAX@2@@?$_Tree@V?$_Tmap_traits@V?$basic_string@DU?$char_traits@D@std@@V?$allocator@D@2@@std@@V?$weak_ptr@VRawImageData@@@2@U?$less@V?$basic_string@DU?$char_traits@D@std@@V?$allocator@D@2@@std@@@2@V?$allocator@U?$pair@$$CBV?$basic_string@DU?$char_traits@D@std@@V?$allocator@D@2@@std@@V?$weak_ptr@VRawImageData@@@2@@std@@@2@$0A@@std@@@std@@IAE?AU?$pair@V?$_Tree_iterator@V?$_Tree_val@U?$_Tree_simple_types@U?$pair@$$CBV?$basic_string@DU?$char_traits@D@std@@V?$allocator@D@2@@std@@V?$weak_ptr@VRawImageData@@@2@@std@@@std@@@std@@@std@@_N@1@_NAAU?$pair@$$CBV?$basic_string@DU?$char_traits@D@std@@V?$allocator@D@2@@std@@V?$weak_ptr@VRawImageData@@@2@@1@PAU?$_Tree_node@U?$pair@$$CBV?$basic_string@DU?$char_traits@D@std@@V?$allocator@D@2@@std@@V?$weak_ptr@VRawImageData@@@2@@std@@PAX@1@@Z$4 00400000 f   ImageObjectDemo.obj
 0001:fffff000       __ehhandler$??$_Buynode@U?$pair@V?$basic_string@DU?$char_traits@D@std@@V?$allocator@D@2@@std@@V?$shared_ptr@VRawImageData@@@2@@std@@@?$_Tree_comp_alloc@V?$_Tmap_traits@V?$basic_string@DU?$char_traits@D@std@@V?$allocator@D@2@@std@@V?$shared_ptr@VRawImageData@@@2@U?$less@V?$basic_string@DU?$char_traits@D@std@@V?$allocator@D@2@@std@@@2@V?$allocator@U?$pair@$$CBV?$basic_string@DU?$char_traits@D@std@@V?$allocator@D@2@@std@@V?$shared_ptr@VRawImageData@@@2@@std@@@2@$0A@@std@@@std@@QAEPAU?$_Tree_node@U?$pair@$$CBV?$basic_string@DU?$char_traits@D@std@@V?$allocator@D@2@@std@@V?$shared_ptr@VRawImageData@@@2@@std@@PAX@1@$$QAU?$pair@V?$basic_string@DU?$char_traits@D@std@@V?$allocator@D@2@@std@@V?$shared_ptr@VRawImageData@@@2@@1@@Z 00400000 f   ImageObjectDemo.obj
 0001:fffff000       __unwindfunclet$??$_Insert_nohint@AAU?$pair@$$CBV?$basic_string@DU?$char_traits@D@std@@V?$allocator@D@2@@std@@V?$shared_ptr@VRawImageData@@@2@@std@@PAU?$_Tree_node@U?$pair@$$CBV?$basic_string@DU?$char_traits@D@std@@V?$allocator@D@2@@std@@V?$shared_ptr@VRawImageData@@@2@@std@@PAX@2@@?$_Tree@V?$_Tmap_traits@V?$basic_string@DU?$char_traits@D@std@@V?$allocator@D@2@@std@@V?$shared_ptr@VRawImageData@@@2@U?$less@V?$basic_string@DU?$char_traits@D@std@@V?$allocator@D@2@@std@@@2@V?$allocator@U?$pair@$$CBV?$basic_string@DU?$char_traits@D@std@@V?$allocator@D@2@@std@@V?$shared_ptr@VRawImageData@@@2@@std@@@2@$0A@@std@@@std@@IAE?AU?$pair@V?$_Tree_iterator@V?$_Tree_val@U?$_Tree_simple_types@U?$pair@$$CBV?$basic_string@DU?$char_traits@D@std@@V?$allocator@D@2@@std@@V?$shared_ptr@VRawImageData@@@2@@std@@@std@@@std@@@std@@_N@1@_NAAU?$pair@$$CBV?$basic_string@DU?$char_traits@D@std@@V?$allocator@D@2@@std@@V?$shared_ptr@VRawImageData@@@2@@1@PAU?$_Tree_node@U?$pair@$$CBV?$basic_string@DU?$char_traits@D@std@@V?$allocator@D@2@@std@@V?$shared_ptr@VRawImageData@@@2@@std@@PAX@1@@Z$4 00400000 f   ImageObjectDemo.obj
 0002:fffc3000       __ehfuncinfo$?_Orphan_all@_Container_base12@std@@QAEXXZ 00400000     ImageObjectDemo.obj
 0002:fffc3000       __ehfuncinfo$?_Swap_all@_Container_base12@std@@QAEXAAU12@@Z 00400000     ImageObjectDemo.obj
 0002:fffc3000       __ehfuncinfo$??4_Iterator_base12@std@@QAEAAU01@ABU01@@Z 00400000     ImageObjectDemo.obj
 0002:fffc3000       __ehfuncinfo$??1_Iterator_base12@std@@QAE@XZ 00400000     ImageObjectDemo.obj
 0002:fffc3000       __ehfuncinfo$?_Adopt@_Iterator_base12@std@@QAEXPBU_Container_base12@2@@Z 00400000     ImageObjectDemo.obj
 0002:fffc3000       __unwindtable$??0?$_String_alloc@U?$_String_base_types@DV?$allocator@D@std@@@std@@@std@@QAE@XZ 00400000     ImageObjectDemo.obj
 0002:fffc3000       __ehfuncinfo$??1?$_String_alloc@U?$_String_base_types@DV?$allocator@D@std@@@std@@@std@@QAE@XZ 00400000     ImageObjectDemo.obj
 0002:fffc3000       __catchsym$??$_Resize@V<lambda_2afd52570c452b238925c6f475a76105>@@@?$vector@PAVDisplayableObject@@V?$allocator@PAVDisplayableObject@@@std@@@std@@AAEXIV<lambda_2afd52570c452b238925c6f475a76105>@@@Z$2 00400000     MazeDemoMain.obj
 0002:fffc3000       __unwindtable$??0?$basic_string@DU?$char_traits@D@std@@V?$allocator@D@2@@std@@QAE@ABV01@@Z 00400000     ImageObjectDemo.obj
 0002:fffc3000       __unwindtable$??0?$basic_string@DU?$char_traits@D@std@@V?$allocator@D@2@@std@@QAE@QBD@Z 00400000     ImageObjectDemo.obj
 0002:fffc3000       __ehfuncinfo$??0?$basic_string@DU?$char_traits@D@std@@V?$allocator@D@2@@std@@QAE@$$QAV01@@Z 00400000     ImageObjectDemo.obj
 0002:fffc3000       __ehfuncinfo$?_Assign_rv_contents_with_alloc_always_equal@?$basic_string@DU?$char_traits@D@std@@V?$allocator@D@2@@std@@QAEX$$QAV12@U?$integral_constant@_N$00@2@@Z 00400000     ImageObjectDemo.obj
 0002:fffc3000       __ehfuncinfo$??1?$basic_string@DU?$char_traits@D@std@@V?$allocator@D@2@@std@@QAE@XZ 00400000     ImageObjectDemo.obj
 0002:fffc3000       __ehfuncinfo$?c_str@?$basic_string@DU?$char_traits@D@std@@V?$allocator@D@2@@std@@QBEPBDXZ 00400000     ImageObjectDemo.obj
 0002:fffc3000       __ehfuncinfo$?data@?$basic_string@DU?$char_traits@D@std@@V?$allocator@D@2@@std@@QBEPBDXZ 00400000     ImageObjectDemo.obj
 0002:fffc3000       __unwindtable$??E?$_Vector_const_iterator@V?$_Vector_val@U?$_Simple_types@PAVDisplayableObject@@@std@@@std@@@std@@QAE?AV01@H@Z 00400000     MazeDemoMain.obj
 0002:fffc3000       __ehfuncinfo$?compare@?$basic_string@DU?$char_traits@D@std@@V?$allocator@D@2@@std@@QBEHABV12@@Z 00400000     ImageObjectDemo.obj
 0002:fffc3000       __unwindtable$?_Orphan_range@?$vector@PAVDisplayableObject@@V?$allocator@PAVDisplayableObject@@@std@@@std@@ABEXPAPAVDisplayableObject@@0@Z 00400000     MazeDemoMain.obj
 0002:fffc3000       __ehfuncinfo$?_Use_count@_Ref_count_base@std@@QBEJXZ 00400000     ImageObjectDemo.obj
 0002:fffc3000       __ehfuncinfo$?end@?$vector@PAVDisplayableObject@@V?$allocator@PAVDisplayableObject@@@std@@@std@@QBE?AV?$_Vector_const_iterator@V?$_Vector_val@U?$_Simple_types@PAVDisplayableObject@@@std@@@std@@@2@XZ 00400000     MazeDemoMain.obj
 0002:fffc3000       __ehfuncinfo$?begin@?$vector@PAVDisplayableObject@@V?$allocator@PAVDisplayableObject@@@std@@@std@@QBE?AV?$_Vector_const_iterator@V?$_Vector_val@U?$_Simple_types@PAVDisplayableObject@@@std@@@std@@@2@XZ 00400000     MazeDemoMain.obj
 0002:fffc3000       __unwindtable$?setAllObjectsVisible@DisplayableObjectContainer@@QBEX_N@Z 00400000     MazeDemoMain.obj
 0002:fffc3000       __catchsym$??$?6U?$char_traits@D@std@@@std@@YAAAV?$basic_ostream@DU?$char_traits@D@std@@@0@AAV10@PBD@Z$3 00400000     ImageObjectDemo.obj
 0002:fffc3000       __ehfuncinfo$?_Adopt@_Iterator_base12@std@@QAEXPBU_Container_base12@2@@Z 00400000     MazeDemoMain.obj
 0002:fffc3000       __ehfuncinfo$??1_Iterator_base12@std@@QAE@XZ 00400000     MazeDemoMain.obj
 0002:fffc3000       __ehfuncinfo$??4_Iterator_base12@std@@QAEAAU01@ABU01@@Z 00400000     MazeDemoMain.obj
 0002:fffc3000       __ehfuncinfo$?_Orphan_all@_Container_base12@std@@QAEXXZ 00400000     MazeDemoMain.obj
 0002:fffc3000       __unwindtable$?_Orphan_range@?$vector@PAVDisplayableObject@@V?$allocator@PAVDisplayableObject@@@std@@@std@@ABEXPAPAVDisplayableObject@@0@Z 00400000     ImageObjectDemo.obj
 0001:fffff000       __ehhandler$??$_Resize@V<lambda_2afd52570c452b238925c6f475a76105>@@@?$vector@PAVDisplayableObject@@V?$allocator@PAVDisplayableObject@@@std@@@std@@AAEXIV<lambda_2afd52570c452b238925c6f475a76105>@@@Z 00400000 f   MazeDemoMain.obj
 0002:fffc3000       __unwindtable$??0RawImageData@@QAE@V?$basic_string@DU?$char_traits@D@std@@V?$allocator@D@2@@std@@@Z 00400000     ImageObjectDemo.obj
 0002:fffc3000       __ehfuncinfo$??1RawImageData@@QAE@XZ 00400000     ImageObjectDemo.obj
 0002:fffc3000       __unwindtable$?loadImage@RawImageData@@QAE_NV?$basic_string@DU?$char_traits@D@std@@V?$allocator@D@2@@std@@HHHHH_N@Z 00400000     ImageObjectDemo.obj
 0001:fffff000       __ehhandler$?_Buyheadnode@?$_Tree_comp_alloc@V?$_Tmap_traits@V?$basic_string@DU?$char_traits@D@std@@V?$allocator@D@2@@std@@V?$shared_ptr@VRawImageData@@@2@U?$less@V?$basic_string@DU?$char_traits@D@std@@V?$allocator@D@2@@std@@@2@V?$allocator@U?$pair@$$CBV?$basic_string@DU?$char_traits@D@std@@V?$allocator@D@2@@std@@V?$shared_ptr@VRawImageData@@@2@@std@@@2@$0A@@std@@@std@@QAEPAU?$_Tree_node@U?$pair@$$CBV?$basic_string@DU?$char_traits@D@std@@V?$allocator@D@2@@std@@V?$shared_ptr@VRawImageData@@@2@@std@@PAX@2@XZ 00400000 f   ImageObjectDemo.obj
 0002:fffc3000       __ehfuncinfo$??0?$shared_ptr@VRawImageData@@@std@@QAE@ABV01@@Z 00400000     ImageObjectDemo.obj
 0002:fffc3000       __ehfuncinfo$??0?$shared_ptr@VRawImageData@@@std@@QAE@$$QAV01@@Z 00400000     ImageObjectDemo.obj
 0002:fffc3000       __ehfuncinfo$??1?$shared_ptr@VRawImageData@@@std@@QAE@XZ 00400000     ImageObjectDemo.obj
 0002:fffc3000       __catchsym$?_Construct@?$_Tree_comp_alloc@V?$_Tmap_traits@V?$basic_string@DU?$char_traits@D@std@@V?$allocator@D@2@@std@@V?$weak_ptr@VRawImageData@@@2@U?$less@V?$basic_string@DU?$char_traits@D@std@@V?$allocator@D@2@@std@@@2@V?$allocator@U?$pair@$$CBV?$basic_string@DU?$char_traits@D@std@@V?$allocator@D@2@@std@@V?$weak_ptr@VRawImageData@@@2@@std@@@2@$0A@@std@@@std@@QAEXXZ$2 00400000     ImageObjectDemo.obj
 0001:fffff000       __unwindfunclet$??E?$_Vector_const_iterator@V?$_Vector_val@U?$_Simple_types@PAVDisplayableObject@@@std@@@std@@@std@@QAE?AV01@H@Z$0 00400000 f   MazeDemoMain.obj
 0002:fffc3000       __ehfuncinfo$??1?$_Tree_comp_alloc@V?$_Tmap_traits@V?$basic_string@DU?$char_traits@D@std@@V?$allocator@D@2@@std@@V?$weak_ptr@VRawImageData@@@2@U?$less@V?$basic_string@DU?$char_traits@D@std@@V?$allocator@D@2@@std@@@2@V?$allocator@U?$pair@$$CBV?$basic_string@DU?$char_traits@D@std@@V?$allocator@D@2@@std@@V?$weak_ptr@VRawImageData@@@2@@std@@@2@$0A@@std@@@std@@QAE@XZ 00400000     ImageObjectDemo.obj
 0001:fffff000       __unwindfunclet$?_Orphan_range@?$vector@PAVDisplayableObject@@V?$allocator@PAVDisplayableObject@@@std@@@std@@ABEXPAPAVDisplayableObject@@0@Z$0 00400000 f   MazeDemoMain.obj
 0002:fffc3000       __catchsym$?_Buyheadnode@?$_Tree_comp_alloc@V?$_Tmap_traits@V?$basic_string@DU?$char_traits@D@std@@V?$allocator@D@2@@std@@V?$weak_ptr@VRawImageData@@@2@U?$less@V?$basic_string@DU?$char_traits@D@std@@V?$allocator@D@2@@std@@@2@V?$allocator@U?$pair@$$CBV?$basic_string@DU?$char_traits@D@std@@V?$allocator@D@2@@std@@V?$weak_ptr@VRawImageData@@@2@@std@@@2@$0A@@std@@@std@@QAEPAU?$_Tree_node@U?$pair@$$CBV?$basic_string@DU?$char_traits@D@std@@V?$allocator@D@2@@std@@V?$weak_ptr@VRawImageData@@@2@@std@@PAX@2@XZ$2 00400000     ImageObjectDemo.obj
 0001:fffff000       __ehhandler$?end@?$vector@PAVDisplayableObject@@V?$allocator@PAVDisplayableObject@@@std@@@std@@QBE?AV?$_Vector_const_iterator@V?$_Vector_val@U?$_Simple_types@PAVDisplayableObject@@@std@@@std@@@2@XZ 00400000 f   MazeDemoMain.obj
 0001:fffff000       __ehhandler$?begin@?$vector@PAVDisplayableObject@@V?$allocator@PAVDisplayableObject@@@std@@@std@@QBE?AV?$_Vector_const_iterator@V?$_Vector_val@U?$_Simple_types@PAVDisplayableObject@@@std@@@std@@@2@XZ 00400000 f   MazeDemoMain.obj
 0002:fffc3000       __catchsym$?_Buynode0@?$_Tree_comp_alloc@V?$_Tmap_traits@V?$basic_string@DU?$char_traits@D@std@@V?$allocator@D@2@@std@@V?$weak_ptr@VRawImageData@@@2@U?$less@V?$basic_string@DU?$char_traits@D@std@@V?$allocator@D@2@@std@@@2@V?$allocator@U?$pair@$$CBV?$basic_string@DU?$char_traits@D@std@@V?$allocator@D@2@@std@@V?$weak_ptr@VRawImageData@@@2@@std@@@2@$0A@@std@@@std@@QAEPAU?$_Tree_node@U?$pair@$$CBV?$basic_string@DU?$char_traits@D@std@@V?$allocator@D@2@@std@@V?$weak_ptr@VRawImageData@@@2@@std@@PAX@2@XZ$2 00400000     ImageObjectDemo.obj
 0001:fffff000       __unwindfunclet$?setAllObjectsVisible@DisplayableObjectContainer@@QBEX_N@Z$0 00400000 f   MazeDemoMain.obj
 0002:fffc3000       __unwindtable$?_Extract@?$_Tree_val@U?$_Tree_simple_types@U?$pair@$$CBV?$basic_string@DU?$char_traits@D@std@@V?$allocator@D@2@@std@@V?$weak_ptr@VRawImageData@@@2@@std@@@std@@@std@@QAEPAU?$_Tree_node@U?$pair@$$CBV?$basic_string@DU?$char_traits@D@std@@V?$allocator@D@2@@std@@V?$weak_ptr@VRawImageData@@@2@@std@@PAX@2@V?$_Tree_const_iterator@V?$_Tree_val@U?$_Tree_simple_types@U?$pair@$$CBV?$basic_string@DU?$char_traits@D@std@@V?$allocator@D@2@@std@@V?$weak_ptr@VRawImageData@@@2@@std@@@std@@@std@@@2@@Z 00400000     ImageObjectDemo.obj
 0001:fffff000       __ehhandler$?_Adopt@_Iterator_base12@std@@QAEXPBU_Container_base12@2@@Z 00400000 f   MazeDemoMain.obj
 0001:fffff000       __ehhandler$??1_Iterator_base12@std@@QAE@XZ 00400000 f   MazeDemoMain.obj
 0001:fffff000       __ehhandler$??4_Iterator_base12@std@@QAEAAU01@ABU01@@Z 00400000 f   MazeDemoMain.obj
 0001:fffff000       __ehhandler$?_Orphan_all@_Container_base12@std@@QAEXXZ 00400000 f   MazeDemoMain.obj
 0002:fffc3000       __ehfuncinfo$??1?$_Tree@V?$_Tmap_traits@V?$basic_string@DU?$char_traits@D@std@@V?$allocator@D@2@@std@@V?$weak_ptr@VRawImageData@@@2@U?$less@V?$basic_string@DU?$char_traits@D@std@@V?$allocator@D@2@@std@@@2@V?$allocator@U?$pair@$$CBV?$basic_string@DU?$char_traits@D@std@@V?$allocator@D@2@@std@@V?$weak_ptr@VRawImageData@@@2@@std@@@2@$0A@@std@@@std@@QAE@XZ 00400000     ImageObjectDemo.obj
 0002:fffc3000       __ehfuncinfo$?begin@?$_Tree@V?$_Tmap_traits@V?$basic_string@DU?$char_traits@D@std@@V?$allocator@D@2@@std@@V?$weak_ptr@VRawImageData@@@2@U?$less@V?$basic_string@DU?$char_traits@D@std@@V?$allocator@D@2@@std@@@2@V?$allocator@U?$pair@$$CBV?$basic_string@DU?$char_traits@D@std@@V?$allocator@D@2@@std@@V?$weak_ptr@VRawImageData@@@2@@std@@@2@$0A@@std@@@std@@QAE?AV?$_Tree_iterator@V?$_Tree_val@U?$_Tree_simple_types@U?$pair@$$CBV?$basic_string@DU?$char_traits@D@std@@V?$allocator@D@2@@std@@V?$weak_ptr@VRawImageData@@@2@@std@@@std@@@std@@@2@XZ 00400000     ImageObjectDemo.obj
 0002:fffc3000       __ehfuncinfo$?end@?$_Tree@V?$_Tmap_traits@V?$basic_string@DU?$char_traits@D@std@@V?$allocator@D@2@@std@@V?$weak_ptr@VRawImageData@@@2@U?$less@V?$basic_string@DU?$char_traits@D@std@@V?$allocator@D@2@@std@@@2@V?$allocator@U?$pair@$$CBV?$basic_string@DU?$char_traits@D@std@@V?$allocator@D@2@@std@@V?$weak_ptr@VRawImageData@@@2@@std@@@2@$0A@@std@@@std@@QAE?AV?$_Tree_iterator@V?$_Tree_val@U?$_Tree_simple_types@U?$pair@$$CBV?$basic_string@DU?$char_traits@D@std@@V?$allocator@D@2@@std@@V?$weak_ptr@VRawImageData@@@2@@std@@@std@@@std@@@2@XZ 00400000     ImageObjectDemo.obj
 0002:fffc3000       __unwindtable$?erase@?$_Tree@V?$_Tmap_traits@V?$basic_string@DU?$char_traits@D@std@@V?$allocator@D@2@@std@@V?$weak_ptr@VRawImageData@@@2@U?$less@V?$basic_string@DU?$char_traits@D@std@@V?$allocator@D@2@@std@@@2@V?$allocator@U?$pair@$$CBV?$basic_string@DU?$char_traits@D@std@@V?$allocator@D@2@@std@@V?$weak_ptr@VRawImageData@@@2@@std@@@2@$0A@@std@@@std@@QAE?AV?$_Tree_iterator@V?$_Tree_val@U?$_Tree_simple_types@U?$pair@$$CBV?$basic_string@DU?$char_traits@D@std@@V?$allocator@D@2@@std@@V?$weak_ptr@VRawImageData@@@2@@std@@@std@@@std@@@2@V?$_Tree_const_iterator@V?$_Tree_val@U?$_Tree_simple_types@U?$pair@$$CBV?$basic_string@DU?$char_traits@D@std@@V?$allocator@D@2@@std@@V?$weak_ptr@VRawImageData@@@2@@std@@@std@@@std@@@2@@Z 00400000     ImageObjectDemo.obj
 0002:fffc3000       __unwindtable$?erase@?$_Tree@V?$_Tmap_traits@V?$basic_string@DU?$char_traits@D@std@@V?$allocator@D@2@@std@@V?$weak_ptr@VRawImageData@@@2@U?$less@V?$basic_string@DU?$char_traits@D@std@@V?$allocator@D@2@@std@@@2@V?$allocator@U?$pair@$$CBV?$basic_string@DU?$char_traits@D@std@@V?$allocator@D@2@@std@@V?$weak_ptr@VRawImageData@@@2@@std@@@2@$0A@@std@@@std@@QAE?AV?$_Tree_iterator@V?$_Tree_val@U?$_Tree_simple_types@U?$pair@$$CBV?$basic_string@DU?$char_traits@D@std@@V?$allocator@D@2@@std@@V?$weak_ptr@VRawImageData@@@2@@std@@@std@@@std@@@2@V?$_Tree_const_iterator@V?$_Tree_val@U?$_Tree_simple_types@U?$pair@$$CBV?$basic_string@DU?$char_traits@D@std@@V?$allocator@D@2@@std@@V?$weak_ptr@VRawImageData@@@2@@std@@@std@@@std@@@2@0@Z 00400000     ImageObjectDemo.obj
 0002:fffc3000       __ehfuncinfo$?clear@?$_Tree@V?$_Tmap_traits@V?$basic_string@DU?$char_traits@D@std@@V?$allocator@D@2@@std@@V?$weak_ptr@VRawImageData@@@2@U?$less@V?$basic_string@DU?$char_traits@D@std@@V?$allocator@D@2@@std@@@2@V?$allocator@U?$pair@$$CBV?$basic_string@DU?$char_traits@D@std@@V?$allocator@D@2@@std@@V?$weak_ptr@VRawImageData@@@2@@std@@@2@$0A@@std@@@std@@QAEXXZ 00400000     ImageObjectDemo.obj
 0002:fffc3000       __unwindtable$?find@?$_Tree@V?$_Tmap_traits@V?$basic_string@DU?$char_traits@D@std@@V?$allocator@D@2@@std@@V?$weak_ptr@VRawImageData@@@2@U?$less@V?$basic_string@DU?$char_traits@D@std@@V?$allocator@D@2@@std@@@2@V?$allocator@U?$pair@$$CBV?$basic_string@DU?$char_traits@D@std@@V?$allocator@D@2@@std@@V?$weak_ptr@VRawImageData@@@2@@std@@@2@$0A@@std@@@std@@QAE?AV?$_Tree_iterator@V?$_Tree_val@U?$_Tree_simple_types@U?$pair@$$CBV?$basic_string@DU?$char_traits@D@std@@V?$allocator@D@2@@std@@V?$weak_ptr@VRawImageData@@@2@@std@@@std@@@std@@@2@ABV?$basic_string@DU?$char_traits@D@std@@V?$allocator@D@2@@2@@Z 00400000     ImageObjectDemo.obj
 0002:fffc3000       __unwindtable$?_Orphan_ptr@?$_Tree@V?$_Tmap_traits@V?$basic_string@DU?$char_traits@D@std@@V?$allocator@D@2@@std@@V?$weak_ptr@VRawImageData@@@2@U?$less@V?$basic_string@DU?$char_traits@D@std@@V?$allocator@D@2@@std@@@2@V?$allocator@U?$pair@$$CBV?$basic_string@DU?$char_traits@D@std@@V?$allocator@D@2@@std@@V?$weak_ptr@VRawImageData@@@2@@std@@@2@$0A@@std@@@std@@IAEXPAU?$_Tree_node@U?$pair@$$CBV?$basic_string@DU?$char_traits@D@std@@V?$allocator@D@2@@std@@V?$weak_ptr@VRawImageData@@@2@@std@@PAX@2@@Z 00400000     ImageObjectDemo.obj
 0002:fffc3000       __unwindtable$?_Tidy@?$_Tree@V?$_Tmap_traits@V?$basic_string@DU?$char_traits@D@std@@V?$allocator@D@2@@std@@V?$weak_ptr@VRawImageData@@@2@U?$less@V?$basic_string@DU?$char_traits@D@std@@V?$allocator@D@2@@std@@@2@V?$allocator@U?$pair@$$CBV?$basic_string@DU?$char_traits@D@std@@V?$allocator@D@2@@std@@V?$weak_ptr@VRawImageData@@@2@@std@@@2@$0A@@std@@@std@@IAEXXZ 00400000     ImageObjectDemo.obj
 0002:fffc3000       __catchsym$?_Construct@?$_Tree_comp_alloc@V?$_Tmap_traits@V?$basic_string@DU?$char_traits@D@std@@V?$allocator@D@2@@std@@V?$shared_ptr@VRawImageData@@@2@U?$less@V?$basic_string@DU?$char_traits@D@std@@V?$allocator@D@2@@std@@@2@V?$allocator@U?$pair@$$CBV?$basic_string@DU?$char_traits@D@std@@V?$allocator@D@2@@std@@V?$shared_ptr@VRawImageData@@@2@@std@@@2@$0A@@std@@@std@@QAEXXZ$2 00400000     ImageObjectDemo.obj
 0002:fffc3000       __ehfuncinfo$??1?$_Tree_comp_alloc@V?$_Tmap_traits@V?$basic_string@DU?$char_traits@D@std@@V?$allocator@D@2@@std@@V?$shared_ptr@VRawImageData@@@2@U?$less@V?$basic_string@DU?$char_traits@D@std@@V?$allocator@D@2@@std@@@2@V?$allocator@U?$pair@$$CBV?$basic_string@DU?$char_traits@D@std@@V?$allocator@D@2@@std@@V?$shared_ptr@VRawImageData@@@2@@std@@@2@$0A@@std@@@std@@QAE@XZ 00400000     ImageObjectDemo.obj
 0002:fffc3000       __catchsym$?_Buyheadnode@?$_Tree_comp_alloc@V?$_Tmap_traits@V?$basic_string@DU?$char_traits@D@std@@V?$allocator@D@2@@std@@V?$shared_ptr@VRawImageData@@@2@U?$less@V?$basic_string@DU?$char_traits@D@std@@V?$allocator@D@2@@std@@@2@V?$allocator@U?$pair@$$CBV?$basic_string@DU?$char_traits@D@std@@V?$allocator@D@2@@std@@V?$shared_ptr@VRawImageData@@@2@@std@@@2@$0A@@std@@@std@@QAEPAU?$_Tree_node@U?$pair@$$CBV?$basic_string@DU?$char_traits@D@std@@V?$allocator@D@2@@std@@V?$shared_ptr@VRawImageData@@@2@@std@@PAX@2@XZ$2 00400000     ImageObjectDemo.obj
 0002:fffc3000       __catchsym$?_Buynode0@?$_Tree_comp_alloc@V?$_Tmap_traits@V?$basic_string@DU?$char_traits@D@std@@V?$allocator@D@2@@std@@V?$shared_ptr@VRawImageData@@@2@U?$less@V?$basic_string@DU?$char_traits@D@std@@V?$allocator@D@2@@std@@@2@V?$allocator@U?$pair@$$CBV?$basic_string@DU?$char_traits@D@std@@V?$allocator@D@2@@std@@V?$shared_ptr@VRawImageData@@@2@@std@@@2@$0A@@std@@@std@@QAEPAU?$_Tree_node@U?$pair@$$CBV?$basic_string@DU?$char_traits@D@std@@V?$allocator@D@2@@std@@V?$shared_ptr@VRawImageData@@@2@@std@@PAX@2@XZ$2 00400000     ImageObjectDemo.obj
 0002:fffc3000       __unwindtable$?_Extract@?$_Tree_val@U?$_Tree_simple_types@U?$pair@$$CBV?$basic_string@DU?$char_traits@D@std@@V?$allocator@D@2@@std@@V?$shared_ptr@VRawImageData@@@2@@std@@@std@@@std@@QAEPAU?$_Tree_node@U?$pair@$$CBV?$basic_string@DU?$char_traits@D@std@@V?$allocator@D@2@@std@@V?$shared_ptr@VRawImageData@@@2@@std@@PAX@2@V?$_Tree_const_iterator@V?$_Tree_val@U?$_Tree_simple_types@U?$pair@$$CBV?$basic_string@DU?$char_traits@D@std@@V?$allocator@D@2@@std@@V?$shared_ptr@VRawImageData@@@2@@std@@@std@@@std@@@2@@Z 00400000     ImageObjectDemo.obj
 0002:fffc3000       __catchsym$??$_Insert_nohint@AAU?$pair@$$CBV?$basic_string@DU?$char_traits@D@std@@V?$allocator@D@2@@std@@V?$shared_ptr@VRawImageData@@@2@@std@@PAU?$_Tree_node@U?$pair@$$CBV?$basic_string@DU?$char_traits@D@std@@V?$allocator@D@2@@std@@V?$shared_ptr@VRawImageData@@@2@@std@@PAX@2@@?$_Tree@V?$_Tmap_traits@V?$basic_string@DU?$char_traits@D@std@@V?$allocator@D@2@@std@@V?$shared_ptr@VRawImageData@@@2@U?$less@V?$basic_string@DU?$char_traits@D@std@@V?$allocator@D@2@@std@@@2@V?$allocator@U?$pair@$$CBV?$basic_string@DU?$char_traits@D@std@@V?$allocator@D@2@@std@@V?$shared_ptr@VRawImageData@@@2@@std@@@2@$0A@@std@@@std@@IAE?AU?$pair@V?$_Tree_iterator@V?$_Tree_val@U?$_Tree_simple_types@U?$pair@$$CBV?$basic_string@DU?$char_traits@D@std@@V?$allocator@D@2@@std@@V?$shared_ptr@VRawImageData@@@2@@std@@@std@@@std@@@std@@_N@1@_NAAU?$pair@$$CBV?$basic_string@DU?$char_traits@D@std@@V?$allocator@D@2@@std@@V?$shared_ptr@VRawImageData@@@2@@1@PAU?$_Tree_node@U?$pair@$$CBV?$basic_string@DU?$char_traits@D@std@@V?$allocator@D@2@@std@@V?$shared_ptr@VRawImageData@@@2@@std@@PAX@1@@Z$8 00400000     ZoomingDemo.obj
 0002:fffc3000       __ehfuncinfo$??1?$_Tree@V?$_Tmap_traits@V?$basic_string@DU?$char_traits@D@std@@V?$allocator@D@2@@std@@V?$shared_ptr@VRawImageData@@@2@U?$less@V?$basic_string@DU?$char_traits@D@std@@V?$allocator@D@2@@std@@@2@V?$allocator@U?$pair@$$CBV?$basic_string@DU?$char_traits@D@std@@V?$allocator@D@2@@std@@V?$shared_ptr@VRawImageData@@@2@@std@@@2@$0A@@std@@@std@@QAE@XZ 00400000     ImageObjectDemo.obj
 0002:fffc3000       __ehfuncinfo$?begin@?$_Tree@V?$_Tmap_traits@V?$basic_string@DU?$char_traits@D@std@@V?$allocator@D@2@@std@@V?$shared_ptr@VRawImageData@@@2@U?$less@V?$basic_string@DU?$char_traits@D@std@@V?$allocator@D@2@@std@@@2@V?$allocator@U?$pair@$$CBV?$basic_string@DU?$char_traits@D@std@@V?$allocator@D@2@@std@@V?$shared_ptr@VRawImageData@@@2@@std@@@2@$0A@@std@@@std@@QAE?AV?$_Tree_iterator@V?$_Tree_val@U?$_Tree_simple_types@U?$pair@$$CBV?$basic_string@DU?$char_traits@D@std@@V?$allocator@D@2@@std@@V?$shared_ptr@VRawImageData@@@2@@std@@@std@@@std@@@2@XZ 00400000     ImageObjectDemo.obj
 0002:fffc3000       __ehfuncinfo$?end@?$_Tree@V?$_Tmap_traits@V?$basic_string@DU?$char_traits@D@std@@V?$allocator@D@2@@std@@V?$shared_ptr@VRawImageData@@@2@U?$less@V?$basic_string@DU?$char_traits@D@std@@V?$allocator@D@2@@std@@@2@V?$allocator@U?$pair@$$CBV?$basic_string@DU?$char_traits@D@std@@V?$allocator@D@2@@std@@V?$shared_ptr@VRawImageData@@@2@@std@@@2@$0A@@std@@@std@@QAE?AV?$_Tree_iterator@V?$_Tree_val@U?$_Tree_simple_types@U?$pair@$$CBV?$basic_string@DU?$char_traits@D@std@@V?$allocator@D@2@@std@@V?$shared_ptr@VRawImageData@@@2@@std@@@std@@@std@@@2@XZ 00400000     ImageObjectDemo.obj
 0002:fffc3000       __catchsym$??$_Buynode@U?$pair@V?$basic_string@DU?$char_traits@D@std@@V?$allocator@D@2@@std@@V?$shared_ptr@VRawImageData@@@2@@std@@@?$_Tree_comp_alloc@V?$_Tmap_traits@V?$basic_string@DU?$char_traits@D@std@@V?$allocator@D@2@@std@@V?$shared_ptr@VRawImageData@@@2@U?$less@V?$basic_string@DU?$char_traits@D@std@@V?$allocator@D@2@@std@@@2@V?$allocator@U?$pair@$$CBV?$basic_string@DU?$char_traits@D@std@@V?$allocator@D@2@@std@@V?$shared_ptr@VRawImageData@@@2@@std@@@2@$0A@@std@@@std@@QAEPAU?$_Tree_node@U?$pair@$$CBV?$basic_string@DU?$char_traits@D@std@@V?$allocator@D@2@@std@@V?$shared_ptr@VRawImageData@@@2@@std@@PAX@1@$$QAU?$pair@V?$basic_string@DU?$char_traits@D@std@@V?$allocator@D@2@@std@@V?$shared_ptr@VRawImageData@@@2@@1@@Z$2 00400000     ZoomingDemo.obj
 0002:fffc3000       __unwindtable$?erase@?$_Tree@V?$_Tmap_traits@V?$basic_string@DU?$char_traits@D@std@@V?$allocator@D@2@@std@@V?$shared_ptr@VRawImageData@@@2@U?$less@V?$basic_string@DU?$char_traits@D@std@@V?$allocator@D@2@@std@@@2@V?$allocator@U?$pair@$$CBV?$basic_string@DU?$char_traits@D@std@@V?$allocator@D@2@@std@@V?$shared_ptr@VRawImageData@@@2@@std@@@2@$0A@@std@@@std@@QAE?AV?$_Tree_iterator@V?$_Tree_val@U?$_Tree_simple_types@U?$pair@$$CBV?$basic_string@DU?$char_traits@D@std@@V?$allocator@D@2@@std@@V?$shared_ptr@VRawImageData@@@2@@std@@@std@@@std@@@2@V?$_Tree_const_iterator@V?$_Tree_val@U?$_Tree_simple_types@U?$pair@$$CBV?$basic_string@DU?$char_traits@D@std@@V?$allocator@D@2@@std@@V?$shared_ptr@VRawImageData@@@2@@std@@@std@@@std@@@2@@Z 00400000     ImageObjectDemo.obj
 0002:fffc3000       __unwindtable$?erase@?$_Tree@V?$_Tmap_traits@V?$basic_string@DU?$char_traits@D@std@@V?$allocator@D@2@@std@@V?$shared_ptr@VRawImageData@@@2@U?$less@V?$basic_string@DU?$char_traits@D@std@@V?$allocator@D@2@@std@@@2@V?$allocator@U?$pair@$$CBV?$basic_string@DU?$char_traits@D@std@@V?$allocator@D@2@@std@@V?$shared_ptr@VRawImageData@@@2@@std@@@2@$0A@@std@@@std@@QAE?AV?$_Tree_iterator@V?$_Tree_val@U?$_Tree_simple_types@U?$pair@$$CBV?$basic_string@DU?$char_traits@D@std@@V?$allocator@D@2@@std@@V?$shared_ptr@VRawImageData@@@2@@std@@@std@@@std@@@2@V?$_Tree_const_iterator@V?$_Tree_val@U?$_Tree_simple_types@U?$pair@$$CBV?$basic_string@DU?$char_traits@D@std@@V?$allocator@D@2@@std@@V?$shared_ptr@VRawImageData@@@2@@std@@@std@@@std@@@2@0@Z 00400000     ImageObjectDemo.obj
 0002:fffc3000       __ehfuncinfo$?clear@?$_Tree@V?$_Tmap_traits@V?$basic_string@DU?$char_traits@D@std@@V?$allocator@D@2@@std@@V?$shared_ptr@VRawImageData@@@2@U?$less@V?$basic_string@DU?$char_traits@D@std@@V?$allocator@D@2@@std@@@2@V?$allocator@U?$pair@$$CBV?$basic_string@DU?$char_traits@D@std@@V?$allocator@D@2@@std@@V?$shared_ptr@VRawImageData@@@2@@std@@@2@$0A@@std@@@std@@QAEXXZ 00400000     ImageObjectDemo.obj
 0002:fffc3000       __catchsym$??$_Insert_nohint@AAU?$pair@$$CBV?$basic_string@DU?$char_traits@D@std@@V?$allocator@D@2@@std@@V?$weak_ptr@VRawImageData@@@2@@std@@PAU?$_Tree_node@U?$pair@$$CBV?$basic_string@DU?$char_traits@D@std@@V?$allocator@D@2@@std@@V?$weak_ptr@VRawImageData@@@2@@std@@PAX@2@@?$_Tree@V?$_Tmap_traits@V?$basic_string@DU?$char_traits@D@std@@V?$allocator@D@2@@std@@V?$weak_ptr@VRawImageData@@@2@U?$less@V?$basic_string@DU?$char_traits@D@std@@V?$allocator@D@2@@std@@@2@V?$allocator@U?$pair@$$CBV?$basic_string@DU?$char_traits@D@std@@V?$allocator@D@2@@std@@V?$weak_ptr@VRawImageData@@@2@@std@@@2@$0A@@std@@@std@@IAE?AU?$pair@V?$_Tree_iterator@V?$_Tree_val@U?$_Tree_simple_types@U?$pair@$$CBV?$basic_string@DU?$char_traits@D@std@@V?$allocator@D@2@@std@@V?$weak_ptr@VRawImageData@@@2@@std@@@std@@@std@@@std@@_N@1@_NAAU?$pair@$$CBV?$basic_string@DU?$char_traits@D@std@@V?$allocator@D@2@@std@@V?$weak_ptr@VRawImageData@@@2@@1@PAU?$_Tree_node@U?$pair@$$CBV?$basic_string@DU?$char_traits@D@std@@V?$allocator@D@2@@std@@V?$weak_ptr@VRawImageData@@@2@@std@@PAX@1@@Z$8 00400000     ZoomingDemo.obj
 0002:fffc3000       __unwindtable$?_Orphan_ptr@?$_Tree@V?$_Tmap_traits@V?$basic_string@DU?$char_traits@D@std@@V?$allocator@D@2@@std@@V?$shared_ptr@VRawImageData@@@2@U?$less@V?$basic_string@DU?$char_traits@D@std@@V?$allocator@D@2@@std@@@2@V?$allocator@U?$pair@$$CBV?$basic_string@DU?$char_traits@D@std@@V?$allocator@D@2@@std@@V?$shared_ptr@VRawImageData@@@2@@std@@@2@$0A@@std@@@std@@IAEXPAU?$_Tree_node@U?$pair@$$CBV?$basic_string@DU?$char_traits@D@std@@V?$allocator@D@2@@std@@V?$shared_ptr@VRawImageData@@@2@@std@@PAX@2@@Z 00400000     ImageObjectDemo.obj
 0002:fffc3000       __unwindtable$?_Tidy@?$_Tree@V?$_Tmap_traits@V?$basic_string@DU?$char_traits@D@std@@V?$allocator@D@2@@std@@V?$shared_ptr@VRawImageData@@@2@U?$less@V?$basic_string@DU?$char_traits@D@std@@V?$allocator@D@2@@std@@@2@V?$allocator@U?$pair@$$CBV?$basic_string@DU?$char_traits@D@std@@V?$allocator@D@2@@std@@V?$shared_ptr@VRawImageData@@@2@@std@@@2@$0A@@std@@@std@@IAEXXZ 00400000     ImageObjectDemo.obj
 0002:fffc3000       __unwindtable$?get@ImageManager@@SAPAV1@XZ 00400000     ImageObjectDemo.obj
 0002:fffc3000       __catchsym$??$_Buynode@U?$pair@V?$basic_string@DU?$char_traits@D@std@@V?$allocator@D@2@@std@@V?$weak_ptr@VRawImageData@@@2@@std@@@?$_Tree_comp_alloc@V?$_Tmap_traits@V?$basic_string@DU?$char_traits@D@std@@V?$allocator@D@2@@std@@V?$weak_ptr@VRawImageData@@@2@U?$less@V?$basic_string@DU?$char_traits@D@std@@V?$allocator@D@2@@std@@@2@V?$allocator@U?$pair@$$CBV?$basic_string@DU?$char_traits@D@std@@V?$allocator@D@2@@std@@V?$weak_ptr@VRawImageData@@@2@@std@@@2@$0A@@std@@@std@@QAEPAU?$_Tree_node@U?$pair@$$CBV?$basic_string@DU?$char_traits@D@std@@V?$allocator@D@2@@std@@V?$weak_ptr@VRawImageData@@@2@@std@@PAX@1@$$QAU?$pair@V?$basic_string@DU?$char_traits@D@std@@V?$allocator@D@2@@std@@V?$weak_ptr@VRawImageData@@@2@@1@@Z$2 00400000     ZoomingDemo.obj
 0002:fffc3000       __unwindtable$??0ImageManager@@QAE@XZ 00400000     ImageObjectDemo.obj
 0002:fffc3000       __ehfuncinfo$?getImagePtrbyURL@ImageManager@@QAE?AV?$shared_ptr@VRawImageData@@@std@@V?$basic_string@DU?$char_traits@D@std@@V?$allocator@D@2@@3@_N1@Z 00400000     ImageObjectDemo.obj
 0002:fffc3000       __unwindtable$?getImagebyURL@ImageManager@@QAE?AVSimpleImage@@V?$basic_string@DU?$char_traits@D@std@@V?$allocator@D@2@@std@@_N1@Z 00400000     ImageObjectDemo.obj
 0002:fffc3000       __catchsym$??$_Insert_string@DU?$char_traits@D@std@@I@std@@YAAAV?$basic_ostream@DU?$char_traits@D@std@@@0@AAV10@QBDI@Z$3 00400000     ZoomingDemo.obj
 0002:fffc3000       __unwindtable$?loadAsNew@ImageManager@@QAE?AV?$shared_ptr@VRawImageData@@@std@@V?$basic_string@DU?$char_traits@D@std@@V?$allocator@D@2@@3@@Z 00400000     ImageObjectDemo.obj
 0002:fffc3000       __unwindtable$??E?$_Tree_const_iterator@V?$_Tree_val@U?$_Tree_simple_types@U?$pair@$$CBV?$basic_string@DU?$char_traits@D@std@@V?$allocator@D@2@@std@@V?$weak_ptr@VRawImageData@@@2@@std@@@std@@@std@@@std@@QAE?AV01@H@Z 00400000     ImageObjectDemo.obj
 0002:fffc3000       __ehfuncinfo$??0?$weak_ptr@VRawImageData@@@std@@QAE@ABV01@@Z 00400000     ImageObjectDemo.obj
 0002:fffc3000       __ehfuncinfo$??1sentry@?$basic_ostream@DU?$char_traits@D@std@@@std@@QAE@XZ 00400000     ZoomingDemo.obj
 0002:fffc3000       __unwindtable$??0sentry@?$basic_ostream@DU?$char_traits@D@std@@@std@@QAE@AAV12@@Z 00400000     ZoomingDemo.obj
 0002:fffc3000       __ehfuncinfo$??0?$weak_ptr@VRawImageData@@@std@@QAE@$$QAV01@@Z 00400000     ImageObjectDemo.obj
 0002:fffc3000       __ehfuncinfo$??1_Sentry_base@?$basic_ostream@DU?$char_traits@D@std@@@std@@QAE@XZ 00400000     ZoomingDemo.obj
 0002:fffc3000       __catchsym$??$_Setp@VRawImageData@@@?$shared_ptr@VRawImageData@@@std@@AAEXPAVRawImageData@@U?$integral_constant@_N$0A@@1@@Z$3 00400000     ZoomingDemo.obj
 0002:fffc3000       __ehfuncinfo$??1?$weak_ptr@VRawImageData@@@std@@QAE@XZ 00400000     ImageObjectDemo.obj
 0002:fffc3000       __ehfuncinfo$?lock@?$weak_ptr@VRawImageData@@@std@@QBE?AV?$shared_ptr@VRawImageData@@@2@XZ 00400000     ImageObjectDemo.obj
 0002:fffc3000       __unwindtable$??$erase@V?$_Tree_iterator@V?$_Tree_val@U?$_Tree_simple_types@U?$pair@$$CBV?$basic_string@DU?$char_traits@D@std@@V?$allocator@D@2@@std@@V?$weak_ptr@VRawImageData@@@2@@std@@@std@@@std@@@std@@X@?$_Tree@V?$_Tmap_traits@V?$basic_string@DU?$char_traits@D@std@@V?$allocator@D@2@@std@@V?$weak_ptr@VRawImageData@@@2@U?$less@V?$basic_string@DU?$char_traits@D@std@@V?$allocator@D@2@@std@@@2@V?$allocator@U?$pair@$$CBV?$basic_string@DU?$char_traits@D@std@@V?$allocator@D@2@@std@@V?$weak_ptr@VRawImageData@@@2@@std@@@2@$0A@@std@@@std@@QAE?AV?$_Tree_iterator@V?$_Tree_val@U?$_Tree_simple_types@U?$pair@$$CBV?$basic_string@DU?$char_traits@D@std@@V?$allocator@D@2@@std@@V?$weak_ptr@VRawImageData@@@2@@std@@@std@@@std@@@1@V21@@Z 00400000     ImageObjectDemo.obj
 0002:fffc3000       __ehfuncinfo$??$_Freenode0@V?$allocator@U?$_Tree_node@U?$pair@$$CBV?$basic_string@DU?$char_traits@D@std@@V?$allocator@D@2@@std@@V?$weak_ptr@VRawImageData@@@2@@std@@PAX@std@@@std@@@?$_Tree_node@U?$pair@$$CBV?$basic_string@DU?$char_traits@D@std@@V?$allocator@D@2@@std@@V?$weak_ptr@VRawImageData@@@2@@std@@PAX@std@@SAXAAV?$allocator@U?$_Tree_node@U?$pair@$$CBV?$basic_string@DU?$char_traits@D@std@@V?$allocator@D@2@@std@@V?$weak_ptr@VRawImageData@@@2@@std@@PAX@std@@@1@PAU01@@Z 00400000     ZoomingDemo.obj
 0002:fffc3000       __ehfuncinfo$??$_Freenode0@V?$allocator@U?$_Tree_node@U?$pair@$$CBV?$basic_string@DU?$char_traits@D@std@@V?$allocator@D@2@@std@@V?$shared_ptr@VRawImageData@@@2@@std@@PAX@std@@@std@@@?$_Tree_node@U?$pair@$$CBV?$basic_string@DU?$char_traits@D@std@@V?$allocator@D@2@@std@@V?$shared_ptr@VRawImageData@@@2@@std@@PAX@std@@SAXAAV?$allocator@U?$_Tree_node@U?$pair@$$CBV?$basic_string@DU?$char_traits@D@std@@V?$allocator@D@2@@std@@V?$shared_ptr@VRawImageData@@@2@@std@@PAX@std@@@1@PAU01@@Z 00400000     ZoomingDemo.obj
 0002:fffc3000       __unwindtable$??$?0V?$allocator@D@std@@X@?$_String_alloc@U?$_String_base_types@DV?$allocator@D@std@@@std@@@std@@QAE@$$QAV?$allocator@D@1@@Z 00400000     ZoomingDemo.obj
 0002:fffc3000       __ehfuncinfo$??$?0VRawImageData@@$0A@@?$weak_ptr@VRawImageData@@@std@@QAE@ABV?$shared_ptr@VRawImageData@@@1@@Z 00400000     ImageObjectDemo.obj
 0002:fffc3000       __catchsym$??$_Resize@V<lambda_2afd52570c452b238925c6f475a76105>@@@?$vector@PAVDisplayableObject@@V?$allocator@PAVDisplayableObject@@@std@@@std@@AAEXIV<lambda_2afd52570c452b238925c6f475a76105>@@@Z$2 00400000     ZoomingDemo.obj
 0002:fffc3000       __unwindtable$??E?$_Tree_const_iterator@V?$_Tree_val@U?$_Tree_simple_types@U?$pair@$$CBV?$basic_string@DU?$char_traits@D@std@@V?$allocator@D@2@@std@@V?$shared_ptr@VRawImageData@@@2@@std@@@std@@@std@@@std@@QAE?AV01@H@Z 00400000     ImageObjectDemo.obj
 0001:fffff000       __ehhandler$??1?$_Tree_comp_alloc@V?$_Tmap_traits@V?$basic_string@DU?$char_traits@D@std@@V?$allocator@D@2@@std@@V?$shared_ptr@VRawImageData@@@2@U?$less@V?$basic_string@DU?$char_traits@D@std@@V?$allocator@D@2@@std@@@2@V?$allocator@U?$pair@$$CBV?$basic_string@DU?$char_traits@D@std@@V?$allocator@D@2@@std@@V?$shared_ptr@VRawImageData@@@2@@std@@@2@$0A@@std@@@std@@QAE@XZ 00400000 f   ImageObjectDemo.obj
 0001:fffff000       __ehhandler$?_Construct@?$_Tree_comp_alloc@V?$_Tmap_traits@V?$basic_string@DU?$char_traits@D@std@@V?$allocator@D@2@@std@@V?$shared_ptr@VRawImageData@@@2@U?$less@V?$basic_string@DU?$char_traits@D@std@@V?$allocator@D@2@@std@@@2@V?$allocator@U?$pair@$$CBV?$basic_string@DU?$char_traits@D@std@@V?$allocator@D@2@@std@@V?$shared_ptr@VRawImageData@@@2@@std@@@2@$0A@@std@@@std@@QAEXXZ 00400000 f   ImageObjectDemo.obj
 0001:fffff000       __unwindfunclet$?_Tidy@?$_Tree@V?$_Tmap_traits@V?$basic_string@DU?$char_traits@D@std@@V?$allocator@D@2@@std@@V?$weak_ptr@VRawImageData@@@2@U?$less@V?$basic_string@DU?$char_traits@D@std@@V?$allocator@D@2@@std@@@2@V?$allocator@U?$pair@$$CBV?$basic_string@DU?$char_traits@D@std@@V?$allocator@D@2@@std@@V?$weak_ptr@VRawImageData@@@2@@std@@@2@$0A@@std@@@std@@IAEXXZ$0 00400000 f   ImageObjectDemo.obj
 0001:fffff000       __unwindfunclet$?_Orphan_ptr@?$_Tree@V?$_Tmap_traits@V?$basic_string@DU?$char_traits@D@std@@V?$allocator@D@2@@std@@V?$weak_ptr@VRawImageData@@@2@U?$less@V?$basic_string@DU?$char_traits@D@std@@V?$allocator@D@2@@std@@@2@V?$allocator@U?$pair@$$CBV?$basic_string@DU?$char_traits@D@std@@V?$allocator@D@2@@std@@V?$weak_ptr@VRawImageData@@@2@@std@@@2@$0A@@std@@@std@@IAEXPAU?$_Tree_node@U?$pair@$$CBV?$basic_string@DU?$char_traits@D@std@@V?$allocator@D@2@@std@@V?$weak_ptr@VRawImageData@@@2@@std@@PAX@2@@Z$0 00400000 f   ImageObjectDemo.obj
 0002:fffc3000       __unwindtable$??0DragableImageObject@@QAE@HHPAVBaseEngine@@V?$basic_string@DU?$char_traits@D@std@@V?$allocator@D@2@@std@@_N2@Z 00400000     ZoomingDemo.obj
 0001:fffff000       __unwindfunclet$?find@?$_Tree@V?$_Tmap_traits@V?$basic_string@DU?$char_traits@D@std@@V?$allocator@D@2@@std@@V?$weak_ptr@VRawImageData@@@2@U?$less@V?$basic_string@DU?$char_traits@D@std@@V?$allocator@D@2@@std@@@2@V?$allocator@U?$pair@$$CBV?$basic_string@DU?$char_traits@D@std@@V?$allocator@D@2@@std@@V?$weak_ptr@VRawImageData@@@2@@std@@@2@$0A@@std@@@std@@QAE?AV?$_Tree_iterator@V?$_Tree_val@U?$_Tree_simple_types@U?$pair@$$CBV?$basic_string@DU?$char_traits@D@std@@V?$allocator@D@2@@std@@V?$weak_ptr@VRawImageData@@@2@@std@@@std@@@std@@@2@ABV?$basic_string@DU?$char_traits@D@std@@V?$allocator@D@2@@2@@Z$0 00400000 f   ImageObjectDemo.obj
 0002:fffc3000       __catchsym$??$_Resize@V<lambda_2afd52570c452b238925c6f475a76105>@@@?$vector@PAVDisplayableObject@@V?$allocator@PAVDisplayableObject@@@std@@@std@@AAEXIV<lambda_2afd52570c452b238925c6f475a76105>@@@Z$2 00400000     ImageObjectDemo.obj
 0002:fffc3000       __unwindtable$??$?0V?$allocator@D@std@@X@?$_String_alloc@U?$_String_base_types@DV?$allocator@D@std@@@std@@@std@@QAE@$$QAV?$allocator@D@1@@Z 00400000     ImageObjectDemo.obj
 0002:fffc3000       __unwindtable$??0DragableObject@@QAE@HHPAVBaseEngine@@HH_N1@Z 00400000     ZoomingDemo.obj
 0002:fffc3000       __ehfuncinfo$??$_Freenode0@V?$allocator@U?$_Tree_node@U?$pair@$$CBV?$basic_string@DU?$char_traits@D@std@@V?$allocator@D@2@@std@@V?$shared_ptr@VRawImageData@@@2@@std@@PAX@std@@@std@@@?$_Tree_node@U?$pair@$$CBV?$basic_string@DU?$char_traits@D@std@@V?$allocator@D@2@@std@@V?$shared_ptr@VRawImageData@@@2@@std@@PAX@std@@SAXAAV?$allocator@U?$_Tree_node@U?$pair@$$CBV?$basic_string@DU?$char_traits@D@std@@V?$allocator@D@2@@std@@V?$shared_ptr@VRawImageData@@@2@@std@@PAX@std@@@1@PAU01@@Z 00400000     ImageObjectDemo.obj
 0002:fffc3000       __unwindtable$?_Orphan_range@?$vector@PAVDisplayableObject@@V?$allocator@PAVDisplayableObject@@@std@@@std@@ABEXPAPAVDisplayableObject@@0@Z 00400000     ZoomingDemo.obj
 0002:fffc3000       __ehfuncinfo$??$_Freenode0@V?$allocator@U?$_Tree_node@U?$pair@$$CBV?$basic_string@DU?$char_traits@D@std@@V?$allocator@D@2@@std@@V?$weak_ptr@VRawImageData@@@2@@std@@PAX@std@@@std@@@?$_Tree_node@U?$pair@$$CBV?$basic_string@DU?$char_traits@D@std@@V?$allocator@D@2@@std@@V?$weak_ptr@VRawImageData@@@2@@std@@PAX@std@@SAXAAV?$allocator@U?$_Tree_node@U?$pair@$$CBV?$basic_string@DU?$char_traits@D@std@@V?$allocator@D@2@@std@@V?$weak_ptr@VRawImageData@@@2@@std@@PAX@std@@@1@PAU01@@Z 00400000     ImageObjectDemo.obj
 0002:fffc3000       __unwindtable$??E?$_Tree_const_iterator@V?$_Tree_val@U?$_Tree_simple_types@U?$pair@$$CBV?$basic_string@DU?$char_traits@D@std@@V?$allocator@D@2@@std@@V?$shared_ptr@VRawImageData@@@2@@std@@@std@@@std@@@std@@QAE?AV01@H@Z 00400000     ZoomingDemo.obj
 0002:fffc3000       __ehfuncinfo$??1_Sentry_base@?$basic_ostream@DU?$char_traits@D@std@@@std@@QAE@XZ 00400000     ImageObjectDemo.obj
 0002:fffc3000       __ehfuncinfo$??$?0VRawImageData@@$0A@@?$weak_ptr@VRawImageData@@@std@@QAE@ABV?$shared_ptr@VRawImageData@@@1@@Z 00400000     ZoomingDemo.obj
 0002:fffc3000       __catchsym$??$?6U?$char_traits@D@std@@@std@@YAAAV?$basic_ostream@DU?$char_traits@D@std@@@0@AAV10@PBD@Z$3 00400000     ZoomingDemo.obj
 0002:fffc3000       __unwindtable$??0sentry@?$basic_ostream@DU?$char_traits@D@std@@@std@@QAE@AAV12@@Z 00400000     ImageObjectDemo.obj
 0002:fffc3000       __ehfuncinfo$??1sentry@?$basic_ostream@DU?$char_traits@D@std@@@std@@QAE@XZ 00400000     ImageObjectDemo.obj
 0002:fffc3000       __catchsym$??$_Setp@VRawImageData@@@?$shared_ptr@VRawImageData@@@std@@AAEXPAVRawImageData@@U?$integral_constant@_N$0A@@1@@Z$3 00400000     ImageObjectDemo.obj
 0002:fffc3000       __unwindtable$??$erase@V?$_Tree_iterator@V?$_Tree_val@U?$_Tree_simple_types@U?$pair@$$CBV?$basic_string@DU?$char_traits@D@std@@V?$allocator@D@2@@std@@V?$weak_ptr@VRawImageData@@@2@@std@@@std@@@std@@@std@@X@?$_Tree@V?$_Tmap_traits@V?$basic_string@DU?$char_traits@D@std@@V?$allocator@D@2@@std@@V?$weak_ptr@VRawImageData@@@2@U?$less@V?$basic_string@DU?$char_traits@D@std@@V?$allocator@D@2@@std@@@2@V?$allocator@U?$pair@$$CBV?$basic_string@DU?$char_traits@D@std@@V?$allocator@D@2@@std@@V?$weak_ptr@VRawImageData@@@2@@std@@@2@$0A@@std@@@std@@QAE?AV?$_Tree_iterator@V?$_Tree_val@U?$_Tree_simple_types@U?$pair@$$CBV?$basic_string@DU?$char_traits@D@std@@V?$allocator@D@2@@std@@V?$weak_ptr@VRawImageData@@@2@@std@@@std@@@std@@@1@V21@@Z 00400000     ZoomingDemo.obj
 0002:fffc3000       __catchsym$??$_Insert_string@DU?$char_traits@D@std@@I@std@@YAAAV?$basic_ostream@DU?$char_traits@D@std@@@0@AAV10@QBDI@Z$3 00400000     ImageObjectDemo.obj
 0002:fffc3000       __ehfuncinfo$?lock@?$weak_ptr@VRawImageData@@@std@@QBE?AV?$shared_ptr@VRawImageData@@@2@XZ 00400000     ZoomingDemo.obj
 0002:fffc3000       __ehfuncinfo$??1?$weak_ptr@VRawImageData@@@std@@QAE@XZ 00400000     ZoomingDemo.obj
 0002:fffc3000       __ehfuncinfo$??0?$weak_ptr@VRawImageData@@@std@@QAE@$$QAV01@@Z 00400000     ZoomingDemo.obj
 0002:fffc3000       __ehfuncinfo$??0?$weak_ptr@VRawImageData@@@std@@QAE@ABV01@@Z 00400000     ZoomingDemo.obj
 0002:fffc3000       __unwindtable$??E?$_Tree_const_iterator@V?$_Tree_val@U?$_Tree_simple_types@U?$pair@$$CBV?$basic_string@DU?$char_traits@D@std@@V?$allocator@D@2@@std@@V?$weak_ptr@VRawImageData@@@2@@std@@@std@@@std@@@std@@QAE?AV01@H@Z 00400000     ZoomingDemo.obj
 0002:fffc3000       __catchsym$??$_Buynode@U?$pair@V?$basic_string@DU?$char_traits@D@std@@V?$allocator@D@2@@std@@V?$weak_ptr@VRawImageData@@@2@@std@@@?$_Tree_comp_alloc@V?$_Tmap_traits@V?$basic_string@DU?$char_traits@D@std@@V?$allocator@D@2@@std@@V?$weak_ptr@VRawImageData@@@2@U?$less@V?$basic_string@DU?$char_traits@D@std@@V?$allocator@D@2@@std@@@2@V?$allocator@U?$pair@$$CBV?$basic_string@DU?$char_traits@D@std@@V?$allocator@D@2@@std@@V?$weak_ptr@VRawImageData@@@2@@std@@@2@$0A@@std@@@std@@QAEPAU?$_Tree_node@U?$pair@$$CBV?$basic_string@DU?$char_traits@D@std@@V?$allocator@D@2@@std@@V?$weak_ptr@VRawImageData@@@2@@std@@PAX@1@$$QAU?$pair@V?$basic_string@DU?$char_traits@D@std@@V?$allocator@D@2@@std@@V?$weak_ptr@VRawImageData@@@2@@1@@Z$2 00400000     ImageObjectDemo.obj
 0002:fffc3000       __unwindtable$?loadAsNew@ImageManager@@QAE?AV?$shared_ptr@VRawImageData@@@std@@V?$basic_string@DU?$char_traits@D@std@@V?$allocator@D@2@@3@@Z 00400000     ZoomingDemo.obj
 0002:fffc3000       __catchsym$??$_Insert_nohint@AAU?$pair@$$CBV?$basic_string@DU?$char_traits@D@std@@V?$allocator@D@2@@std@@V?$weak_ptr@VRawImageData@@@2@@std@@PAU?$_Tree_node@U?$pair@$$CBV?$basic_string@DU?$char_traits@D@std@@V?$allocator@D@2@@std@@V?$weak_ptr@VRawImageData@@@2@@std@@PAX@2@@?$_Tree@V?$_Tmap_traits@V?$basic_string@DU?$char_traits@D@std@@V?$allocator@D@2@@std@@V?$weak_ptr@VRawImageData@@@2@U?$less@V?$basic_string@DU?$char_traits@D@std@@V?$allocator@D@2@@std@@@2@V?$allocator@U?$pair@$$CBV?$basic_string@DU?$char_traits@D@std@@V?$allocator@D@2@@std@@V?$weak_ptr@VRawImageData@@@2@@std@@@2@$0A@@std@@@std@@IAE?AU?$pair@V?$_Tree_iterator@V?$_Tree_val@U?$_Tree_simple_types@U?$pair@$$CBV?$basic_string@DU?$char_traits@D@std@@V?$allocator@D@2@@std@@V?$weak_ptr@VRawImageData@@@2@@std@@@std@@@std@@@std@@_N@1@_NAAU?$pair@$$CBV?$basic_string@DU?$char_traits@D@std@@V?$allocator@D@2@@std@@V?$weak_ptr@VRawImageData@@@2@@1@PAU?$_Tree_node@U?$pair@$$CBV?$basic_string@DU?$char_traits@D@std@@V?$allocator@D@2@@std@@V?$weak_ptr@VRawImageData@@@2@@std@@PAX@1@@Z$8 00400000     ImageObjectDemo.obj
 0002:fffc3000       __unwindtable$?getImagebyURL@ImageManager@@QAE?AVSimpleImage@@V?$basic_string@DU?$char_traits@D@std@@V?$allocator@D@2@@std@@_N1@Z 00400000     ZoomingDemo.obj
 0002:fffc3000       __catchsym$??$_Buynode@U?$pair@V?$basic_string@DU?$char_traits@D@std@@V?$allocator@D@2@@std@@V?$shared_ptr@VRawImageData@@@2@@std@@@?$_Tree_comp_alloc@V?$_Tmap_traits@V?$basic_string@DU?$char_traits@D@std@@V?$allocator@D@2@@std@@V?$shared_ptr@VRawImageData@@@2@U?$less@V?$basic_string@DU?$char_traits@D@std@@V?$allocator@D@2@@std@@@2@V?$allocator@U?$pair@$$CBV?$basic_string@DU?$char_traits@D@std@@V?$allocator@D@2@@std@@V?$shared_ptr@VRawImageData@@@2@@std@@@2@$0A@@std@@@std@@QAEPAU?$_Tree_node@U?$pair@$$CBV?$basic_string@DU?$char_traits@D@std@@V?$allocator@D@2@@std@@V?$shared_ptr@VRawImageData@@@2@@std@@PAX@1@$$QAU?$pair@V?$basic_string@DU?$char_traits@D@std@@V?$allocator@D@2@@std@@V?$shared_ptr@VRawImageData@@@2@@1@@Z$2 00400000     ImageObjectDemo.obj
 0002:fffc3000       __catchsym$??$_Insert_nohint@AAU?$pair@$$CBV?$basic_string@DU?$char_traits@D@std@@V?$allocator@D@2@@std@@V?$shared_ptr@VRawImageData@@@2@@std@@PAU?$_Tree_node@U?$pair@$$CBV?$basic_string@DU?$char_traits@D@std@@V?$allocator@D@2@@std@@V?$shared_ptr@VRawImageData@@@2@@std@@PAX@2@@?$_Tree@V?$_Tmap_traits@V?$basic_string@DU?$char_traits@D@std@@V?$allocator@D@2@@std@@V?$shared_ptr@VRawImageData@@@2@U?$less@V?$basic_string@DU?$char_traits@D@std@@V?$allocator@D@2@@std@@@2@V?$allocator@U?$pair@$$CBV?$basic_string@DU?$char_traits@D@std@@V?$allocator@D@2@@std@@V?$shared_ptr@VRawImageData@@@2@@std@@@2@$0A@@std@@@std@@IAE?AU?$pair@V?$_Tree_iterator@V?$_Tree_val@U?$_Tree_simple_types@U?$pair@$$CBV?$basic_string@DU?$char_traits@D@std@@V?$allocator@D@2@@std@@V?$shared_ptr@VRawImageData@@@2@@std@@@std@@@std@@@std@@_N@1@_NAAU?$pair@$$CBV?$basic_string@DU?$char_traits@D@std@@V?$allocator@D@2@@std@@V?$shared_ptr@VRawImageData@@@2@@1@PAU?$_Tree_node@U?$pair@$$CBV?$basic_string@DU?$char_traits@D@std@@V?$allocator@D@2@@std@@V?$shared_ptr@VRawImageData@@@2@@std@@PAX@1@@Z$8 00400000     ImageObjectDemo.obj
 0002:fffc3000       __ehfuncinfo$?getImagePtrbyURL@ImageManager@@QAE?AV?$shared_ptr@VRawImageData@@@std@@V?$basic_string@DU?$char_traits@D@std@@V?$allocator@D@2@@3@_N1@Z 00400000     ZoomingDemo.obj
 0002:fffc3000       __unwindtable$??0ImageManager@@QAE@XZ 00400000     ZoomingDemo.obj
 0001:fffff000       __ehhandler$?clear@?$_Tree@V?$_Tmap_traits@V?$basic_string@DU?$char_traits@D@std@@V?$allocator@D@2@@std@@V?$weak_ptr@VRawImageData@@@2@U?$less@V?$basic_string@DU?$char_traits@D@std@@V?$allocator@D@2@@std@@@2@V?$allocator@U?$pair@$$CBV?$basic_string@DU?$char_traits@D@std@@V?$allocator@D@2@@std@@V?$weak_ptr@VRawImageData@@@2@@std@@@2@$0A@@std@@@std@@QAEXXZ 00400000 f   ImageObjectDemo.obj
 0002:fffc3000       __unwindtable$?get@ImageManager@@SAPAV1@XZ 00400000     ZoomingDemo.obj
 0001:fffff000       __ehhandler$?_Orphan_all@_Container_base12@std@@QAEXXZ 00400000 f   JigsawDemo.obj
 0002:fffc3000       __unwindtable$?_Tidy@?$_Tree@V?$_Tmap_traits@V?$basic_string@DU?$char_traits@D@std@@V?$allocator@D@2@@std@@V?$shared_ptr@VRawImageData@@@2@U?$less@V?$basic_string@DU?$char_traits@D@std@@V?$allocator@D@2@@std@@@2@V?$allocator@U?$pair@$$CBV?$basic_string@DU?$char_traits@D@std@@V?$allocator@D@2@@std@@V?$shared_ptr@VRawImageData@@@2@@std@@@2@$0A@@std@@@std@@IAEXXZ 00400000     ZoomingDemo.obj
 0001:fffff000       __ehhandler$?_Swap_all@_Container_base12@std@@QAEXAAU12@@Z 00400000 f   JigsawDemo.obj
 0002:fffc3000       __unwindtable$?_Orphan_ptr@?$_Tree@V?$_Tmap_traits@V?$basic_string@DU?$char_traits@D@std@@V?$allocator@D@2@@std@@V?$shared_ptr@VRawImageData@@@2@U?$less@V?$basic_string@DU?$char_traits@D@std@@V?$allocator@D@2@@std@@@2@V?$allocator@U?$pair@$$CBV?$basic_string@DU?$char_traits@D@std@@V?$allocator@D@2@@std@@V?$shared_ptr@VRawImageData@@@2@@std@@@2@$0A@@std@@@std@@IAEXPAU?$_Tree_node@U?$pair@$$CBV?$basic_string@DU?$char_traits@D@std@@V?$allocator@D@2@@std@@V?$shared_ptr@VRawImageData@@@2@@std@@PAX@2@@Z 00400000     ZoomingDemo.obj
 0001:fffff000       __ehhandler$??4_Iterator_base12@std@@QAEAAU01@ABU01@@Z 00400000 f   JigsawDemo.obj
 0002:fffc3000       __ehfuncinfo$?clear@?$_Tree@V?$_Tmap_traits@V?$basic_string@DU?$char_traits@D@std@@V?$allocator@D@2@@std@@V?$shared_ptr@VRawImageData@@@2@U?$less@V?$basic_string@DU?$char_traits@D@std@@V?$allocator@D@2@@std@@@2@V?$allocator@U?$pair@$$CBV?$basic_string@DU?$char_traits@D@std@@V?$allocator@D@2@@std@@V?$shared_ptr@VRawImageData@@@2@@std@@@2@$0A@@std@@@std@@QAEXXZ 00400000     ZoomingDemo.obj
 0002:fffc3000       __unwindtable$?erase@?$_Tree@V?$_Tmap_traits@V?$basic_string@DU?$char_traits@D@std@@V?$allocator@D@2@@std@@V?$shared_ptr@VRawImageData@@@2@U?$less@V?$basic_string@DU?$char_traits@D@std@@V?$allocator@D@2@@std@@@2@V?$allocator@U?$pair@$$CBV?$basic_string@DU?$char_traits@D@std@@V?$allocator@D@2@@std@@V?$shared_ptr@VRawImageData@@@2@@std@@@2@$0A@@std@@@std@@QAE?AV?$_Tree_iterator@V?$_Tree_val@U?$_Tree_simple_types@U?$pair@$$CBV?$basic_string@DU?$char_traits@D@std@@V?$allocator@D@2@@std@@V?$shared_ptr@VRawImageData@@@2@@std@@@std@@@std@@@2@V?$_Tree_const_iterator@V?$_Tree_val@U?$_Tree_simple_types@U?$pair@$$CBV?$basic_string@DU?$char_traits@D@std@@V?$allocator@D@2@@std@@V?$shared_ptr@VRawImageData@@@2@@std@@@std@@@std@@@2@0@Z 00400000     ZoomingDemo.obj
 0001:fffff000       __ehhandler$??1_Iterator_base12@std@@QAE@XZ 00400000 f   JigsawDemo.obj
 0002:fffc3000       __unwindtable$?erase@?$_Tree@V?$_Tmap_traits@V?$basic_string@DU?$char_traits@D@std@@V?$allocator@D@2@@std@@V?$shared_ptr@VRawImageData@@@2@U?$less@V?$basic_string@DU?$char_traits@D@std@@V?$allocator@D@2@@std@@@2@V?$allocator@U?$pair@$$CBV?$basic_string@DU?$char_traits@D@std@@V?$allocator@D@2@@std@@V?$shared_ptr@VRawImageData@@@2@@std@@@2@$0A@@std@@@std@@QAE?AV?$_Tree_iterator@V?$_Tree_val@U?$_Tree_simple_types@U?$pair@$$CBV?$basic_string@DU?$char_traits@D@std@@V?$allocator@D@2@@std@@V?$shared_ptr@VRawImageData@@@2@@std@@@std@@@std@@@2@V?$_Tree_const_iterator@V?$_Tree_val@U?$_Tree_simple_types@U?$pair@$$CBV?$basic_string@DU?$char_traits@D@std@@V?$allocator@D@2@@std@@V?$shared_ptr@VRawImageData@@@2@@std@@@std@@@std@@@2@@Z 00400000     ZoomingDemo.obj
 0001:fffff000       __ehhandler$?_Adopt@_Iterator_base12@std@@QAEXPBU_Container_base12@2@@Z 00400000 f   JigsawDemo.obj
 0002:fffc3000       __ehfuncinfo$?end@?$_Tree@V?$_Tmap_traits@V?$basic_string@DU?$char_traits@D@std@@V?$allocator@D@2@@std@@V?$shared_ptr@VRawImageData@@@2@U?$less@V?$basic_string@DU?$char_traits@D@std@@V?$allocator@D@2@@std@@@2@V?$allocator@U?$pair@$$CBV?$basic_string@DU?$char_traits@D@std@@V?$allocator@D@2@@std@@V?$shared_ptr@VRawImageData@@@2@@std@@@2@$0A@@std@@@std@@QAE?AV?$_Tree_iterator@V?$_Tree_val@U?$_Tree_simple_types@U?$pair@$$CBV?$basic_string@DU?$char_traits@D@std@@V?$allocator@D@2@@std@@V?$shared_ptr@VRawImageData@@@2@@std@@@std@@@std@@@2@XZ 00400000     ZoomingDemo.obj
 0002:fffc3000       __ehfuncinfo$?begin@?$_Tree@V?$_Tmap_traits@V?$basic_string@DU?$char_traits@D@std@@V?$allocator@D@2@@std@@V?$shared_ptr@VRawImageData@@@2@U?$less@V?$basic_string@DU?$char_traits@D@std@@V?$allocator@D@2@@std@@@2@V?$allocator@U?$pair@$$CBV?$basic_string@DU?$char_traits@D@std@@V?$allocator@D@2@@std@@V?$shared_ptr@VRawImageData@@@2@@std@@@2@$0A@@std@@@std@@QAE?AV?$_Tree_iterator@V?$_Tree_val@U?$_Tree_simple_types@U?$pair@$$CBV?$basic_string@DU?$char_traits@D@std@@V?$allocator@D@2@@std@@V?$shared_ptr@VRawImageData@@@2@@std@@@std@@@std@@@2@XZ 00400000     ZoomingDemo.obj
 0002:fffc3000       __ehfuncinfo$??1?$_Tree@V?$_Tmap_traits@V?$basic_string@DU?$char_traits@D@std@@V?$allocator@D@2@@std@@V?$shared_ptr@VRawImageData@@@2@U?$less@V?$basic_string@DU?$char_traits@D@std@@V?$allocator@D@2@@std@@@2@V?$allocator@U?$pair@$$CBV?$basic_string@DU?$char_traits@D@std@@V?$allocator@D@2@@std@@V?$shared_ptr@VRawImageData@@@2@@std@@@2@$0A@@std@@@std@@QAE@XZ 00400000     ZoomingDemo.obj
 0002:fffc3000       __unwindtable$?_Extract@?$_Tree_val@U?$_Tree_simple_types@U?$pair@$$CBV?$basic_string@DU?$char_traits@D@std@@V?$allocator@D@2@@std@@V?$shared_ptr@VRawImageData@@@2@@std@@@std@@@std@@QAEPAU?$_Tree_node@U?$pair@$$CBV?$basic_string@DU?$char_traits@D@std@@V?$allocator@D@2@@std@@V?$shared_ptr@VRawImageData@@@2@@std@@PAX@2@V?$_Tree_const_iterator@V?$_Tree_val@U?$_Tree_simple_types@U?$pair@$$CBV?$basic_string@DU?$char_traits@D@std@@V?$allocator@D@2@@std@@V?$shared_ptr@VRawImageData@@@2@@std@@@std@@@std@@@2@@Z 00400000     ZoomingDemo.obj
 0001:fffff000       __unwindfunclet$??0?$_String_alloc@U?$_String_base_types@DV?$allocator@D@std@@@std@@@std@@QAE@XZ$0 00400000 f   JigsawDemo.obj
 0002:fffc3000       __catchsym$?_Buynode0@?$_Tree_comp_alloc@V?$_Tmap_traits@V?$basic_string@DU?$char_traits@D@std@@V?$allocator@D@2@@std@@V?$shared_ptr@VRawImageData@@@2@U?$less@V?$basic_string@DU?$char_traits@D@std@@V?$allocator@D@2@@std@@@2@V?$allocator@U?$pair@$$CBV?$basic_string@DU?$char_traits@D@std@@V?$allocator@D@2@@std@@V?$shared_ptr@VRawImageData@@@2@@std@@@2@$0A@@std@@@std@@QAEPAU?$_Tree_node@U?$pair@$$CBV?$basic_string@DU?$char_traits@D@std@@V?$allocator@D@2@@std@@V?$shared_ptr@VRawImageData@@@2@@std@@PAX@2@XZ$2 00400000     ZoomingDemo.obj
 0001:fffff000       __ehhandler$??1?$_String_alloc@U?$_String_base_types@DV?$allocator@D@std@@@std@@@std@@QAE@XZ 00400000 f   JigsawDemo.obj
 0001:fffff000       __unwindfunclet$??0?$basic_string@DU?$char_traits@D@std@@V?$allocator@D@2@@std@@QAE@ABV01@@Z$0 00400000 f   JigsawDemo.obj
 0001:fffff000       __unwindfunclet$??0?$basic_string@DU?$char_traits@D@std@@V?$allocator@D@2@@std@@QAE@QBD@Z$0 00400000 f   JigsawDemo.obj
 0002:fffc3000       __catchsym$?_Buyheadnode@?$_Tree_comp_alloc@V?$_Tmap_traits@V?$basic_string@DU?$char_traits@D@std@@V?$allocator@D@2@@std@@V?$shared_ptr@VRawImageData@@@2@U?$less@V?$basic_string@DU?$char_traits@D@std@@V?$allocator@D@2@@std@@@2@V?$allocator@U?$pair@$$CBV?$basic_string@DU?$char_traits@D@std@@V?$allocator@D@2@@std@@V?$shared_ptr@VRawImageData@@@2@@std@@@2@$0A@@std@@@std@@QAEPAU?$_Tree_node@U?$pair@$$CBV?$basic_string@DU?$char_traits@D@std@@V?$allocator@D@2@@std@@V?$shared_ptr@VRawImageData@@@2@@std@@PAX@2@XZ$2 00400000     ZoomingDemo.obj
 0001:fffff000       __ehhandler$??0?$basic_string@DU?$char_traits@D@std@@V?$allocator@D@2@@std@@QAE@$$QAV01@@Z 00400000 f   JigsawDemo.obj
 0001:fffff000       __ehhandler$?_Assign_rv_contents_with_alloc_always_equal@?$basic_string@DU?$char_traits@D@std@@V?$allocator@D@2@@std@@QAEX$$QAV12@U?$integral_constant@_N$00@2@@Z 00400000 f   JigsawDemo.obj
 0001:fffff000       __ehhandler$??1?$basic_string@DU?$char_traits@D@std@@V?$allocator@D@2@@std@@QAE@XZ 00400000 f   JigsawDemo.obj
 0002:fffc3000       __ehfuncinfo$??1?$_Tree_comp_alloc@V?$_Tmap_traits@V?$basic_string@DU?$char_traits@D@std@@V?$allocator@D@2@@std@@V?$shared_ptr@VRawImageData@@@2@U?$less@V?$basic_string@DU?$char_traits@D@std@@V?$allocator@D@2@@std@@@2@V?$allocator@U?$pair@$$CBV?$basic_string@DU?$char_traits@D@std@@V?$allocator@D@2@@std@@V?$shared_ptr@VRawImageData@@@2@@std@@@2@$0A@@std@@@std@@QAE@XZ 00400000     ZoomingDemo.obj
 0002:fffc3000       __catchsym$?_Construct@?$_Tree_comp_alloc@V?$_Tmap_traits@V?$basic_string@DU?$char_traits@D@std@@V?$allocator@D@2@@std@@V?$shared_ptr@VRawImageData@@@2@U?$less@V?$basic_string@DU?$char_traits@D@std@@V?$allocator@D@2@@std@@@2@V?$allocator@U?$pair@$$CBV?$basic_string@DU?$char_traits@D@std@@V?$allocator@D@2@@std@@V?$shared_ptr@VRawImageData@@@2@@std@@@2@$0A@@std@@@std@@QAEXXZ$2 00400000     ZoomingDemo.obj
 0001:fffff000       __ehhandler$?c_str@?$basic_string@DU?$char_traits@D@std@@V?$allocator@D@2@@std@@QBEPBDXZ 00400000 f   JigsawDemo.obj
 0001:fffff000       __ehhandler$?data@?$basic_string@DU?$char_traits@D@std@@V?$allocator@D@2@@std@@QBEPBDXZ 00400000 f   JigsawDemo.obj
 0001:fffff000       __ehhandler$?compare@?$basic_string@DU?$char_traits@D@std@@V?$allocator@D@2@@std@@QBEHABV12@@Z 00400000 f   JigsawDemo.obj
 0002:fffc3000       __unwindtable$?_Tidy@?$_Tree@V?$_Tmap_traits@V?$basic_string@DU?$char_traits@D@std@@V?$allocator@D@2@@std@@V?$weak_ptr@VRawImageData@@@2@U?$less@V?$basic_string@DU?$char_traits@D@std@@V?$allocator@D@2@@std@@@2@V?$allocator@U?$pair@$$CBV?$basic_string@DU?$char_traits@D@std@@V?$allocator@D@2@@std@@V?$weak_ptr@VRawImageData@@@2@@std@@@2@$0A@@std@@@std@@IAEXXZ 00400000     ZoomingDemo.obj
 0001:fffff000       __ehhandler$?_Use_count@_Ref_count_base@std@@QBEJXZ 00400000 f   JigsawDemo.obj
 0002:fffc3000       __unwindtable$?_Orphan_ptr@?$_Tree@V?$_Tmap_traits@V?$basic_string@DU?$char_traits@D@std@@V?$allocator@D@2@@std@@V?$weak_ptr@VRawImageData@@@2@U?$less@V?$basic_string@DU?$char_traits@D@std@@V?$allocator@D@2@@std@@@2@V?$allocator@U?$pair@$$CBV?$basic_string@DU?$char_traits@D@std@@V?$allocator@D@2@@std@@V?$weak_ptr@VRawImageData@@@2@@std@@@2@$0A@@std@@@std@@IAEXPAU?$_Tree_node@U?$pair@$$CBV?$basic_string@DU?$char_traits@D@std@@V?$allocator@D@2@@std@@V?$weak_ptr@VRawImageData@@@2@@std@@PAX@2@@Z 00400000     ZoomingDemo.obj
 0001:fffff000       __unwindfunclet$??$?6U?$char_traits@D@std@@@std@@YAAAV?$basic_ostream@DU?$char_traits@D@std@@@0@AAV10@PBD@Z$2 00400000 f   JigsawDemo.obj
 0002:fffc3000       __unwindtable$?find@?$_Tree@V?$_Tmap_traits@V?$basic_string@DU?$char_traits@D@std@@V?$allocator@D@2@@std@@V?$weak_ptr@VRawImageData@@@2@U?$less@V?$basic_string@DU?$char_traits@D@std@@V?$allocator@D@2@@std@@@2@V?$allocator@U?$pair@$$CBV?$basic_string@DU?$char_traits@D@std@@V?$allocator@D@2@@std@@V?$weak_ptr@VRawImageData@@@2@@std@@@2@$0A@@std@@@std@@QAE?AV?$_Tree_iterator@V?$_Tree_val@U?$_Tree_simple_types@U?$pair@$$CBV?$basic_string@DU?$char_traits@D@std@@V?$allocator@D@2@@std@@V?$weak_ptr@VRawImageData@@@2@@std@@@std@@@std@@@2@ABV?$basic_string@DU?$char_traits@D@std@@V?$allocator@D@2@@2@@Z 00400000     ZoomingDemo.obj
 0001:fffff000       __unwindfunclet$?_Orphan_range@?$vector@PAVDisplayableObject@@V?$allocator@PAVDisplayableObject@@@std@@@std@@ABEXPAPAVDisplayableObject@@0@Z$0 00400000 f   JigsawDemo.obj
 0002:fffc3000       __ehfuncinfo$?clear@?$_Tree@V?$_Tmap_traits@V?$basic_string@DU?$char_traits@D@std@@V?$allocator@D@2@@std@@V?$weak_ptr@VRawImageData@@@2@U?$less@V?$basic_string@DU?$char_traits@D@std@@V?$allocator@D@2@@std@@@2@V?$allocator@U?$pair@$$CBV?$basic_string@DU?$char_traits@D@std@@V?$allocator@D@2@@std@@V?$weak_ptr@VRawImageData@@@2@@std@@@2@$0A@@std@@@std@@QAEXXZ 00400000     ZoomingDemo.obj
 0002:fffc3000       __unwindtable$?erase@?$_Tree@V?$_Tmap_traits@V?$basic_string@DU?$char_traits@D@std@@V?$allocator@D@2@@std@@V?$weak_ptr@VRawImageData@@@2@U?$less@V?$basic_string@DU?$char_traits@D@std@@V?$allocator@D@2@@std@@@2@V?$allocator@U?$pair@$$CBV?$basic_string@DU?$char_traits@D@std@@V?$allocator@D@2@@std@@V?$weak_ptr@VRawImageData@@@2@@std@@@2@$0A@@std@@@std@@QAE?AV?$_Tree_iterator@V?$_Tree_val@U?$_Tree_simple_types@U?$pair@$$CBV?$basic_string@DU?$char_traits@D@std@@V?$allocator@D@2@@std@@V?$weak_ptr@VRawImageData@@@2@@std@@@std@@@std@@@2@V?$_Tree_const_iterator@V?$_Tree_val@U?$_Tree_simple_types@U?$pair@$$CBV?$basic_string@DU?$char_traits@D@std@@V?$allocator@D@2@@std@@V?$weak_ptr@VRawImageData@@@2@@std@@@std@@@std@@@2@0@Z 00400000     ZoomingDemo.obj
 0001:fffff000       __unwindfunclet$??0RawImageData@@QAE@V?$basic_string@DU?$char_traits@D@std@@V?$allocator@D@2@@std@@@Z$0 00400000 f   JigsawDemo.obj
